
main.elf:     file format elf32-avr

Sections:
Idx Name          Size      VMA       LMA       File off  Algn
  0 .data         000000f4  00800100  000059e6  00005a7a  2**0
                  CONTENTS, ALLOC, LOAD, DATA
  1 .text         000059e6  00000000  00000000  00000094  2**1
                  CONTENTS, ALLOC, LOAD, READONLY, CODE
  2 .bss          00000354  008001f4  008001f4  00005b6e  2**0
                  ALLOC
  3 .comment      00000030  00000000  00000000  00005b6e  2**0
                  CONTENTS, READONLY
  4 .note.gnu.avr.deviceinfo 00000040  00000000  00000000  00005ba0  2**2
                  CONTENTS, READONLY
  5 .debug_aranges 000004e8  00000000  00000000  00005be0  2**3
                  CONTENTS, READONLY, DEBUGGING
  6 .debug_info   000087cf  00000000  00000000  000060c8  2**0
                  CONTENTS, READONLY, DEBUGGING
  7 .debug_abbrev 00001968  00000000  00000000  0000e897  2**0
                  CONTENTS, READONLY, DEBUGGING
  8 .debug_line   00005e08  00000000  00000000  000101ff  2**0
                  CONTENTS, READONLY, DEBUGGING
  9 .debug_frame  000015c8  00000000  00000000  00016008  2**2
                  CONTENTS, READONLY, DEBUGGING
 10 .debug_str    0000aec4  00000000  00000000  000175d0  2**0
                  CONTENTS, READONLY, DEBUGGING
 11 .debug_loc    00008d00  00000000  00000000  00022494  2**0
                  CONTENTS, READONLY, DEBUGGING
 12 .debug_ranges 00000470  00000000  00000000  0002b194  2**0
                  CONTENTS, READONLY, DEBUGGING
 13 .debug_macro  00003c71  00000000  00000000  0002b604  2**0
                  CONTENTS, READONLY, DEBUGGING

Disassembly of section .text:

00000000 <__vectors>:
       0:	22 c1       	rjmp	.+580    	; 0x246 <__ctors_end>
       2:	00 00       	nop
       4:	e0 c5       	rjmp	.+3008   	; 0xbc6 <__vector_1>
       6:	00 00       	nop
       8:	3b c1       	rjmp	.+630    	; 0x280 <__bad_interrupt>
       a:	00 00       	nop
       c:	39 c1       	rjmp	.+626    	; 0x280 <__bad_interrupt>
       e:	00 00       	nop
      10:	37 c1       	rjmp	.+622    	; 0x280 <__bad_interrupt>
      12:	00 00       	nop
      14:	35 c1       	rjmp	.+618    	; 0x280 <__bad_interrupt>
      16:	00 00       	nop
      18:	33 c1       	rjmp	.+614    	; 0x280 <__bad_interrupt>
      1a:	00 00       	nop
      1c:	0c 94 88 0c 	jmp	0x1910	; 0x1910 <__vector_7>
      20:	2f c1       	rjmp	.+606    	; 0x280 <__bad_interrupt>
      22:	00 00       	nop
      24:	2d c1       	rjmp	.+602    	; 0x280 <__bad_interrupt>
      26:	00 00       	nop
      28:	2b c1       	rjmp	.+598    	; 0x280 <__bad_interrupt>
      2a:	00 00       	nop
      2c:	a6 c5       	rjmp	.+2892   	; 0xb7a <__vector_11>
      2e:	00 00       	nop
      30:	27 c1       	rjmp	.+590    	; 0x280 <__bad_interrupt>
      32:	00 00       	nop
      34:	25 c1       	rjmp	.+586    	; 0x280 <__bad_interrupt>
      36:	00 00       	nop
      38:	0c 94 02 0b 	jmp	0x1604	; 0x1604 <__vector_14>
      3c:	21 c1       	rjmp	.+578    	; 0x280 <__bad_interrupt>
      3e:	00 00       	nop
      40:	1f c1       	rjmp	.+574    	; 0x280 <__bad_interrupt>
      42:	00 00       	nop
      44:	1d c1       	rjmp	.+570    	; 0x280 <__bad_interrupt>
      46:	00 00       	nop
      48:	1b c1       	rjmp	.+566    	; 0x280 <__bad_interrupt>
      4a:	00 00       	nop
      4c:	19 c1       	rjmp	.+562    	; 0x280 <__bad_interrupt>
      4e:	00 00       	nop
      50:	17 c1       	rjmp	.+558    	; 0x280 <__bad_interrupt>
      52:	00 00       	nop
      54:	15 c1       	rjmp	.+554    	; 0x280 <__bad_interrupt>
      56:	00 00       	nop
      58:	13 c1       	rjmp	.+550    	; 0x280 <__bad_interrupt>
      5a:	00 00       	nop
      5c:	11 c1       	rjmp	.+546    	; 0x280 <__bad_interrupt>
      5e:	00 00       	nop
      60:	0f c1       	rjmp	.+542    	; 0x280 <__bad_interrupt>
      62:	00 00       	nop
      64:	0d c1       	rjmp	.+538    	; 0x280 <__bad_interrupt>
      66:	00 00       	nop
      68:	55 28       	or	r5, r5
      6a:	61 28       	or	r6, r1
      6c:	82 2b       	or	r24, r18
      6e:	e0 28       	or	r14, r0
      70:	81 29       	or	r24, r1
      72:	82 2b       	or	r24, r18
      74:	82 2b       	or	r24, r18
      76:	49 2a       	or	r4, r25
      78:	82 2b       	or	r24, r18
      7a:	82 2b       	or	r24, r18
      7c:	82 2b       	or	r24, r18
      7e:	82 2b       	or	r24, r18
      80:	82 2b       	or	r24, r18
      82:	82 2b       	or	r24, r18
      84:	82 2b       	or	r24, r18
      86:	82 2b       	or	r24, r18
      88:	82 2b       	or	r24, r18
      8a:	82 2b       	or	r24, r18
      8c:	82 2b       	or	r24, r18
      8e:	82 2b       	or	r24, r18
      90:	82 2b       	or	r24, r18
      92:	82 2b       	or	r24, r18
      94:	82 2b       	or	r24, r18
      96:	82 2b       	or	r24, r18
      98:	82 2b       	or	r24, r18
      9a:	82 2b       	or	r24, r18
      9c:	82 2b       	or	r24, r18
      9e:	82 2b       	or	r24, r18
      a0:	82 2b       	or	r24, r18
      a2:	82 2b       	or	r24, r18
      a4:	82 2b       	or	r24, r18
      a6:	82 2b       	or	r24, r18
      a8:	82 2b       	or	r24, r18
      aa:	82 2b       	or	r24, r18
      ac:	82 2b       	or	r24, r18
      ae:	82 2b       	or	r24, r18
      b0:	82 2b       	or	r24, r18
      b2:	82 2b       	or	r24, r18
      b4:	82 2b       	or	r24, r18
      b6:	82 2b       	or	r24, r18
      b8:	82 2b       	or	r24, r18
      ba:	82 2b       	or	r24, r18
      bc:	82 2b       	or	r24, r18
      be:	82 2b       	or	r24, r18
      c0:	82 2b       	or	r24, r18
      c2:	82 2b       	or	r24, r18
      c4:	82 2b       	or	r24, r18
      c6:	82 2b       	or	r24, r18
      c8:	82 2b       	or	r24, r18
      ca:	82 2b       	or	r24, r18
      cc:	d5 29       	or	r29, r5
      ce:	dc 29       	or	r29, r12
      d0:	f5 29       	or	r31, r5
      d2:	0e 2a       	or	r0, r30
      d4:	2e 2a       	or	r2, r30
      d6:	51 2a       	or	r5, r17
      d8:	c2 2a       	or	r12, r18
      da:	2d 2b       	or	r18, r29

000000dc <__trampolines_end>:
      dc:	25 30       	cpi	r18, 0x05	; 5
      de:	33 64       	ori	r19, 0x43	; 67
	...

000000e1 <__c.2295>:
      e1:	23 25 30 33 64 00                                   #%03d.

000000e7 <__c.2293>:
      e7:	52 43 56 3a 25 73 00                                RCV:%s.

000000ee <__c.2291>:
      ee:	23 3f 3f 3f 00                                      #???.

000000f3 <__c.2289>:
      f3:	52 43 56 3a 3f 3f 3f 3f 3f 3f 3f 3f 2e 3f 3f 3f     RCV:????????.???
	...

00000104 <__c.2283>:
     104:	25 30 33 64 00                                      %03d.

00000109 <__c.2278>:
     109:	23 58 58 58 2f 25 30 33 64 25 63 20 25 73 00        #XXX/%03d%c %s.

00000118 <__c.2266>:
     118:	53 4e 44 3a 25 73 00                                SND:%s.

0000011f <__c.2252>:
     11f:	46 52 5f 25 53 00                                   FR_%S.

00000125 <__c.2250>:
     125:	72 63 3d 25 75 00                                   rc=%u.

0000012b <str.2236>:
     12b:	4f 4b 00 44 49 53 4b 5f 45 52 52 00 49 4e 54 5f     OK.DISK_ERR.INT_
     13b:	45 52 52 00 4e 4f 54 5f 52 45 41 44 59 00 4e 4f     ERR.NOT_READY.NO
     14b:	5f 46 49 4c 45 00 4e 4f 5f 50 41 54 48 00 49 4e     _FILE.NO_PATH.IN
     15b:	56 41 4c 49 44 5f 4e 41 4d 45 00 44 45 4e 49 45     VALID_NAME.DENIE
     16b:	44 00 45 58 49 53 54 00 49 4e 56 41 4c 49 44 5f     D.EXIST.INVALID_
     17b:	4f 42 4a 45 43 54 00 57 52 49 54 45 5f 50 52 4f     OBJECT.WRITE_PRO
     18b:	54 45 43 54 45 44 00 49 4e 56 41 4c 49 44 5f 44     TECTED.INVALID_D
     19b:	52 49 56 45 00 4e 4f 54 5f 45 4e 41 42 4c 45 44     RIVE.NOT_ENABLED
     1ab:	00 4e 4f 5f 46 49 4c 45 5f 53 59 53 54 45 4d 00     .NO_FILE_SYSTEM.
     1bb:	4d 4b 46 53 5f 41 42 4f 52 54 45 44 00 54 49 4d     MKFS_ABORTED.TIM
     1cb:	45 4f 55 54 00 4c 4f 43 4b 45 44 00 4e 4f 54 5f     EOUT.LOCKED.NOT_
     1db:	45 4e 4f 55 47 48 5f 43 4f 52 45 00 54 4f 4f 5f     ENOUGH_CORE.TOO_
     1eb:	4d 41 4e 59 5f 4f 50 45 4e 5f 46 49 4c 45 53 00     MANY_OPEN_FILES.
	...

000001fc <pct_d_str>:
     1fc:	25 64 00                                            %d.

000001ff <pct_s_str>:
     1ff:	25 73 00                                            %s.

00000202 <empty_dir_str>:
     202:	5b 45 6d 70 74 79 20 44 69 72 5d 00                 [Empty Dir].

0000020e <dir_str>:
     20e:	5b 44 49 52 5d 00                                   [DIR].

00000214 <dotdotdir_str>:
     214:	2e 2e 20 5b 47 4f 20 55 50 5d 00                    .. [GO UP].

0000021f <tap_header_str>:
     21f:	c3 4b 43 2d 54 41 50 45 20 62 79 20 41 46 2e 20     .KC-TAPE by AF. 
	...

00000230 <__c.2491>:
     230:	54 6f 6f 20 73 68 6f 72 74 3a 25 75 62 00           Too short:%ub.

0000023e <__c.2489>:
     23e:	45 52 52 3a 25 73 00 00                             ERR:%s..

00000246 <__ctors_end>:
     246:	11 24       	eor	r1, r1
     248:	1f be       	out	0x3f, r1	; 63
     24a:	cf ef       	ldi	r28, 0xFF	; 255
     24c:	d8 e0       	ldi	r29, 0x08	; 8
     24e:	de bf       	out	0x3e, r29	; 62
     250:	cd bf       	out	0x3d, r28	; 61

00000252 <__do_copy_data>:
     252:	11 e0       	ldi	r17, 0x01	; 1
     254:	a0 e0       	ldi	r26, 0x00	; 0
     256:	b1 e0       	ldi	r27, 0x01	; 1
     258:	e6 ee       	ldi	r30, 0xE6	; 230
     25a:	f9 e5       	ldi	r31, 0x59	; 89
     25c:	02 c0       	rjmp	.+4      	; 0x262 <__do_copy_data+0x10>
     25e:	05 90       	lpm	r0, Z+
     260:	0d 92       	st	X+, r0
     262:	a4 3f       	cpi	r26, 0xF4	; 244
     264:	b1 07       	cpc	r27, r17
     266:	d9 f7       	brne	.-10     	; 0x25e <__do_copy_data+0xc>

00000268 <__do_clear_bss>:
     268:	25 e0       	ldi	r18, 0x05	; 5
     26a:	a4 ef       	ldi	r26, 0xF4	; 244
     26c:	b1 e0       	ldi	r27, 0x01	; 1
     26e:	01 c0       	rjmp	.+2      	; 0x272 <.do_clear_bss_start>

00000270 <.do_clear_bss_loop>:
     270:	1d 92       	st	X+, r1

00000272 <.do_clear_bss_start>:
     272:	a8 34       	cpi	r26, 0x48	; 72
     274:	b2 07       	cpc	r27, r18
     276:	e1 f7       	brne	.-8      	; 0x270 <.do_clear_bss_loop>
     278:	0e 94 eb 0c 	call	0x19d6	; 0x19d6 <main>
     27c:	0c 94 f1 2c 	jmp	0x59e2	; 0x59e2 <_exit>

00000280 <__bad_interrupt>:
     280:	bf ce       	rjmp	.-642    	; 0x0 <__vectors>

00000282 <xputc>:

.func xputc
.global xputc
xputc:
#if CR_CRLF
	cpi	r24, 10		;LF --> CRLF
     282:	8a 30       	cpi	r24, 0x0A	; 10
	brne	1f		;
     284:	19 f4       	brne	.+6      	; 0x28c <xputc+0xa>
	ldi	r24, 13		;
     286:	8d e0       	ldi	r24, 0x0D	; 13
	rcall	1f		;
     288:	01 d0       	rcall	.+2      	; 0x28c <xputc+0xa>
	ldi	r24, 10		;/
     28a:	8a e0       	ldi	r24, 0x0A	; 10
1:
#endif
	push	ZH
     28c:	ff 93       	push	r31
	push	ZL
     28e:	ef 93       	push	r30
	lds	ZL, xfunc_out+0	;Pointer to the registered output function.
     290:	e0 91 f4 01 	lds	r30, 0x01F4	; 0x8001f4 <__data_end>
	lds	ZH, xfunc_out+1	;/
     294:	f0 91 f5 01 	lds	r31, 0x01F5	; 0x8001f5 <__data_end+0x1>
	sbiw	ZL, 0		;Skip if null
     298:	30 97       	sbiw	r30, 0x00	; 0
	breq	2f		;/
     29a:	09 f0       	breq	.+2      	; 0x29e <xputc+0x1c>
	icall
     29c:	09 95       	icall
2:	pop	ZL
     29e:	ef 91       	pop	r30
	pop	ZH
     2a0:	ff 91       	pop	r31
	ret
     2a2:	08 95       	ret

000002a4 <xputs>:
;			);

.func xputs
.global xputs
xputs:
	_MOVW	ZH,ZL, r25,r24	; Z = pointer to rom string
     2a4:	fc 01       	movw	r30, r24
1:	_LPMI	r24
     2a6:	85 91       	lpm	r24, Z+
	cpi	r24, 0
     2a8:	80 30       	cpi	r24, 0x00	; 0
	breq	2f
     2aa:	11 f0       	breq	.+4      	; 0x2b0 <xputs+0xc>
	rcall	xputc
     2ac:	ea df       	rcall	.-44     	; 0x282 <xputc>
	rjmp	1b
     2ae:	fb cf       	rjmp	.-10     	; 0x2a6 <xputs+0x2>
2:	ret
     2b0:	08 95       	ret

000002b2 <xitoa>:

.func xitoa
.global xitoa
xitoa:
				;r25:r22 = value, r20 = base, r18 = digits
	clr	r31		;r31 = stack level
     2b2:	ff 27       	eor	r31, r31
	ldi	r30, ' '	;r30 = sign
     2b4:	e0 e2       	ldi	r30, 0x20	; 32
	ldi	r19, ' '	;r19 = filler
     2b6:	30 e2       	ldi	r19, 0x20	; 32
	sbrs	r20, 7		;When base indicates signd format and the value
     2b8:	47 ff       	sbrs	r20, 7
	rjmp	0f		;is minus, add a '-'.
     2ba:	0c c0       	rjmp	.+24     	; 0x2d4 <xitoa+0x22>
	neg	r20		;
     2bc:	41 95       	neg	r20
	sbrs	r25, 7		;
     2be:	97 ff       	sbrs	r25, 7
	rjmp	0f		;
     2c0:	09 c0       	rjmp	.+18     	; 0x2d4 <xitoa+0x22>
	ldi	r30, '-'	;
     2c2:	ed e2       	ldi	r30, 0x2D	; 45
	com	r22		;
     2c4:	60 95       	com	r22
	com	r23		;
     2c6:	70 95       	com	r23
	com	r24		;
     2c8:	80 95       	com	r24
	com	r25		;
     2ca:	90 95       	com	r25
	adc	r22, r1		;
     2cc:	61 1d       	adc	r22, r1
	adc	r23, r1		;
     2ce:	71 1d       	adc	r23, r1
	adc	r24, r1		;
     2d0:	81 1d       	adc	r24, r1
	adc	r25, r1		;/
     2d2:	91 1d       	adc	r25, r1
0:	sbrs	r18, 7		;When digits indicates zero filled,
     2d4:	27 ff       	sbrs	r18, 7
	rjmp	1f		;filler is '0'.
     2d6:	02 c0       	rjmp	.+4      	; 0x2dc <xitoa+0x2a>
	neg	r18		;
     2d8:	21 95       	neg	r18
	ldi	r19, '0'	;/
     2da:	30 e3       	ldi	r19, 0x30	; 48
				;----- string conversion loop
1:	ldi	r21, 32		;r26 = r25:r22 % r20
     2dc:	50 e2       	ldi	r21, 0x20	; 32
	clr	r26		;r25:r22 /= r20
     2de:	aa 27       	eor	r26, r26
2:	lsl	r22		;
     2e0:	66 0f       	add	r22, r22
	rol	r23		;
     2e2:	77 1f       	adc	r23, r23
	rol	r24		;
     2e4:	88 1f       	adc	r24, r24
	rol	r25		;
     2e6:	99 1f       	adc	r25, r25
	rol	r26		;
     2e8:	aa 1f       	adc	r26, r26
	cp	r26, r20	;
     2ea:	a4 17       	cp	r26, r20
	brcs	3f		;
     2ec:	10 f0       	brcs	.+4      	; 0x2f2 <xitoa+0x40>
	sub	r26, r20	;
     2ee:	a4 1b       	sub	r26, r20
	inc	r22		;
     2f0:	63 95       	inc	r22
3:	dec	r21		;
     2f2:	5a 95       	dec	r21
	brne	2b		;/
     2f4:	a9 f7       	brne	.-22     	; 0x2e0 <xitoa+0x2e>
	cpi	r26, 10		;r26 is a numeral digit '0'-'F'
     2f6:	aa 30       	cpi	r26, 0x0A	; 10
	brcs	4f		;
     2f8:	08 f0       	brcs	.+2      	; 0x2fc <xitoa+0x4a>
	subi	r26, -7		;
     2fa:	a9 5f       	subi	r26, 0xF9	; 249
4:	subi	r26, -'0'	;/
     2fc:	a0 5d       	subi	r26, 0xD0	; 208
	push	r26		;Stack it
     2fe:	af 93       	push	r26
	inc	r31		;/
     300:	f3 95       	inc	r31
	cp	r22, r1		;Repeat until r25:r22 gets zero
     302:	61 15       	cp	r22, r1
	cpc	r23, r1		;
     304:	71 05       	cpc	r23, r1
	cpc	r24, r1		;
     306:	81 05       	cpc	r24, r1
	cpc	r25, r1		;
     308:	91 05       	cpc	r25, r1
	brne	1b		;/
     30a:	41 f7       	brne	.-48     	; 0x2dc <xitoa+0x2a>

	cpi	r30, '-'	;Minus sign if needed
     30c:	ed 32       	cpi	r30, 0x2D	; 45
	brne	5f		;
     30e:	11 f4       	brne	.+4      	; 0x314 <xitoa+0x62>
	push	r30		;
     310:	ef 93       	push	r30
	inc	r31		;/
     312:	f3 95       	inc	r31
5:	cp	r31, r18	;Filler
     314:	f2 17       	cp	r31, r18
	brcc	6f		;
     316:	18 f4       	brcc	.+6      	; 0x31e <xitoa+0x6c>
	push	r19		;
     318:	3f 93       	push	r19
	inc	r31		;
     31a:	f3 95       	inc	r31
	rjmp	5b		;/
     31c:	fb cf       	rjmp	.-10     	; 0x314 <xitoa+0x62>

6:	pop	r24		;Flush stacked digits and exit
     31e:	8f 91       	pop	r24
	rcall	xputc		;
     320:	b0 df       	rcall	.-160    	; 0x282 <xputc>
	dec	r31		;
     322:	fa 95       	dec	r31
	brne	6b		;/
     324:	e1 f7       	brne	.-8      	; 0x31e <xitoa+0x6c>

	ret
     326:	08 95       	ret

00000328 <xvprintf>:

#if USE_XPRINTF

.func xvprintf
xvprintf:
	ld	ZL, Y+		;Z = pointer to format string
     328:	e9 91       	ld	r30, Y+
	ld	ZH, Y+		;/
     32a:	f9 91       	ld	r31, Y+

0:	_LPMI	r24		;Get a format char
     32c:	85 91       	lpm	r24, Z+
	cpi	r24, 0		;End of format string?
     32e:	80 30       	cpi	r24, 0x00	; 0
	breq	90f		;/
     330:	21 f0       	breq	.+8      	; 0x33a <xvprintf+0x12>
	cpi	r24, '%'	;Is format?
     332:	85 32       	cpi	r24, 0x25	; 37
	breq	20f		;/
     334:	19 f0       	breq	.+6      	; 0x33c <xvprintf+0x14>
1:	rcall	xputc		;Put a normal character
     336:	a5 df       	rcall	.-182    	; 0x282 <xputc>
	rjmp	0b		;/
     338:	f9 cf       	rjmp	.-14     	; 0x32c <xvprintf+0x4>
90:	ret
     33a:	08 95       	ret

20:	ldi	r18, 0		;r18: digits
     33c:	20 e0       	ldi	r18, 0x00	; 0
	clt			;T: filler
     33e:	e8 94       	clt
	_LPMI	r21		;Get flags
     340:	55 91       	lpm	r21, Z+
	cpi	r21, '%'	;Is a %?
     342:	55 32       	cpi	r21, 0x25	; 37
	breq	1b		;/
     344:	c1 f3       	breq	.-16     	; 0x336 <xvprintf+0xe>
	cpi	r21, '0'	;Zero filled?
     346:	50 33       	cpi	r21, 0x30	; 48
	brne	23f		;
     348:	11 f4       	brne	.+4      	; 0x34e <xvprintf+0x26>
	set			;/
     34a:	68 94       	set
22:	_LPMI	r21		;Get width
     34c:	55 91       	lpm	r21, Z+
23:	cpi	r21, '9'+1	;
     34e:	5a 33       	cpi	r21, 0x3A	; 58
	brcc	24f		;
     350:	48 f4       	brcc	.+18     	; 0x364 <xvprintf+0x3c>
	subi	r21, '0'	;
     352:	50 53       	subi	r21, 0x30	; 48
	brcs	90b		;
     354:	90 f3       	brcs	.-28     	; 0x33a <xvprintf+0x12>
	lsl	r18		;
     356:	22 0f       	add	r18, r18
	mov	r0, r18		;
     358:	02 2e       	mov	r0, r18
	lsl	r18		;
     35a:	22 0f       	add	r18, r18
	lsl	r18		;
     35c:	22 0f       	add	r18, r18
	add	r18, r0		;
     35e:	20 0d       	add	r18, r0
	add	r18, r21	;
     360:	25 0f       	add	r18, r21
	rjmp	22b		;/
     362:	f4 cf       	rjmp	.-24     	; 0x34c <xvprintf+0x24>

24:	brtc	25f		;get value (low word)
     364:	0e f4       	brtc	.+2      	; 0x368 <xvprintf+0x40>
	neg	r18		;
     366:	21 95       	neg	r18
25:	ld	r24, Y+		;
     368:	89 91       	ld	r24, Y+
	ld	r25, Y+		;/
     36a:	99 91       	ld	r25, Y+
	cpi	r21, 'c'	;Is type character?
     36c:	53 36       	cpi	r21, 0x63	; 99
	breq	1b		;/
     36e:	19 f3       	breq	.-58     	; 0x336 <xvprintf+0xe>
	cpi	r21, 's'	;Is type RAM string?
     370:	53 37       	cpi	r21, 0x73	; 115
	breq	50f		;/
     372:	29 f1       	breq	.+74     	; 0x3be <xvprintf+0x96>
	cpi	r21, 'S'	;Is type ROM string?
     374:	53 35       	cpi	r21, 0x53	; 83
	breq	60f		;/
     376:	59 f1       	breq	.+86     	; 0x3ce <xvprintf+0xa6>
	_MOVW	r23,r22,r25,r24	;r25:r22 = value
     378:	bc 01       	movw	r22, r24
	clr	r24		;
     37a:	88 27       	eor	r24, r24
	clr	r25		;
     37c:	99 27       	eor	r25, r25
	clt			;/
     37e:	e8 94       	clt
	cpi	r21, 'l'	;Is long int?
     380:	5c 36       	cpi	r21, 0x6C	; 108
	brne	26f		;
     382:	21 f4       	brne	.+8      	; 0x38c <xvprintf+0x64>
	ld	r24, Y+		;get value (high word)
     384:	89 91       	ld	r24, Y+
	ld	r25, Y+		;
     386:	99 91       	ld	r25, Y+
	set			;
     388:	68 94       	set
	_LPMI	r21		;/
     38a:	55 91       	lpm	r21, Z+
26:	cpi	r21, 'd'	;Is type signed decimal?
     38c:	54 36       	cpi	r21, 0x64	; 100
	brne	27f		;/
     38e:	39 f4       	brne	.+14     	; 0x39e <xvprintf+0x76>
	ldi	r20, -10	;
     390:	46 ef       	ldi	r20, 0xF6	; 246
	brts	40f		;
     392:	7e f0       	brts	.+30     	; 0x3b2 <xvprintf+0x8a>
	sbrs	r23, 7		;
     394:	77 ff       	sbrs	r23, 7
	rjmp	40f		;
     396:	0d c0       	rjmp	.+26     	; 0x3b2 <xvprintf+0x8a>
	ldi	r24, -1		;
     398:	8f ef       	ldi	r24, 0xFF	; 255
	ldi	r25, -1		;
     39a:	9f ef       	ldi	r25, 0xFF	; 255
	rjmp	40f		;/
     39c:	0a c0       	rjmp	.+20     	; 0x3b2 <xvprintf+0x8a>
27:	cpi	r21, 'u'	;Is type unsigned decimal?
     39e:	55 37       	cpi	r21, 0x75	; 117
	ldi	r20, 10		;
     3a0:	4a e0       	ldi	r20, 0x0A	; 10
	breq	40f		;/
     3a2:	39 f0       	breq	.+14     	; 0x3b2 <xvprintf+0x8a>
	cpi	r21, 'X'	;Is type hexdecimal?
     3a4:	58 35       	cpi	r21, 0x58	; 88
	ldi	r20, 16		;
     3a6:	40 e1       	ldi	r20, 0x10	; 16
	breq	40f		;/
     3a8:	21 f0       	breq	.+8      	; 0x3b2 <xvprintf+0x8a>
	cpi	r21, 'b'	;Is type binary?
     3aa:	52 36       	cpi	r21, 0x62	; 98
	ldi	r20, 2		;
     3ac:	42 e0       	ldi	r20, 0x02	; 2
	breq	40f		;/
     3ae:	09 f0       	breq	.+2      	; 0x3b2 <xvprintf+0x8a>
	ret			;abort
     3b0:	08 95       	ret
40:	push	ZH		;Output the value
     3b2:	ff 93       	push	r31
	push	ZL		;
     3b4:	ef 93       	push	r30
	rcall	xitoa		;
     3b6:	7d df       	rcall	.-262    	; 0x2b2 <xitoa>
42:	pop	ZL		;
     3b8:	ef 91       	pop	r30
	pop	ZH		;
     3ba:	ff 91       	pop	r31
	rjmp	0b		;/
     3bc:	b7 cf       	rjmp	.-146    	; 0x32c <xvprintf+0x4>

50:	push	ZH		;Put a string on the RAM
     3be:	ff 93       	push	r31
	push	ZL
     3c0:	ef 93       	push	r30
	_MOVW	ZH,ZL, r25,r24
     3c2:	fc 01       	movw	r30, r24
51:	ld	r24, Z+
     3c4:	81 91       	ld	r24, Z+
	cpi	r24, 0
     3c6:	80 30       	cpi	r24, 0x00	; 0
	breq	42b
     3c8:	b9 f3       	breq	.-18     	; 0x3b8 <xvprintf+0x90>
	rcall	xputc
     3ca:	5b df       	rcall	.-330    	; 0x282 <xputc>
	rjmp	51b
     3cc:	fb cf       	rjmp	.-10     	; 0x3c4 <xvprintf+0x9c>

60:	push	ZH		;Put a string on the ROM
     3ce:	ff 93       	push	r31
	push	ZL
     3d0:	ef 93       	push	r30
	rcall	xputs
     3d2:	68 df       	rcall	.-304    	; 0x2a4 <xputs>
	rjmp	42b
     3d4:	f1 cf       	rjmp	.-30     	; 0x3b8 <xvprintf+0x90>

000003d6 <xprintf>:


.func xprintf
.global xprintf
xprintf:
	push	YH
     3d6:	df 93       	push	r29
	push	YL
     3d8:	cf 93       	push	r28
	in	YL, _SFR_IO_ADDR(SPL)
     3da:	cd b7       	in	r28, 0x3d	; 61
#ifdef SPH
	in	YH, _SFR_IO_ADDR(SPH)
     3dc:	de b7       	in	r29, 0x3e	; 62
#else
	clr	YH
#endif
	adiw	YL, 5		;Y = pointer to arguments
     3de:	25 96       	adiw	r28, 0x05	; 5
	rcall	xvprintf
     3e0:	a3 df       	rcall	.-186    	; 0x328 <xvprintf>
	pop	YL
     3e2:	cf 91       	pop	r28
	pop	YH
     3e4:	df 91       	pop	r29
	ret
     3e6:	08 95       	ret

000003e8 <putram>:

#if USE_XSPRINTF

.func xsprintf
putram:
	_MOVW	ZH,ZL, r15,r14
     3e8:	f7 01       	movw	r30, r14
	st	Z+, r24
     3ea:	81 93       	st	Z+, r24
	_MOVW	r15,r14, ZH,ZL
     3ec:	7f 01       	movw	r14, r30
	ret
     3ee:	08 95       	ret

000003f0 <xsprintf>:
.global xsprintf
xsprintf:
	push	YH
     3f0:	df 93       	push	r29
	push	YL
     3f2:	cf 93       	push	r28
	in	YL, _SFR_IO_ADDR(SPL)
     3f4:	cd b7       	in	r28, 0x3d	; 61
#ifdef SPH
	in	YH, _SFR_IO_ADDR(SPH)
     3f6:	de b7       	in	r29, 0x3e	; 62
#else
	clr	YH
#endif
	adiw	YL, 5		;Y = pointer to arguments
     3f8:	25 96       	adiw	r28, 0x05	; 5
	lds	ZL, xfunc_out+0	;Save registered output function
     3fa:	e0 91 f4 01 	lds	r30, 0x01F4	; 0x8001f4 <__data_end>
	lds	ZH, xfunc_out+1	;
     3fe:	f0 91 f5 01 	lds	r31, 0x01F5	; 0x8001f5 <__data_end+0x1>
	push	ZL		;
     402:	ef 93       	push	r30
	push	ZH		;/
     404:	ff 93       	push	r31
	ldi	ZL, lo8(pm(putram));Set local output function
     406:	e4 ef       	ldi	r30, 0xF4	; 244
	ldi	ZH, hi8(pm(putram));
     408:	f1 e0       	ldi	r31, 0x01	; 1
	sts	xfunc_out+0, ZL	;
     40a:	e0 93 f4 01 	sts	0x01F4, r30	; 0x8001f4 <__data_end>
	sts	xfunc_out+1, ZH	;/
     40e:	f0 93 f5 01 	sts	0x01F5, r31	; 0x8001f5 <__data_end+0x1>
	push	r15		;Initialize pointer to string buffer
     412:	ff 92       	push	r15
	push	r14		;
     414:	ef 92       	push	r14
	ld	r14, Y+		;
     416:	e9 90       	ld	r14, Y+
	ld	r15, Y+		;/
     418:	f9 90       	ld	r15, Y+
	rcall	xvprintf
     41a:	86 df       	rcall	.-244    	; 0x328 <xvprintf>
	_MOVW	ZH,ZL, r15,r14	;Terminate string
     41c:	f7 01       	movw	r30, r14
	st	Z, r1		;
     41e:	10 82       	st	Z, r1
	pop	r14		;
     420:	ef 90       	pop	r14
	pop	r15		;/
     422:	ff 90       	pop	r15
	pop	ZH		;Restore registered output function
     424:	ff 91       	pop	r31
	pop	ZL		;
     426:	ef 91       	pop	r30
	sts	xfunc_out+0, ZL	;
     428:	e0 93 f4 01 	sts	0x01F4, r30	; 0x8001f4 <__data_end>
	sts	xfunc_out+1, ZH	;/
     42c:	f0 93 f5 01 	sts	0x01F5, r31	; 0x8001f5 <__data_end+0x1>
	pop	YL
     430:	cf 91       	pop	r28
	pop	YH
     432:	df 91       	pop	r29
	ret
     434:	08 95       	ret

00000436 <xatoi>:

#if USE_XATOI
.func xatoi
.global xatoi
xatoi:
	_MOVW	r1, r0, r23, r22
     436:	0b 01       	movw	r0, r22
	_MOVW	XH, XL, r25, r24
     438:	dc 01       	movw	r26, r24
	ld	ZL, X+
     43a:	ed 91       	ld	r30, X+
	ld	ZH, X+
     43c:	fd 91       	ld	r31, X+
	clr	r18		;r21:r18 = 0;
     43e:	22 27       	eor	r18, r18
	clr	r19		;
     440:	33 27       	eor	r19, r19
	clr	r20		;
     442:	44 27       	eor	r20, r20
	clr	r21		;/
     444:	55 27       	eor	r21, r21
	clt			;T = 0;
     446:	e8 94       	clt

	ldi	r25, 10		;r25 = 10;
     448:	9a e0       	ldi	r25, 0x0A	; 10
	rjmp	41f		;/
     44a:	01 c0       	rjmp	.+2      	; 0x44e <xatoi+0x18>
40:	adiw	ZL, 1		;Z++;
     44c:	31 96       	adiw	r30, 0x01	; 1
41:	ld	r22, Z		;r22 = *Z;
     44e:	60 81       	ld	r22, Z
	cpi	r22, ' '	;if(r22 == ' ') continue
     450:	60 32       	cpi	r22, 0x20	; 32
	breq	40b		;/
     452:	e1 f3       	breq	.-8      	; 0x44c <xatoi+0x16>
	brcs	70f		;if(r22 < ' ') error;
     454:	a8 f1       	brcs	.+106    	; 0x4c0 <xatoi+0x8a>
	cpi	r22, '-'	;if(r22 == '-') {
     456:	6d 32       	cpi	r22, 0x2D	; 45
	brne	42f		; T = 1;
     458:	11 f4       	brne	.+4      	; 0x45e <xatoi+0x28>
	set			; continue;
     45a:	68 94       	set
	rjmp	40b		;}
     45c:	f7 cf       	rjmp	.-18     	; 0x44c <xatoi+0x16>
42:	cpi	r22, '9'+1	;if(r22 > '9') error;
     45e:	6a 33       	cpi	r22, 0x3A	; 58
	brcc	70f		;/
     460:	78 f5       	brcc	.+94     	; 0x4c0 <xatoi+0x8a>
	cpi	r22, '0'	;if(r22 < '0') error;
     462:	60 33       	cpi	r22, 0x30	; 48
	brcs	70f		;/
     464:	68 f1       	brcs	.+90     	; 0x4c0 <xatoi+0x8a>
	brne	51f		;if(r22 > '0') cv_start;
     466:	71 f4       	brne	.+28     	; 0x484 <xatoi+0x4e>
	ldi	r25, 8		;r25 = 8;
     468:	98 e0       	ldi	r25, 0x08	; 8
	adiw	ZL, 1		;r22 = *(++Z);
     46a:	31 96       	adiw	r30, 0x01	; 1
	ld	r22, Z		;/
     46c:	60 81       	ld	r22, Z
	cpi	r22, ' '+1	;if(r22 <= ' ') exit;
     46e:	61 32       	cpi	r22, 0x21	; 33
	brcs	80f		;/
     470:	48 f1       	brcs	.+82     	; 0x4c4 <xatoi+0x8e>
	cpi	r22, 'b'	;if(r22 == 'b') {
     472:	62 36       	cpi	r22, 0x62	; 98
	brne	43f		; r25 = 2;
     474:	11 f4       	brne	.+4      	; 0x47a <xatoi+0x44>
	ldi	r25, 2		; cv_start;
     476:	92 e0       	ldi	r25, 0x02	; 2
	rjmp	50f		;}
     478:	03 c0       	rjmp	.+6      	; 0x480 <xatoi+0x4a>
43:	cpi	r22, 'x'	;if(r22 != 'x') error;
     47a:	68 37       	cpi	r22, 0x78	; 120
	brne	51f		;/
     47c:	19 f4       	brne	.+6      	; 0x484 <xatoi+0x4e>
	ldi	r25, 16		;r25 = 16;
     47e:	90 e1       	ldi	r25, 0x10	; 16

50:	adiw	ZL, 1		;Z++;
     480:	31 96       	adiw	r30, 0x01	; 1
	ld	r22, Z		;r22 = *Z;
     482:	60 81       	ld	r22, Z
51:	cpi	r22, ' '+1	;if(r22 <= ' ') break;
     484:	61 32       	cpi	r22, 0x21	; 33
	brcs	80f		;/
     486:	f0 f0       	brcs	.+60     	; 0x4c4 <xatoi+0x8e>
	cpi	r22, 'a'	;if(r22 >= 'a') r22 =- 0x20;
     488:	61 36       	cpi	r22, 0x61	; 97
	brcs	52f		;
     48a:	08 f0       	brcs	.+2      	; 0x48e <xatoi+0x58>
	subi	r22, 0x20	;/
     48c:	60 52       	subi	r22, 0x20	; 32
52:	subi	r22, '0'	;if((r22 -= '0') < 0) error;
     48e:	60 53       	subi	r22, 0x30	; 48
	brcs	70f		;/
     490:	b8 f0       	brcs	.+46     	; 0x4c0 <xatoi+0x8a>
	cpi	r22, 10		;if(r22 >= 10) {
     492:	6a 30       	cpi	r22, 0x0A	; 10
	brcs	53f		; r22 -= 7;
     494:	18 f0       	brcs	.+6      	; 0x49c <xatoi+0x66>
	subi	r22, 7		; if(r22 < 10) 
     496:	67 50       	subi	r22, 0x07	; 7
	cpi	r22, 10		;
     498:	6a 30       	cpi	r22, 0x0A	; 10
	brcs	70f		;}
     49a:	90 f0       	brcs	.+36     	; 0x4c0 <xatoi+0x8a>
53:	cp	r22, r25	;if(r22 >= r25) error;
     49c:	69 17       	cp	r22, r25
	brcc	70f		;/
     49e:	80 f4       	brcc	.+32     	; 0x4c0 <xatoi+0x8a>
60:	ldi	r24, 33		;r21:r18 *= r25;
     4a0:	81 e2       	ldi	r24, 0x21	; 33
	sub	r23, r23	;
     4a2:	77 1b       	sub	r23, r23
61:	brcc	62f		;
     4a4:	08 f4       	brcc	.+2      	; 0x4a8 <xatoi+0x72>
	add	r23, r25	;
     4a6:	79 0f       	add	r23, r25
62:	lsr	r23		;
     4a8:	76 95       	lsr	r23
	ror	r21		;
     4aa:	57 95       	ror	r21
	ror	r20		;
     4ac:	47 95       	ror	r20
	ror	r19		;
     4ae:	37 95       	ror	r19
	ror	r18		;
     4b0:	27 95       	ror	r18
	dec	r24		;
     4b2:	8a 95       	dec	r24
	brne	61b		;/
     4b4:	b9 f7       	brne	.-18     	; 0x4a4 <xatoi+0x6e>
	add	r18, r22	;r21:r18 += r22;
     4b6:	26 0f       	add	r18, r22
	adc	r19, r24	;
     4b8:	38 1f       	adc	r19, r24
	adc	r20, r24	;
     4ba:	48 1f       	adc	r20, r24
	adc	r21, r24	;/
     4bc:	58 1f       	adc	r21, r24
	rjmp	50b		;repeat
     4be:	e0 cf       	rjmp	.-64     	; 0x480 <xatoi+0x4a>

70:	ldi	r24, 0
     4c0:	80 e0       	ldi	r24, 0x00	; 0
	rjmp	81f
     4c2:	01 c0       	rjmp	.+2      	; 0x4c6 <xatoi+0x90>
80:	ldi	r24, 1
     4c4:	81 e0       	ldi	r24, 0x01	; 1
81:	brtc	82f
     4c6:	4e f4       	brtc	.+18     	; 0x4da <xatoi+0xa4>
	clr	r22
     4c8:	66 27       	eor	r22, r22
	com	r18
     4ca:	20 95       	com	r18
	com	r19
     4cc:	30 95       	com	r19
	com	r20
     4ce:	40 95       	com	r20
	com	r21
     4d0:	50 95       	com	r21
	adc	r18, r22
     4d2:	26 1f       	adc	r18, r22
	adc	r19, r22
     4d4:	36 1f       	adc	r19, r22
	adc	r20, r22
     4d6:	46 1f       	adc	r20, r22
	adc	r21, r22
     4d8:	56 1f       	adc	r21, r22
82:	st	-X, ZH
     4da:	fe 93       	st	-X, r31
	st	-X, ZL
     4dc:	ee 93       	st	-X, r30
	_MOVW	XH, XL, r1, r0
     4de:	d0 01       	movw	r26, r0
	st	X+, r18
     4e0:	2d 93       	st	X+, r18
	st	X+, r19
     4e2:	3d 93       	st	X+, r19
	st	X+, r20
     4e4:	4d 93       	st	X+, r20
	st	X+, r21
     4e6:	5d 93       	st	X+, r21
	clr	r1
     4e8:	11 24       	eor	r1, r1
	ret
     4ea:	08 95       	ret

000004ec <keys_init>:
} key_pin;
key_pin key_pin_map[NUM_KEYS] = KEY_PIN_MAP;

void keys_init()
{
	for (int i = 0; i < NUM_KEYS; i++)
     4ec:	80 e0       	ldi	r24, 0x00	; 0
     4ee:	90 e0       	ldi	r25, 0x00	; 0
     4f0:	69 c0       	rjmp	.+210    	; 0x5c4 <keys_init+0xd8>
	{
		switch(key_pin_map[i].port_id)
     4f2:	fc 01       	movw	r30, r24
     4f4:	ee 0f       	add	r30, r30
     4f6:	ff 1f       	adc	r31, r31
     4f8:	e0 50       	subi	r30, 0x00	; 0
     4fa:	ff 4f       	sbci	r31, 0xFF	; 255
     4fc:	20 81       	ld	r18, Z
     4fe:	22 30       	cpi	r18, 0x02	; 2
     500:	11 f1       	breq	.+68     	; 0x546 <keys_init+0x5a>
     502:	23 30       	cpi	r18, 0x03	; 3
     504:	e9 f1       	breq	.+122    	; 0x580 <keys_init+0x94>
     506:	21 30       	cpi	r18, 0x01	; 1
     508:	09 f0       	breq	.+2      	; 0x50c <keys_init+0x20>
     50a:	56 c0       	rjmp	.+172    	; 0x5b8 <keys_init+0xcc>
		{
			case PORT_ID_PORTB:
			DDRB &= ~_BV(key_pin_map[i].port_bit_num);
     50c:	54 b1       	in	r21, 0x04	; 4
     50e:	fc 01       	movw	r30, r24
     510:	ee 0f       	add	r30, r30
     512:	ff 1f       	adc	r31, r31
     514:	e0 50       	subi	r30, 0x00	; 0
     516:	ff 4f       	sbci	r31, 0xFF	; 255
     518:	21 e0       	ldi	r18, 0x01	; 1
     51a:	30 e0       	ldi	r19, 0x00	; 0
     51c:	b9 01       	movw	r22, r18
     51e:	01 80       	ldd	r0, Z+1	; 0x01
     520:	02 c0       	rjmp	.+4      	; 0x526 <keys_init+0x3a>
     522:	66 0f       	add	r22, r22
     524:	77 1f       	adc	r23, r23
     526:	0a 94       	dec	r0
     528:	e2 f7       	brpl	.-8      	; 0x522 <keys_init+0x36>
     52a:	46 2f       	mov	r20, r22
     52c:	40 95       	com	r20
     52e:	45 23       	and	r20, r21
     530:	44 b9       	out	0x04, r20	; 4
			PORTB |= _BV(key_pin_map[i].port_bit_num);
     532:	45 b1       	in	r20, 0x05	; 5
     534:	01 80       	ldd	r0, Z+1	; 0x01
     536:	02 c0       	rjmp	.+4      	; 0x53c <keys_init+0x50>
     538:	22 0f       	add	r18, r18
     53a:	33 1f       	adc	r19, r19
     53c:	0a 94       	dec	r0
     53e:	e2 f7       	brpl	.-8      	; 0x538 <keys_init+0x4c>
     540:	24 2b       	or	r18, r20
     542:	25 b9       	out	0x05, r18	; 5
			break;
     544:	39 c0       	rjmp	.+114    	; 0x5b8 <keys_init+0xcc>
			case PORT_ID_PORTC:
			DDRC &= ~_BV(key_pin_map[i].port_bit_num);
     546:	57 b1       	in	r21, 0x07	; 7
     548:	fc 01       	movw	r30, r24
     54a:	ee 0f       	add	r30, r30
     54c:	ff 1f       	adc	r31, r31
     54e:	e0 50       	subi	r30, 0x00	; 0
     550:	ff 4f       	sbci	r31, 0xFF	; 255
     552:	21 e0       	ldi	r18, 0x01	; 1
     554:	30 e0       	ldi	r19, 0x00	; 0
     556:	b9 01       	movw	r22, r18
     558:	01 80       	ldd	r0, Z+1	; 0x01
     55a:	02 c0       	rjmp	.+4      	; 0x560 <keys_init+0x74>
     55c:	66 0f       	add	r22, r22
     55e:	77 1f       	adc	r23, r23
     560:	0a 94       	dec	r0
     562:	e2 f7       	brpl	.-8      	; 0x55c <keys_init+0x70>
     564:	46 2f       	mov	r20, r22
     566:	40 95       	com	r20
     568:	45 23       	and	r20, r21
     56a:	47 b9       	out	0x07, r20	; 7
			PORTC |= _BV(key_pin_map[i].port_bit_num);
     56c:	48 b1       	in	r20, 0x08	; 8
     56e:	01 80       	ldd	r0, Z+1	; 0x01
     570:	02 c0       	rjmp	.+4      	; 0x576 <keys_init+0x8a>
     572:	22 0f       	add	r18, r18
     574:	33 1f       	adc	r19, r19
     576:	0a 94       	dec	r0
     578:	e2 f7       	brpl	.-8      	; 0x572 <keys_init+0x86>
     57a:	24 2b       	or	r18, r20
     57c:	28 b9       	out	0x08, r18	; 8
			break;
     57e:	1c c0       	rjmp	.+56     	; 0x5b8 <keys_init+0xcc>
			case PORT_ID_PORTD:
			DDRD &= ~_BV(key_pin_map[i].port_bit_num);
     580:	5a b1       	in	r21, 0x0a	; 10
     582:	fc 01       	movw	r30, r24
     584:	ee 0f       	add	r30, r30
     586:	ff 1f       	adc	r31, r31
     588:	e0 50       	subi	r30, 0x00	; 0
     58a:	ff 4f       	sbci	r31, 0xFF	; 255
     58c:	21 e0       	ldi	r18, 0x01	; 1
     58e:	30 e0       	ldi	r19, 0x00	; 0
     590:	b9 01       	movw	r22, r18
     592:	01 80       	ldd	r0, Z+1	; 0x01
     594:	02 c0       	rjmp	.+4      	; 0x59a <keys_init+0xae>
     596:	66 0f       	add	r22, r22
     598:	77 1f       	adc	r23, r23
     59a:	0a 94       	dec	r0
     59c:	e2 f7       	brpl	.-8      	; 0x596 <keys_init+0xaa>
     59e:	46 2f       	mov	r20, r22
     5a0:	40 95       	com	r20
     5a2:	45 23       	and	r20, r21
     5a4:	4a b9       	out	0x0a, r20	; 10
			PORTD |= _BV(key_pin_map[i].port_bit_num);
     5a6:	4b b1       	in	r20, 0x0b	; 11
     5a8:	01 80       	ldd	r0, Z+1	; 0x01
     5aa:	02 c0       	rjmp	.+4      	; 0x5b0 <keys_init+0xc4>
     5ac:	22 0f       	add	r18, r18
     5ae:	33 1f       	adc	r19, r19
     5b0:	0a 94       	dec	r0
     5b2:	e2 f7       	brpl	.-8      	; 0x5ac <keys_init+0xc0>
     5b4:	24 2b       	or	r18, r20
     5b6:	2b b9       	out	0x0b, r18	; 11
			break;
		}
		debounce_counter[i] = DEBOUNCE_COUNTER_MAX + 1U;
     5b8:	fc 01       	movw	r30, r24
     5ba:	e9 50       	subi	r30, 0x09	; 9
     5bc:	fe 4f       	sbci	r31, 0xFE	; 254
     5be:	23 e0       	ldi	r18, 0x03	; 3
     5c0:	20 83       	st	Z, r18
} key_pin;
key_pin key_pin_map[NUM_KEYS] = KEY_PIN_MAP;

void keys_init()
{
	for (int i = 0; i < NUM_KEYS; i++)
     5c2:	01 96       	adiw	r24, 0x01	; 1
     5c4:	83 30       	cpi	r24, 0x03	; 3
     5c6:	91 05       	cpc	r25, r1
     5c8:	0c f4       	brge	.+2      	; 0x5cc <keys_init+0xe0>
     5ca:	93 cf       	rjmp	.-218    	; 0x4f2 <keys_init+0x6>
			break;
		}
		debounce_counter[i] = DEBOUNCE_COUNTER_MAX + 1U;

	}
}
     5cc:	08 95       	ret

000005ce <handle_keys>:

void handle_keys()
{
	for (int i = 0; i <NUM_KEYS; i++)
     5ce:	80 e0       	ldi	r24, 0x00	; 0
     5d0:	90 e0       	ldi	r25, 0x00	; 0
     5d2:	a4 c0       	rjmp	.+328    	; 0x71c <handle_keys+0x14e>
	{
		uint8_t new_key_val;
		switch(key_pin_map[i].port_id)
     5d4:	fc 01       	movw	r30, r24
     5d6:	ee 0f       	add	r30, r30
     5d8:	ff 1f       	adc	r31, r31
     5da:	e0 50       	subi	r30, 0x00	; 0
     5dc:	ff 4f       	sbci	r31, 0xFF	; 255
     5de:	20 81       	ld	r18, Z
     5e0:	21 30       	cpi	r18, 0x01	; 1
     5e2:	19 f0       	breq	.+6      	; 0x5ea <handle_keys+0x1c>
     5e4:	22 30       	cpi	r18, 0x02	; 2
     5e6:	19 f0       	breq	.+6      	; 0x5ee <handle_keys+0x20>
     5e8:	04 c0       	rjmp	.+8      	; 0x5f2 <handle_keys+0x24>
		{
			case PORT_ID_PORTB:
			new_key_val=PINB;
     5ea:	23 b1       	in	r18, 0x03	; 3
			break;
     5ec:	03 c0       	rjmp	.+6      	; 0x5f4 <handle_keys+0x26>
			case PORT_ID_PORTC:
			new_key_val=PINC;
     5ee:	26 b1       	in	r18, 0x06	; 6
			break;
     5f0:	01 c0       	rjmp	.+2      	; 0x5f4 <handle_keys+0x26>
			default:
			case PORT_ID_PORTD:
			new_key_val=PIND;
     5f2:	29 b1       	in	r18, 0x09	; 9
			break;
		}
		new_key_val = ~new_key_val; // bit set means keys pressed
     5f4:	20 95       	com	r18
		new_key_val &= _BV(key_pin_map[i].port_bit_num);
     5f6:	fc 01       	movw	r30, r24
     5f8:	ee 0f       	add	r30, r30
     5fa:	ff 1f       	adc	r31, r31
     5fc:	e0 50       	subi	r30, 0x00	; 0
     5fe:	ff 4f       	sbci	r31, 0xFF	; 255
     600:	41 e0       	ldi	r20, 0x01	; 1
     602:	50 e0       	ldi	r21, 0x00	; 0
     604:	01 80       	ldd	r0, Z+1	; 0x01
     606:	02 c0       	rjmp	.+4      	; 0x60c <handle_keys+0x3e>
     608:	44 0f       	add	r20, r20
     60a:	55 1f       	adc	r21, r21
     60c:	0a 94       	dec	r0
     60e:	e2 f7       	brpl	.-8      	; 0x608 <handle_keys+0x3a>
     610:	42 23       	and	r20, r18
		if (keys_debounce_last_state_bitmap & _BV(i))
     612:	20 91 f6 01 	lds	r18, 0x01F6	; 0x8001f6 <keys_debounce_last_state_bitmap>
     616:	30 e0       	ldi	r19, 0x00	; 0
     618:	08 2e       	mov	r0, r24
     61a:	02 c0       	rjmp	.+4      	; 0x620 <handle_keys+0x52>
     61c:	35 95       	asr	r19
     61e:	27 95       	ror	r18
     620:	0a 94       	dec	r0
     622:	e2 f7       	brpl	.-8      	; 0x61c <handle_keys+0x4e>
     624:	20 ff       	sbrs	r18, 0
     626:	22 c0       	rjmp	.+68     	; 0x66c <handle_keys+0x9e>
		{
			//key was pressed before
			if (new_key_val)
     628:	44 23       	and	r20, r20
     62a:	69 f0       	breq	.+26     	; 0x646 <handle_keys+0x78>
			{
				//key still pressed
				if (debounce_counter[i] < DEBOUNCE_COUNTER_MAX)
     62c:	fc 01       	movw	r30, r24
     62e:	e9 50       	subi	r30, 0x09	; 9
     630:	fe 4f       	sbci	r31, 0xFE	; 254
     632:	20 81       	ld	r18, Z
     634:	22 30       	cpi	r18, 0x02	; 2
     636:	d0 f5       	brcc	.+116    	; 0x6ac <handle_keys+0xde>
				{
					debounce_counter[i]++;
     638:	fc 01       	movw	r30, r24
     63a:	e9 50       	subi	r30, 0x09	; 9
     63c:	fe 4f       	sbci	r31, 0xFE	; 254
     63e:	20 81       	ld	r18, Z
     640:	2f 5f       	subi	r18, 0xFF	; 255
     642:	20 83       	st	Z, r18
     644:	33 c0       	rjmp	.+102    	; 0x6ac <handle_keys+0xde>
				}
			}
			else
			{
				//key now released
				debounce_counter[i]=0;
     646:	fc 01       	movw	r30, r24
     648:	e9 50       	subi	r30, 0x09	; 9
     64a:	fe 4f       	sbci	r31, 0xFE	; 254
     64c:	10 82       	st	Z, r1
				keys_debounce_last_state_bitmap &= ~_BV(i);
     64e:	21 e0       	ldi	r18, 0x01	; 1
     650:	30 e0       	ldi	r19, 0x00	; 0
     652:	08 2e       	mov	r0, r24
     654:	02 c0       	rjmp	.+4      	; 0x65a <handle_keys+0x8c>
     656:	22 0f       	add	r18, r18
     658:	33 1f       	adc	r19, r19
     65a:	0a 94       	dec	r0
     65c:	e2 f7       	brpl	.-8      	; 0x656 <handle_keys+0x88>
     65e:	30 91 f6 01 	lds	r19, 0x01F6	; 0x8001f6 <keys_debounce_last_state_bitmap>
     662:	20 95       	com	r18
     664:	23 23       	and	r18, r19
     666:	20 93 f6 01 	sts	0x01F6, r18	; 0x8001f6 <keys_debounce_last_state_bitmap>
     66a:	20 c0       	rjmp	.+64     	; 0x6ac <handle_keys+0xde>
			}
		}
		else
		{
			//key was released before
			if (new_key_val)
     66c:	44 23       	and	r20, r20
     66e:	91 f0       	breq	.+36     	; 0x694 <handle_keys+0xc6>
			{
				//key now pressed
				debounce_counter[i] = 0;
     670:	fc 01       	movw	r30, r24
     672:	e9 50       	subi	r30, 0x09	; 9
     674:	fe 4f       	sbci	r31, 0xFE	; 254
     676:	10 82       	st	Z, r1
				keys_debounce_last_state_bitmap |= _BV(i);
     678:	21 e0       	ldi	r18, 0x01	; 1
     67a:	30 e0       	ldi	r19, 0x00	; 0
     67c:	08 2e       	mov	r0, r24
     67e:	02 c0       	rjmp	.+4      	; 0x684 <handle_keys+0xb6>
     680:	22 0f       	add	r18, r18
     682:	33 1f       	adc	r19, r19
     684:	0a 94       	dec	r0
     686:	e2 f7       	brpl	.-8      	; 0x680 <handle_keys+0xb2>
     688:	30 91 f6 01 	lds	r19, 0x01F6	; 0x8001f6 <keys_debounce_last_state_bitmap>
     68c:	23 2b       	or	r18, r19
     68e:	20 93 f6 01 	sts	0x01F6, r18	; 0x8001f6 <keys_debounce_last_state_bitmap>
     692:	0c c0       	rjmp	.+24     	; 0x6ac <handle_keys+0xde>
			}
			else
			{
				//key still pressed
				if (debounce_counter[i] < DEBOUNCE_COUNTER_MAX)
     694:	fc 01       	movw	r30, r24
     696:	e9 50       	subi	r30, 0x09	; 9
     698:	fe 4f       	sbci	r31, 0xFE	; 254
     69a:	20 81       	ld	r18, Z
     69c:	22 30       	cpi	r18, 0x02	; 2
     69e:	30 f4       	brcc	.+12     	; 0x6ac <handle_keys+0xde>
				{
					debounce_counter[i]++;
     6a0:	fc 01       	movw	r30, r24
     6a2:	e9 50       	subi	r30, 0x09	; 9
     6a4:	fe 4f       	sbci	r31, 0xFE	; 254
     6a6:	20 81       	ld	r18, Z
     6a8:	2f 5f       	subi	r18, 0xFF	; 255
     6aa:	20 83       	st	Z, r18
				}
			}
		}
		if (debounce_counter[i] == DEBOUNCE_COUNTER_MAX)
     6ac:	fc 01       	movw	r30, r24
     6ae:	e9 50       	subi	r30, 0x09	; 9
     6b0:	fe 4f       	sbci	r31, 0xFE	; 254
     6b2:	20 81       	ld	r18, Z
     6b4:	22 30       	cpi	r18, 0x02	; 2
     6b6:	89 f5       	brne	.+98     	; 0x71a <handle_keys+0x14c>
		{
			debounce_counter[i]++; //increase debounce_counter one last time so we dont go into this "if" again
     6b8:	fc 01       	movw	r30, r24
     6ba:	e9 50       	subi	r30, 0x09	; 9
     6bc:	fe 4f       	sbci	r31, 0xFE	; 254
     6be:	20 81       	ld	r18, Z
     6c0:	2f 5f       	subi	r18, 0xFF	; 255
     6c2:	20 83       	st	Z, r18
			if (new_key_val)
     6c4:	44 23       	and	r20, r20
     6c6:	71 f0       	breq	.+28     	; 0x6e4 <handle_keys+0x116>
			{
				keys_bitmap |= _BV(i);
     6c8:	21 e0       	ldi	r18, 0x01	; 1
     6ca:	30 e0       	ldi	r19, 0x00	; 0
     6cc:	08 2e       	mov	r0, r24
     6ce:	02 c0       	rjmp	.+4      	; 0x6d4 <handle_keys+0x106>
     6d0:	22 0f       	add	r18, r18
     6d2:	33 1f       	adc	r19, r19
     6d4:	0a 94       	dec	r0
     6d6:	e2 f7       	brpl	.-8      	; 0x6d0 <handle_keys+0x102>
     6d8:	30 91 16 02 	lds	r19, 0x0216	; 0x800216 <keys_bitmap>
     6dc:	23 2b       	or	r18, r19
     6de:	20 93 16 02 	sts	0x0216, r18	; 0x800216 <keys_bitmap>
     6e2:	0e c0       	rjmp	.+28     	; 0x700 <handle_keys+0x132>
			}
			else
			{
				keys_bitmap &= ~_BV(i);
     6e4:	21 e0       	ldi	r18, 0x01	; 1
     6e6:	30 e0       	ldi	r19, 0x00	; 0
     6e8:	08 2e       	mov	r0, r24
     6ea:	02 c0       	rjmp	.+4      	; 0x6f0 <handle_keys+0x122>
     6ec:	22 0f       	add	r18, r18
     6ee:	33 1f       	adc	r19, r19
     6f0:	0a 94       	dec	r0
     6f2:	e2 f7       	brpl	.-8      	; 0x6ec <handle_keys+0x11e>
     6f4:	30 91 16 02 	lds	r19, 0x0216	; 0x800216 <keys_bitmap>
     6f8:	20 95       	com	r18
     6fa:	23 23       	and	r18, r19
     6fc:	20 93 16 02 	sts	0x0216, r18	; 0x800216 <keys_bitmap>
			}
			keys_changed_bitmap |= _BV(i);
     700:	21 e0       	ldi	r18, 0x01	; 1
     702:	30 e0       	ldi	r19, 0x00	; 0
     704:	08 2e       	mov	r0, r24
     706:	02 c0       	rjmp	.+4      	; 0x70c <handle_keys+0x13e>
     708:	22 0f       	add	r18, r18
     70a:	33 1f       	adc	r19, r19
     70c:	0a 94       	dec	r0
     70e:	e2 f7       	brpl	.-8      	; 0x708 <handle_keys+0x13a>
     710:	30 91 14 02 	lds	r19, 0x0214	; 0x800214 <keys_changed_bitmap>
     714:	23 2b       	or	r18, r19
     716:	20 93 14 02 	sts	0x0214, r18	; 0x800214 <keys_changed_bitmap>
	}
}

void handle_keys()
{
	for (int i = 0; i <NUM_KEYS; i++)
     71a:	01 96       	adiw	r24, 0x01	; 1
     71c:	83 30       	cpi	r24, 0x03	; 3
     71e:	91 05       	cpc	r25, r1
     720:	0c f4       	brge	.+2      	; 0x724 <handle_keys+0x156>
     722:	58 cf       	rjmp	.-336    	; 0x5d4 <handle_keys+0x6>
				keys_bitmap &= ~_BV(i);
			}
			keys_changed_bitmap |= _BV(i);
		}
	}
}
     724:	08 95       	ret

00000726 <display_fresult>:
		return false;
	}
}

void display_fresult (FRESULT rc)
{
     726:	0f 93       	push	r16
     728:	1f 93       	push	r17
     72a:	cf 93       	push	r28
     72c:	df 93       	push	r29
     72e:	8c 01       	movw	r16, r24
	fr = rc;
     730:	90 93 b8 04 	sts	0x04B8, r25	; 0x8004b8 <fr+0x1>
     734:	80 93 b7 04 	sts	0x04B7, r24	; 0x8004b7 <fr>
	"DENIED\0EXIST\0INVALID_OBJECT\0WRITE_PROTECTED\0INVALID_DRIVE\0"
	"NOT_ENABLED\0NO_FILE_SYSTEM\0MKFS_ABORTED\0TIMEOUT\0LOCKED\0"
	"NOT_ENOUGH_CORE\0TOO_MANY_OPEN_FILES\0";
	FRESULT i;

	for (p = str, i = 0; i != rc && pgm_read_byte_near(p); i++) {
     738:	40 e0       	ldi	r20, 0x00	; 0
     73a:	50 e0       	ldi	r21, 0x00	; 0
     73c:	cb e2       	ldi	r28, 0x2B	; 43
     73e:	d1 e0       	ldi	r29, 0x01	; 1
     740:	09 c0       	rjmp	.+18     	; 0x754 <display_fresult+0x2e>
		while(pgm_read_byte_near(p++));
     742:	ce 01       	movw	r24, r28
     744:	01 96       	adiw	r24, 0x01	; 1
     746:	fe 01       	movw	r30, r28
     748:	24 91       	lpm	r18, Z
     74a:	ec 01       	movw	r28, r24
     74c:	21 11       	cpse	r18, r1
     74e:	f9 cf       	rjmp	.-14     	; 0x742 <display_fresult+0x1c>
	"DENIED\0EXIST\0INVALID_OBJECT\0WRITE_PROTECTED\0INVALID_DRIVE\0"
	"NOT_ENABLED\0NO_FILE_SYSTEM\0MKFS_ABORTED\0TIMEOUT\0LOCKED\0"
	"NOT_ENOUGH_CORE\0TOO_MANY_OPEN_FILES\0";
	FRESULT i;

	for (p = str, i = 0; i != rc && pgm_read_byte_near(p); i++) {
     750:	4f 5f       	subi	r20, 0xFF	; 255
     752:	5f 4f       	sbci	r21, 0xFF	; 255
     754:	40 17       	cp	r20, r16
     756:	51 07       	cpc	r21, r17
     758:	21 f0       	breq	.+8      	; 0x762 <display_fresult+0x3c>
     75a:	fe 01       	movw	r30, r28
     75c:	84 91       	lpm	r24, Z
     75e:	81 11       	cpse	r24, r1
     760:	f0 cf       	rjmp	.-32     	; 0x742 <display_fresult+0x1c>
		while(pgm_read_byte_near(p++));
	}
	lcd_clrscr();
     762:	0e 94 3d 2c 	call	0x587a	; 0x587a <lcd_clrscr>
	xprintf(PSTR("rc=%u"), rc);
     766:	1f 93       	push	r17
     768:	0f 93       	push	r16
     76a:	85 e2       	ldi	r24, 0x25	; 37
     76c:	91 e0       	ldi	r25, 0x01	; 1
     76e:	9f 93       	push	r25
     770:	8f 93       	push	r24
     772:	31 de       	rcall	.-926    	; 0x3d6 <xprintf>
	lcd_gotoxy(0,1);
     774:	61 e0       	ldi	r22, 0x01	; 1
     776:	80 e0       	ldi	r24, 0x00	; 0
     778:	0e 94 35 2c 	call	0x586a	; 0x586a <lcd_gotoxy>
	xprintf(PSTR("FR_%S"), p);
     77c:	df 93       	push	r29
     77e:	cf 93       	push	r28
     780:	8f e1       	ldi	r24, 0x1F	; 31
     782:	91 e0       	ldi	r25, 0x01	; 1
     784:	9f 93       	push	r25
     786:	8f 93       	push	r24
     788:	26 de       	rcall	.-948    	; 0x3d6 <xprintf>
}
     78a:	ed b7       	in	r30, 0x3d	; 61
     78c:	fe b7       	in	r31, 0x3e	; 62
     78e:	38 96       	adiw	r30, 0x08	; 8
     790:	0f b6       	in	r0, 0x3f	; 63
     792:	f8 94       	cli
     794:	fe bf       	out	0x3e, r31	; 62
     796:	0f be       	out	0x3f, r0	; 63
     798:	ed bf       	out	0x3d, r30	; 61
     79a:	df 91       	pop	r29
     79c:	cf 91       	pop	r28
     79e:	1f 91       	pop	r17
     7a0:	0f 91       	pop	r16
     7a2:	08 95       	ret

000007a4 <disp_fr_err>:

char dir_name[DIR_NAME_SIZE]; // 8 char name, 1 char dot, 3 char ext, \0 byte
int16_t dir_idx = 0;

bool disp_fr_err(FRESULT r) {
	if (r != FR_OK) {
     7a4:	00 97       	sbiw	r24, 0x00	; 0
		display_fresult(r);
     7a6:	61 f0       	breq	.+24     	; 0x7c0 <disp_fr_err+0x1c>
	#else
		//round up by default
		__ticks_dc = (uint32_t)(ceil(fabs(__tmp)));
	#endif

	__builtin_avr_delay_cycles(__ticks_dc);
     7a8:	be df       	rcall	.-132    	; 0x726 <display_fresult>
     7aa:	2f ef       	ldi	r18, 0xFF	; 255
     7ac:	81 e1       	ldi	r24, 0x11	; 17
     7ae:	9a e7       	ldi	r25, 0x7A	; 122
     7b0:	21 50       	subi	r18, 0x01	; 1
     7b2:	80 40       	sbci	r24, 0x00	; 0
     7b4:	90 40       	sbci	r25, 0x00	; 0
     7b6:	e1 f7       	brne	.-8      	; 0x7b0 <disp_fr_err+0xc>
     7b8:	00 c0       	rjmp	.+0      	; 0x7ba <disp_fr_err+0x16>
		_delay_ms(ERROR_DISP_MILLIS);
		return true;
     7ba:	00 00       	nop
     7bc:	81 e0       	ldi	r24, 0x01	; 1
	}
	else {
		return false;
     7be:	08 95       	ret
	}
}
     7c0:	80 e0       	ldi	r24, 0x00	; 0
     7c2:	08 95       	ret

000007c4 <display_fileinfo>:
	lcd_gotoxy(0,1);
	xprintf(PSTR("FR_%S"), p);
}

void display_fileinfo(FILINFO* Finfo)
{
     7c4:	cf 93       	push	r28
     7c6:	df 93       	push	r29
     7c8:	ec 01       	movw	r28, r24
	lcd_clrscr();
     7ca:	0e 94 3d 2c 	call	0x587a	; 0x587a <lcd_clrscr>
	switch (dir_idx)
     7ce:	80 91 fc 01 	lds	r24, 0x01FC	; 0x8001fc <dir_idx>
     7d2:	90 91 fd 01 	lds	r25, 0x01FD	; 0x8001fd <dir_idx+0x1>
     7d6:	00 97       	sbiw	r24, 0x00	; 0
     7d8:	c9 f4       	brne	.+50     	; 0x80c <display_fileinfo+0x48>
	{
		case DIR_IDX_GO_UP:
		{
			xprintf(pct_s_str, dir_name);
     7da:	87 e1       	ldi	r24, 0x17	; 23
     7dc:	92 e0       	ldi	r25, 0x02	; 2
     7de:	9f 93       	push	r25
     7e0:	8f 93       	push	r24
     7e2:	8f ef       	ldi	r24, 0xFF	; 255
     7e4:	91 e0       	ldi	r25, 0x01	; 1
     7e6:	9f 93       	push	r25
     7e8:	8f 93       	push	r24
     7ea:	f5 dd       	rcall	.-1046   	; 0x3d6 <xprintf>
			lcd_gotoxy(0,1);
     7ec:	61 e0       	ldi	r22, 0x01	; 1
     7ee:	80 e0       	ldi	r24, 0x00	; 0
     7f0:	0e 94 35 2c 	call	0x586a	; 0x586a <lcd_gotoxy>
			xprintf(dotdotdir_str);
     7f4:	84 e1       	ldi	r24, 0x14	; 20
     7f6:	92 e0       	ldi	r25, 0x02	; 2
     7f8:	9f 93       	push	r25
     7fa:	8f 93       	push	r24
     7fc:	ec dd       	rcall	.-1064   	; 0x3d6 <xprintf>
			break;
     7fe:	0f 90       	pop	r0
     800:	0f 90       	pop	r0
     802:	0f 90       	pop	r0
     804:	0f 90       	pop	r0
     806:	0f 90       	pop	r0
     808:	0f 90       	pop	r0
     80a:	3c c0       	rjmp	.+120    	; 0x884 <display_fileinfo+0xc0>
		}
		default:
		{
			if (dir_idx == DIR_IDX_FIRST_FILE && !Finfo->fname[0])
     80c:	01 97       	sbiw	r24, 0x01	; 1
     80e:	59 f4       	brne	.+22     	; 0x826 <display_fileinfo+0x62>
     810:	89 85       	ldd	r24, Y+9	; 0x09
     812:	81 11       	cpse	r24, r1
     814:	08 c0       	rjmp	.+16     	; 0x826 <display_fileinfo+0x62>
			{
				xprintf(empty_dir_str);
     816:	82 e0       	ldi	r24, 0x02	; 2
     818:	92 e0       	ldi	r25, 0x02	; 2
     81a:	9f 93       	push	r25
     81c:	8f 93       	push	r24
     81e:	db dd       	rcall	.-1098   	; 0x3d6 <xprintf>
     820:	0f 90       	pop	r0
     822:	0f 90       	pop	r0
     824:	2f c0       	rjmp	.+94     	; 0x884 <display_fileinfo+0xc0>
			}
			else
			{
				xprintf(pct_s_str, Finfo->fname);
     826:	ce 01       	movw	r24, r28
     828:	09 96       	adiw	r24, 0x09	; 9
     82a:	9f 93       	push	r25
     82c:	8f 93       	push	r24
     82e:	8f ef       	ldi	r24, 0xFF	; 255
     830:	91 e0       	ldi	r25, 0x01	; 1
     832:	9f 93       	push	r25
     834:	8f 93       	push	r24
     836:	cf dd       	rcall	.-1122   	; 0x3d6 <xprintf>
				lcd_gotoxy(0,1);
     838:	61 e0       	ldi	r22, 0x01	; 1
     83a:	80 e0       	ldi	r24, 0x00	; 0
     83c:	0e 94 35 2c 	call	0x586a	; 0x586a <lcd_gotoxy>
				if (Finfo->fattrib & AM_DIR) {
     840:	88 85       	ldd	r24, Y+8	; 0x08
     842:	0f 90       	pop	r0
     844:	0f 90       	pop	r0
     846:	0f 90       	pop	r0
     848:	0f 90       	pop	r0
     84a:	84 ff       	sbrs	r24, 4
					xprintf(dir_str);
     84c:	08 c0       	rjmp	.+16     	; 0x85e <display_fileinfo+0x9a>
     84e:	8e e0       	ldi	r24, 0x0E	; 14
     850:	92 e0       	ldi	r25, 0x02	; 2
     852:	9f 93       	push	r25
     854:	8f 93       	push	r24
     856:	bf dd       	rcall	.-1154   	; 0x3d6 <xprintf>
     858:	0f 90       	pop	r0
     85a:	0f 90       	pop	r0
				}
				else
				{
					xprintf(pct_d_str, Finfo->fsize);
     85c:	13 c0       	rjmp	.+38     	; 0x884 <display_fileinfo+0xc0>
     85e:	8b 81       	ldd	r24, Y+3	; 0x03
     860:	8f 93       	push	r24
     862:	8a 81       	ldd	r24, Y+2	; 0x02
     864:	8f 93       	push	r24
     866:	89 81       	ldd	r24, Y+1	; 0x01
     868:	8f 93       	push	r24
     86a:	88 81       	ld	r24, Y
     86c:	8f 93       	push	r24
     86e:	8c ef       	ldi	r24, 0xFC	; 252
     870:	91 e0       	ldi	r25, 0x01	; 1
     872:	9f 93       	push	r25
     874:	8f 93       	push	r24
     876:	af dd       	rcall	.-1186   	; 0x3d6 <xprintf>
     878:	0f 90       	pop	r0
     87a:	0f 90       	pop	r0
     87c:	0f 90       	pop	r0
     87e:	0f 90       	pop	r0
     880:	0f 90       	pop	r0
				}
			}
			break;
		}
	}
}
     882:	0f 90       	pop	r0
     884:	df 91       	pop	r29
     886:	cf 91       	pop	r28
     888:	08 95       	ret

0000088a <display_sendinfo>:

void display_sendinfo(char* filename, uint8_t block_len, uint8_t num_blocks, KC_FILE_TYPE file_type)
{
     88a:	ef 92       	push	r14
     88c:	ff 92       	push	r15
     88e:	0f 93       	push	r16
     890:	1f 93       	push	r17
     892:	cf 93       	push	r28
     894:	df 93       	push	r29
     896:	f8 2e       	mov	r15, r24
     898:	e9 2e       	mov	r14, r25
     89a:	06 2f       	mov	r16, r22
     89c:	14 2f       	mov	r17, r20
     89e:	e9 01       	movw	r28, r18
	lcd_clrscr();
     8a0:	0e 94 3d 2c 	call	0x587a	; 0x587a <lcd_clrscr>
	xprintf(PSTR("SND:%s"),filename);
     8a4:	ef 92       	push	r14
     8a6:	ff 92       	push	r15
     8a8:	88 e1       	ldi	r24, 0x18	; 24
     8aa:	91 e0       	ldi	r25, 0x01	; 1
     8ac:	9f 93       	push	r25
     8ae:	8f 93       	push	r24
     8b0:	92 dd       	rcall	.-1244   	; 0x3d6 <xprintf>
	lcd_gotoxy(0,1);
     8b2:	61 e0       	ldi	r22, 0x01	; 1
     8b4:	80 e0       	ldi	r24, 0x00	; 0
     8b6:	0e 94 35 2c 	call	0x586a	; 0x586a <lcd_gotoxy>
	char* t;
	switch(file_type)
     8ba:	0f 90       	pop	r0
     8bc:	0f 90       	pop	r0
     8be:	0f 90       	pop	r0
     8c0:	0f 90       	pop	r0
     8c2:	c2 30       	cpi	r28, 0x02	; 2
     8c4:	d1 05       	cpc	r29, r1
     8c6:	91 f0       	breq	.+36     	; 0x8ec <display_sendinfo+0x62>
     8c8:	28 f4       	brcc	.+10     	; 0x8d4 <display_sendinfo+0x4a>
     8ca:	20 97       	sbiw	r28, 0x00	; 0
     8cc:	61 f0       	breq	.+24     	; 0x8e6 <display_sendinfo+0x5c>
     8ce:	21 97       	sbiw	r28, 0x01	; 1
     8d0:	e1 f0       	breq	.+56     	; 0x90a <__stack+0xb>
     8d2:	18 c0       	rjmp	.+48     	; 0x904 <__stack+0x5>
     8d4:	c5 30       	cpi	r28, 0x05	; 5
     8d6:	d1 05       	cpc	r29, r1
     8d8:	79 f0       	breq	.+30     	; 0x8f8 <display_sendinfo+0x6e>
     8da:	c6 30       	cpi	r28, 0x06	; 6
     8dc:	d1 05       	cpc	r29, r1
     8de:	79 f0       	breq	.+30     	; 0x8fe <display_sendinfo+0x74>
     8e0:	24 97       	sbiw	r28, 0x04	; 4
     8e2:	81 f4       	brne	.+32     	; 0x904 <__stack+0x5>
     8e4:	06 c0       	rjmp	.+12     	; 0x8f2 <display_sendinfo+0x68>
	{
		case BASIC_NO_HEADER:
			t="B_NOHD";
     8e6:	8d e0       	ldi	r24, 0x0D	; 13
     8e8:	91 e0       	ldi	r25, 0x01	; 1
     8ea:	11 c0       	rjmp	.+34     	; 0x90e <__stack+0xf>
			break;
		case BASIC_W_HEADER:
			t="B_WHDR";
			break;
		case MACHINE_CODE:
			t="MC";
     8ec:	8f e1       	ldi	r24, 0x1F	; 31
     8ee:	91 e0       	ldi	r25, 0x01	; 1
			break;
     8f0:	0e c0       	rjmp	.+28     	; 0x90e <__stack+0xf>
		case TAP:
			t="TAP_MC";
     8f2:	8b e1       	ldi	r24, 0x1B	; 27
     8f4:	91 e0       	ldi	r25, 0x01	; 1
			break;
     8f6:	0b c0       	rjmp	.+22     	; 0x90e <__stack+0xf>
		case TAP_BASIC:
			t="TAP_B";
     8f8:	82 e2       	ldi	r24, 0x22	; 34
     8fa:	91 e0       	ldi	r25, 0x01	; 1
			break;
     8fc:	08 c0       	rjmp	.+16     	; 0x90e <__stack+0xf>
		case TAP_BASIC_EXTRA_BLOCKS:
			t="TAP_BX";
     8fe:	88 e2       	ldi	r24, 0x28	; 40
     900:	91 e0       	ldi	r25, 0x01	; 1
			break;
     902:	05 c0       	rjmp	.+10     	; 0x90e <__stack+0xf>
		default:
		case RAW:
			t="RAW";
     904:	8f e2       	ldi	r24, 0x2F	; 47
     906:	91 e0       	ldi	r25, 0x01	; 1
			break;
     908:	02 c0       	rjmp	.+4      	; 0x90e <__stack+0xf>
	{
		case BASIC_NO_HEADER:
			t="B_NOHD";
			break;
		case BASIC_W_HEADER:
			t="B_WHDR";
     90a:	84 e1       	ldi	r24, 0x14	; 20
     90c:	91 e0       	ldi	r25, 0x01	; 1
		default:
		case RAW:
			t="RAW";
			break;
	}
	xprintf(PSTR("#XXX/%03d%c %s"),num_blocks,block_len==128?'!':' ', t);
     90e:	00 38       	cpi	r16, 0x80	; 128
     910:	19 f4       	brne	.+6      	; 0x918 <__stack+0x19>
     912:	21 e2       	ldi	r18, 0x21	; 33
     914:	30 e0       	ldi	r19, 0x00	; 0
     916:	02 c0       	rjmp	.+4      	; 0x91c <__stack+0x1d>
     918:	20 e2       	ldi	r18, 0x20	; 32
     91a:	30 e0       	ldi	r19, 0x00	; 0
     91c:	9f 93       	push	r25
     91e:	8f 93       	push	r24
     920:	3f 93       	push	r19
     922:	2f 93       	push	r18
     924:	1f 92       	push	r1
     926:	1f 93       	push	r17
     928:	89 e0       	ldi	r24, 0x09	; 9
     92a:	91 e0       	ldi	r25, 0x01	; 1
     92c:	9f 93       	push	r25
     92e:	8f 93       	push	r24
     930:	52 dd       	rcall	.-1372   	; 0x3d6 <xprintf>
}
     932:	8d b7       	in	r24, 0x3d	; 61
     934:	9e b7       	in	r25, 0x3e	; 62
     936:	08 96       	adiw	r24, 0x08	; 8
     938:	0f b6       	in	r0, 0x3f	; 63
     93a:	f8 94       	cli
     93c:	9e bf       	out	0x3e, r25	; 62
     93e:	0f be       	out	0x3f, r0	; 63
     940:	8d bf       	out	0x3d, r24	; 61
     942:	df 91       	pop	r29
     944:	cf 91       	pop	r28
     946:	1f 91       	pop	r17
     948:	0f 91       	pop	r16
     94a:	ff 90       	pop	r15
     94c:	ef 90       	pop	r14
     94e:	08 95       	ret

00000950 <display_upd_sendinfo>:

void display_upd_sendinfo(uint8_t blocknr)
{
     950:	cf 93       	push	r28
     952:	c8 2f       	mov	r28, r24
	lcd_gotoxy(1,1);
     954:	61 e0       	ldi	r22, 0x01	; 1
     956:	81 e0       	ldi	r24, 0x01	; 1
     958:	0e 94 35 2c 	call	0x586a	; 0x586a <lcd_gotoxy>
	xprintf(PSTR("%03d"),blocknr);
     95c:	1f 92       	push	r1
     95e:	cf 93       	push	r28
     960:	84 e0       	ldi	r24, 0x04	; 4
     962:	91 e0       	ldi	r25, 0x01	; 1
     964:	9f 93       	push	r25
     966:	8f 93       	push	r24
     968:	36 dd       	rcall	.-1428   	; 0x3d6 <xprintf>
}
     96a:	0f 90       	pop	r0
     96c:	0f 90       	pop	r0
     96e:	0f 90       	pop	r0
     970:	0f 90       	pop	r0
     972:	cf 91       	pop	r28
     974:	08 95       	ret

00000976 <display_recvinfo>:

void display_recvinfo(char* filename, uint8_t blocknr) {
     976:	1f 93       	push	r17
     978:	cf 93       	push	r28
     97a:	df 93       	push	r29
     97c:	ec 01       	movw	r28, r24
     97e:	16 2f       	mov	r17, r22
	lcd_clrscr();
     980:	0e 94 3d 2c 	call	0x587a	; 0x587a <lcd_clrscr>
	if (filename == NULL) {
     984:	20 97       	sbiw	r28, 0x00	; 0
     986:	99 f4       	brne	.+38     	; 0x9ae <display_recvinfo+0x38>
		xprintf(PSTR("RCV:????????.???"));
     988:	83 ef       	ldi	r24, 0xF3	; 243
     98a:	90 e0       	ldi	r25, 0x00	; 0
     98c:	9f 93       	push	r25
     98e:	8f 93       	push	r24
     990:	22 dd       	rcall	.-1468   	; 0x3d6 <xprintf>
		lcd_gotoxy(0,1);
     992:	61 e0       	ldi	r22, 0x01	; 1
     994:	80 e0       	ldi	r24, 0x00	; 0
     996:	0e 94 35 2c 	call	0x586a	; 0x586a <lcd_gotoxy>
		xprintf(PSTR("#???"));
     99a:	8e ee       	ldi	r24, 0xEE	; 238
     99c:	90 e0       	ldi	r25, 0x00	; 0
     99e:	9f 93       	push	r25
     9a0:	8f 93       	push	r24
     9a2:	19 dd       	rcall	.-1486   	; 0x3d6 <xprintf>
     9a4:	0f 90       	pop	r0
     9a6:	0f 90       	pop	r0
     9a8:	0f 90       	pop	r0
     9aa:	0f 90       	pop	r0
     9ac:	1a c0       	rjmp	.+52     	; 0x9e2 <display_recvinfo+0x6c>
	}
	else {
		xprintf(PSTR("RCV:%s"),filename);
     9ae:	df 93       	push	r29
     9b0:	cf 93       	push	r28
     9b2:	87 ee       	ldi	r24, 0xE7	; 231
     9b4:	90 e0       	ldi	r25, 0x00	; 0
     9b6:	9f 93       	push	r25
     9b8:	8f 93       	push	r24
     9ba:	0d dd       	rcall	.-1510   	; 0x3d6 <xprintf>
		lcd_gotoxy(0,1);
     9bc:	61 e0       	ldi	r22, 0x01	; 1
     9be:	80 e0       	ldi	r24, 0x00	; 0
     9c0:	0e 94 35 2c 	call	0x586a	; 0x586a <lcd_gotoxy>
		xprintf(PSTR("#%03d"),blocknr);
     9c4:	1f 92       	push	r1
     9c6:	1f 93       	push	r17
     9c8:	81 ee       	ldi	r24, 0xE1	; 225
     9ca:	90 e0       	ldi	r25, 0x00	; 0
     9cc:	9f 93       	push	r25
     9ce:	8f 93       	push	r24
     9d0:	02 dd       	rcall	.-1532   	; 0x3d6 <xprintf>
     9d2:	8d b7       	in	r24, 0x3d	; 61
     9d4:	9e b7       	in	r25, 0x3e	; 62
     9d6:	08 96       	adiw	r24, 0x08	; 8
     9d8:	0f b6       	in	r0, 0x3f	; 63
     9da:	f8 94       	cli
     9dc:	9e bf       	out	0x3e, r25	; 62
     9de:	0f be       	out	0x3f, r0	; 63
     9e0:	8d bf       	out	0x3d, r24	; 61
	}
}
     9e2:	df 91       	pop	r29
     9e4:	cf 91       	pop	r28
     9e6:	1f 91       	pop	r17
     9e8:	08 95       	ret

000009ea <display_upd_recvinfo>:

void display_upd_recvinfo(uint8_t blocknr)
{
     9ea:	cf 93       	push	r28
     9ec:	c8 2f       	mov	r28, r24
	lcd_gotoxy(1,1);
     9ee:	61 e0       	ldi	r22, 0x01	; 1
     9f0:	81 e0       	ldi	r24, 0x01	; 1
     9f2:	0e 94 35 2c 	call	0x586a	; 0x586a <lcd_gotoxy>
	xprintf(PSTR("%03d"),blocknr);
     9f6:	1f 92       	push	r1
     9f8:	cf 93       	push	r28
     9fa:	8c ed       	ldi	r24, 0xDC	; 220
     9fc:	90 e0       	ldi	r25, 0x00	; 0
     9fe:	9f 93       	push	r25
     a00:	8f 93       	push	r24
     a02:	e9 dc       	rcall	.-1582   	; 0x3d6 <xprintf>
}
     a04:	0f 90       	pop	r0
     a06:	0f 90       	pop	r0
     a08:	0f 90       	pop	r0
     a0a:	0f 90       	pop	r0
     a0c:	cf 91       	pop	r28
     a0e:	08 95       	ret

00000a10 <disp_err>:
     'b' : Binary, argument is the value
     '%' : '%'

*/

void disp_err(char* line1, char* line2) {
     a10:	0f 93       	push	r16
     a12:	1f 93       	push	r17
     a14:	cf 93       	push	r28
     a16:	df 93       	push	r29
     a18:	c8 2f       	mov	r28, r24
     a1a:	d9 2f       	mov	r29, r25
     a1c:	16 2f       	mov	r17, r22
     a1e:	07 2f       	mov	r16, r23
	lcd_clrscr();
     a20:	0e 94 3d 2c 	call	0x587a	; 0x587a <lcd_clrscr>
	xprintf(pct_s_str,line1);
     a24:	df 93       	push	r29
     a26:	cf 93       	push	r28
     a28:	cf ef       	ldi	r28, 0xFF	; 255
     a2a:	d1 e0       	ldi	r29, 0x01	; 1
     a2c:	df 93       	push	r29
     a2e:	cf 93       	push	r28
     a30:	d2 dc       	rcall	.-1628   	; 0x3d6 <xprintf>
	lcd_gotoxy(0,1);
     a32:	61 e0       	ldi	r22, 0x01	; 1
     a34:	80 e0       	ldi	r24, 0x00	; 0
     a36:	0e 94 35 2c 	call	0x586a	; 0x586a <lcd_gotoxy>
	xprintf(pct_s_str,line2);
     a3a:	0f 93       	push	r16
     a3c:	1f 93       	push	r17
     a3e:	df 93       	push	r29
     a40:	cf 93       	push	r28
     a42:	c9 dc       	rcall	.-1646   	; 0x3d6 <xprintf>
     a44:	8f ef       	ldi	r24, 0xFF	; 255
     a46:	91 e1       	ldi	r25, 0x11	; 17
     a48:	2a e7       	ldi	r18, 0x7A	; 122
     a4a:	81 50       	subi	r24, 0x01	; 1
     a4c:	90 40       	sbci	r25, 0x00	; 0
     a4e:	20 40       	sbci	r18, 0x00	; 0
     a50:	e1 f7       	brne	.-8      	; 0xa4a <disp_err+0x3a>
     a52:	00 c0       	rjmp	.+0      	; 0xa54 <disp_err+0x44>
     a54:	00 00       	nop
	_delay_ms(ERROR_DISP_MILLIS);
}
     a56:	8d b7       	in	r24, 0x3d	; 61
     a58:	9e b7       	in	r25, 0x3e	; 62
     a5a:	08 96       	adiw	r24, 0x08	; 8
     a5c:	0f b6       	in	r0, 0x3f	; 63
     a5e:	f8 94       	cli
     a60:	9e bf       	out	0x3e, r25	; 62
     a62:	0f be       	out	0x3f, r0	; 63
     a64:	8d bf       	out	0x3d, r24	; 61
     a66:	df 91       	pop	r29
     a68:	cf 91       	pop	r28
     a6a:	1f 91       	pop	r17
     a6c:	0f 91       	pop	r16
     a6e:	08 95       	ret

00000a70 <calculate_checksum>:

uint8_t buf[DATA_BUF_SIZE]; //send buffer

uint8_t calculate_checksum() {
	uint8_t chksum = 0;
	for (uint8_t i = 1; i < 129; i++) {
     a70:	91 e0       	ldi	r25, 0x01	; 1
const char tap_header_str[] PROGMEM = "\xc3KC-TAPE by AF. ";

uint8_t buf[DATA_BUF_SIZE]; //send buffer

uint8_t calculate_checksum() {
	uint8_t chksum = 0;
     a72:	80 e0       	ldi	r24, 0x00	; 0
	for (uint8_t i = 1; i < 129; i++) {
     a74:	07 c0       	rjmp	.+14     	; 0xa84 <calculate_checksum+0x14>
		chksum += buf[i];
     a76:	e9 2f       	mov	r30, r25
     a78:	f0 e0       	ldi	r31, 0x00	; 0
     a7a:	e7 54       	subi	r30, 0x47	; 71
     a7c:	fb 4f       	sbci	r31, 0xFB	; 251
     a7e:	20 81       	ld	r18, Z
     a80:	82 0f       	add	r24, r18

uint8_t buf[DATA_BUF_SIZE]; //send buffer

uint8_t calculate_checksum() {
	uint8_t chksum = 0;
	for (uint8_t i = 1; i < 129; i++) {
     a82:	9f 5f       	subi	r25, 0xFF	; 255
     a84:	91 38       	cpi	r25, 0x81	; 129
     a86:	b8 f3       	brcs	.-18     	; 0xa76 <calculate_checksum+0x6>
		chksum += buf[i];
	}
	return chksum;
     a88:	08 95       	ret

00000a8a <config_and_start_timer_recv_file>:
}

void kc_cass_recv_file_disable() {
	EIMSK &= ~_BV(INT0); // make sure INT0 pin interrupts are disabled
	CASS_IN_DDR &= ~_BV(CASS_IN_PIN); // Configure input pin as INPUT
	CASS_IN_PORT |= _BV(CASS_IN_PIN); // Enable pullup
     a8a:	80 e8       	ldi	r24, 0x80	; 128
     a8c:	9e e3       	ldi	r25, 0x3E	; 62
     a8e:	90 93 89 00 	sts	0x0089, r25	; 0x800089 <__TEXT_REGION_LENGTH__+0x7e0089>
     a92:	80 93 88 00 	sts	0x0088, r24	; 0x800088 <__TEXT_REGION_LENGTH__+0x7e0088>
     a96:	10 92 85 00 	sts	0x0085, r1	; 0x800085 <__TEXT_REGION_LENGTH__+0x7e0085>
     a9a:	10 92 84 00 	sts	0x0084, r1	; 0x800084 <__TEXT_REGION_LENGTH__+0x7e0084>
     a9e:	16 ba       	out	0x16, r1	; 22
     aa0:	82 e0       	ldi	r24, 0x02	; 2
     aa2:	80 93 6f 00 	sts	0x006F, r24	; 0x80006f <__TEXT_REGION_LENGTH__+0x7e006f>
     aa6:	10 92 80 00 	sts	0x0080, r1	; 0x800080 <__TEXT_REGION_LENGTH__+0x7e0080>
     aaa:	81 e0       	ldi	r24, 0x01	; 1
     aac:	80 93 81 00 	sts	0x0081, r24	; 0x800081 <__TEXT_REGION_LENGTH__+0x7e0081>
     ab0:	08 95       	ret

00000ab2 <stop_timer_recv_file>:
     ab2:	10 92 81 00 	sts	0x0081, r1	; 0x800081 <__TEXT_REGION_LENGTH__+0x7e0081>
     ab6:	10 92 80 00 	sts	0x0080, r1	; 0x800080 <__TEXT_REGION_LENGTH__+0x7e0080>
     aba:	10 92 6f 00 	sts	0x006F, r1	; 0x80006f <__TEXT_REGION_LENGTH__+0x7e006f>
     abe:	16 ba       	out	0x16, r1	; 22
     ac0:	08 95       	ret

00000ac2 <reset_state>:
     ac2:	f7 df       	rcall	.-18     	; 0xab2 <stop_timer_recv_file>
     ac4:	10 92 07 02 	sts	0x0207, r1	; 0x800207 <is_first_block>
     ac8:	10 92 06 02 	sts	0x0206, r1	; 0x800206 <is_in_recv_state>
     acc:	10 92 05 02 	sts	0x0205, r1	; 0x800205 <buf_idx>
     ad0:	10 92 3b 05 	sts	0x053B, r1	; 0x80053b <file_name>
     ad4:	81 e0       	ldi	r24, 0x01	; 1
     ad6:	80 93 06 01 	sts	0x0106, r24	; 0x800106 <is_begin_measure>
     ada:	10 92 04 02 	sts	0x0204, r1	; 0x800204 <is_byte_complete>
     ade:	10 92 03 02 	sts	0x0203, r1	; 0x800203 <is_start_new_block>
     ae2:	10 92 02 02 	sts	0x0202, r1	; 0x800202 <timeout_occured>
     ae6:	10 92 01 02 	sts	0x0201, r1	; 0x800201 <recv_byte>
     aea:	10 92 00 02 	sts	0x0200, r1	; 0x800200 <next_bit>
     aee:	10 92 ff 01 	sts	0x01FF, r1	; 0x8001ff <vorton_cntr+0x1>
     af2:	10 92 fe 01 	sts	0x01FE, r1	; 0x8001fe <vorton_cntr>
     af6:	08 95       	ret

00000af8 <get_filename_from_fcb>:
     af8:	80 e0       	ldi	r24, 0x00	; 0
     afa:	e0 e0       	ldi	r30, 0x00	; 0
     afc:	18 c0       	rjmp	.+48     	; 0xb2e <get_filename_from_fcb+0x36>
     afe:	a8 2f       	mov	r26, r24
     b00:	b0 e0       	ldi	r27, 0x00	; 0
     b02:	a7 54       	subi	r26, 0x47	; 71
     b04:	bb 4f       	sbci	r27, 0xFB	; 251
     b06:	11 96       	adiw	r26, 0x01	; 1
     b08:	9c 91       	ld	r25, X
     b0a:	91 32       	cpi	r25, 0x21	; 33
     b0c:	4c f4       	brge	.+18     	; 0xb20 <get_filename_from_fcb+0x28>
     b0e:	ae 2f       	mov	r26, r30
     b10:	b0 e0       	ldi	r27, 0x00	; 0
     b12:	a5 5c       	subi	r26, 0xC5	; 197
     b14:	ba 4f       	sbci	r27, 0xFA	; 250
     b16:	8e e2       	ldi	r24, 0x2E	; 46
     b18:	8c 93       	st	X, r24
     b1a:	ef 5f       	subi	r30, 0xFF	; 255
     b1c:	81 e0       	ldi	r24, 0x01	; 1
     b1e:	0a c0       	rjmp	.+20     	; 0xb34 <get_filename_from_fcb+0x3c>
     b20:	ae 2f       	mov	r26, r30
     b22:	b0 e0       	ldi	r27, 0x00	; 0
     b24:	a5 5c       	subi	r26, 0xC5	; 197
     b26:	ba 4f       	sbci	r27, 0xFA	; 250
     b28:	9c 93       	st	X, r25
     b2a:	ef 5f       	subi	r30, 0xFF	; 255
     b2c:	8f 5f       	subi	r24, 0xFF	; 255
     b2e:	88 30       	cpi	r24, 0x08	; 8
     b30:	30 f3       	brcs	.-52     	; 0xafe <get_filename_from_fcb+0x6>
     b32:	80 e0       	ldi	r24, 0x00	; 0
     b34:	81 11       	cpse	r24, r1
     b36:	07 c0       	rjmp	.+14     	; 0xb46 <get_filename_from_fcb+0x4e>
     b38:	ae 2f       	mov	r26, r30
     b3a:	b0 e0       	ldi	r27, 0x00	; 0
     b3c:	a5 5c       	subi	r26, 0xC5	; 197
     b3e:	ba 4f       	sbci	r27, 0xFA	; 250
     b40:	8e e2       	ldi	r24, 0x2E	; 46
     b42:	8c 93       	st	X, r24
     b44:	ef 5f       	subi	r30, 0xFF	; 255
     b46:	80 e0       	ldi	r24, 0x00	; 0
     b48:	11 c0       	rjmp	.+34     	; 0xb6c <get_filename_from_fcb+0x74>
     b4a:	a8 2f       	mov	r26, r24
     b4c:	b0 e0       	ldi	r27, 0x00	; 0
     b4e:	a7 54       	subi	r26, 0x47	; 71
     b50:	bb 4f       	sbci	r27, 0xFB	; 251
     b52:	19 96       	adiw	r26, 0x09	; 9
     b54:	9c 91       	ld	r25, X
     b56:	91 32       	cpi	r25, 0x21	; 33
     b58:	14 f4       	brge	.+4      	; 0xb5e <get_filename_from_fcb+0x66>
     b5a:	ef 5f       	subi	r30, 0xFF	; 255
     b5c:	09 c0       	rjmp	.+18     	; 0xb70 <get_filename_from_fcb+0x78>
     b5e:	ae 2f       	mov	r26, r30
     b60:	b0 e0       	ldi	r27, 0x00	; 0
     b62:	a5 5c       	subi	r26, 0xC5	; 197
     b64:	ba 4f       	sbci	r27, 0xFA	; 250
     b66:	9c 93       	st	X, r25
     b68:	ef 5f       	subi	r30, 0xFF	; 255
     b6a:	8f 5f       	subi	r24, 0xFF	; 255
     b6c:	83 30       	cpi	r24, 0x03	; 3
     b6e:	68 f3       	brcs	.-38     	; 0xb4a <get_filename_from_fcb+0x52>
     b70:	f0 e0       	ldi	r31, 0x00	; 0
     b72:	e5 5c       	subi	r30, 0xC5	; 197
     b74:	fa 4f       	sbci	r31, 0xFA	; 250
     b76:	10 82       	st	Z, r1
     b78:	08 95       	ret

00000b7a <__vector_11>:
     b7a:	1f 92       	push	r1
     b7c:	0f 92       	push	r0
     b7e:	0f b6       	in	r0, 0x3f	; 63
     b80:	0f 92       	push	r0
     b82:	11 24       	eor	r1, r1
     b84:	2f 93       	push	r18
     b86:	3f 93       	push	r19
     b88:	4f 93       	push	r20
     b8a:	5f 93       	push	r21
     b8c:	6f 93       	push	r22
     b8e:	7f 93       	push	r23
     b90:	8f 93       	push	r24
     b92:	9f 93       	push	r25
     b94:	af 93       	push	r26
     b96:	bf 93       	push	r27
     b98:	ef 93       	push	r30
     b9a:	ff 93       	push	r31
     b9c:	8a df       	rcall	.-236    	; 0xab2 <stop_timer_recv_file>
     b9e:	81 e0       	ldi	r24, 0x01	; 1
     ba0:	80 93 02 02 	sts	0x0202, r24	; 0x800202 <timeout_occured>
     ba4:	ff 91       	pop	r31
     ba6:	ef 91       	pop	r30
     ba8:	bf 91       	pop	r27
     baa:	af 91       	pop	r26
     bac:	9f 91       	pop	r25
     bae:	8f 91       	pop	r24
     bb0:	7f 91       	pop	r23
     bb2:	6f 91       	pop	r22
     bb4:	5f 91       	pop	r21
     bb6:	4f 91       	pop	r20
     bb8:	3f 91       	pop	r19
     bba:	2f 91       	pop	r18
     bbc:	0f 90       	pop	r0
     bbe:	0f be       	out	0x3f, r0	; 63
     bc0:	0f 90       	pop	r0
     bc2:	1f 90       	pop	r1
     bc4:	18 95       	reti

00000bc6 <__vector_1>:
     bc6:	1f 92       	push	r1
     bc8:	0f 92       	push	r0
     bca:	0f b6       	in	r0, 0x3f	; 63
     bcc:	0f 92       	push	r0
     bce:	11 24       	eor	r1, r1
     bd0:	2f 93       	push	r18
     bd2:	3f 93       	push	r19
     bd4:	4f 93       	push	r20
     bd6:	5f 93       	push	r21
     bd8:	6f 93       	push	r22
     bda:	7f 93       	push	r23
     bdc:	8f 93       	push	r24
     bde:	9f 93       	push	r25
     be0:	af 93       	push	r26
     be2:	bf 93       	push	r27
     be4:	ef 93       	push	r30
     be6:	ff 93       	push	r31
     be8:	80 91 06 01 	lds	r24, 0x0106	; 0x800106 <is_begin_measure>
     bec:	88 23       	and	r24, r24
     bee:	21 f0       	breq	.+8      	; 0xbf8 <__vector_1+0x32>
     bf0:	4c df       	rcall	.-360    	; 0xa8a <config_and_start_timer_recv_file>
     bf2:	10 92 06 01 	sts	0x0106, r1	; 0x800106 <is_begin_measure>
     bf6:	44 c0       	rjmp	.+136    	; 0xc80 <__vector_1+0xba>
     bf8:	5c df       	rcall	.-328    	; 0xab2 <stop_timer_recv_file>
     bfa:	80 91 84 00 	lds	r24, 0x0084	; 0x800084 <__TEXT_REGION_LENGTH__+0x7e0084>
     bfe:	90 91 85 00 	lds	r25, 0x0085	; 0x800085 <__TEXT_REGION_LENGTH__+0x7e0085>
     c02:	81 37       	cpi	r24, 0x71	; 113
     c04:	27 e1       	ldi	r18, 0x17	; 23
     c06:	92 07       	cpc	r25, r18
     c08:	90 f0       	brcs	.+36     	; 0xc2e <__vector_1+0x68>
     c0a:	81 e0       	ldi	r24, 0x01	; 1
     c0c:	80 93 04 02 	sts	0x0204, r24	; 0x800204 <is_byte_complete>
     c10:	10 92 00 02 	sts	0x0200, r1	; 0x800200 <next_bit>
     c14:	80 91 fe 01 	lds	r24, 0x01FE	; 0x8001fe <vorton_cntr>
     c18:	90 91 ff 01 	lds	r25, 0x01FF	; 0x8001ff <vorton_cntr+0x1>
     c1c:	0a 97       	sbiw	r24, 0x0a	; 10
     c1e:	68 f1       	brcs	.+90     	; 0xc7a <__vector_1+0xb4>
     c20:	81 e0       	ldi	r24, 0x01	; 1
     c22:	80 93 03 02 	sts	0x0203, r24	; 0x800203 <is_start_new_block>
     c26:	85 b1       	in	r24, 0x05	; 5
     c28:	80 68       	ori	r24, 0x80	; 128
     c2a:	85 b9       	out	0x05, r24	; 5
     c2c:	26 c0       	rjmp	.+76     	; 0xc7a <__vector_1+0xb4>
     c2e:	20 91 04 02 	lds	r18, 0x0204	; 0x800204 <is_byte_complete>
     c32:	21 11       	cpse	r18, r1
     c34:	22 c0       	rjmp	.+68     	; 0xc7a <__vector_1+0xb4>
     c36:	20 91 01 02 	lds	r18, 0x0201	; 0x800201 <recv_byte>
     c3a:	26 95       	lsr	r18
     c3c:	20 93 01 02 	sts	0x0201, r18	; 0x800201 <recv_byte>
     c40:	89 5b       	subi	r24, 0xB9	; 185
     c42:	9b 40       	sbci	r25, 0x0B	; 11
     c44:	88 3b       	cpi	r24, 0xB8	; 184
     c46:	9b 40       	sbci	r25, 0x0B	; 11
     c48:	78 f4       	brcc	.+30     	; 0xc68 <__vector_1+0xa2>
     c4a:	80 91 01 02 	lds	r24, 0x0201	; 0x800201 <recv_byte>
     c4e:	80 58       	subi	r24, 0x80	; 128
     c50:	80 93 01 02 	sts	0x0201, r24	; 0x800201 <recv_byte>
     c54:	80 91 fe 01 	lds	r24, 0x01FE	; 0x8001fe <vorton_cntr>
     c58:	90 91 ff 01 	lds	r25, 0x01FF	; 0x8001ff <vorton_cntr+0x1>
     c5c:	01 96       	adiw	r24, 0x01	; 1
     c5e:	90 93 ff 01 	sts	0x01FF, r25	; 0x8001ff <vorton_cntr+0x1>
     c62:	80 93 fe 01 	sts	0x01FE, r24	; 0x8001fe <vorton_cntr>
     c66:	04 c0       	rjmp	.+8      	; 0xc70 <__vector_1+0xaa>
     c68:	10 92 ff 01 	sts	0x01FF, r1	; 0x8001ff <vorton_cntr+0x1>
     c6c:	10 92 fe 01 	sts	0x01FE, r1	; 0x8001fe <vorton_cntr>
     c70:	80 91 00 02 	lds	r24, 0x0200	; 0x800200 <next_bit>
     c74:	8f 5f       	subi	r24, 0xFF	; 255
     c76:	80 93 00 02 	sts	0x0200, r24	; 0x800200 <next_bit>
     c7a:	81 e0       	ldi	r24, 0x01	; 1
     c7c:	80 93 06 01 	sts	0x0106, r24	; 0x800106 <is_begin_measure>
     c80:	85 b1       	in	r24, 0x05	; 5
     c82:	8f 77       	andi	r24, 0x7F	; 127
     c84:	85 b9       	out	0x05, r24	; 5
     c86:	ff 91       	pop	r31
     c88:	ef 91       	pop	r30
     c8a:	bf 91       	pop	r27
     c8c:	af 91       	pop	r26
     c8e:	9f 91       	pop	r25
     c90:	8f 91       	pop	r24
     c92:	7f 91       	pop	r23
     c94:	6f 91       	pop	r22
     c96:	5f 91       	pop	r21
     c98:	4f 91       	pop	r20
     c9a:	3f 91       	pop	r19
     c9c:	2f 91       	pop	r18
     c9e:	0f 90       	pop	r0
     ca0:	0f be       	out	0x3f, r0	; 63
     ca2:	0f 90       	pop	r0
     ca4:	1f 90       	pop	r1
     ca6:	18 95       	reti

00000ca8 <kc_cass_recv_file_init>:
     ca8:	84 b1       	in	r24, 0x04	; 4
     caa:	80 68       	ori	r24, 0x80	; 128
     cac:	84 b9       	out	0x04, r24	; 4
     cae:	85 b1       	in	r24, 0x05	; 5
     cb0:	8f 77       	andi	r24, 0x7F	; 127
     cb2:	85 b9       	out	0x05, r24	; 5
     cb4:	8a b1       	in	r24, 0x0a	; 10
     cb6:	8b 7f       	andi	r24, 0xFB	; 251
     cb8:	8a b9       	out	0x0a, r24	; 10
     cba:	8b b1       	in	r24, 0x0b	; 11
     cbc:	8b 7f       	andi	r24, 0xFB	; 251
     cbe:	8b b9       	out	0x0b, r24	; 11
     cc0:	8c b3       	in	r24, 0x1c	; 28
     cc2:	81 70       	andi	r24, 0x01	; 1
     cc4:	8c bb       	out	0x1c, r24	; 28
     cc6:	8d b3       	in	r24, 0x1d	; 29
     cc8:	81 60       	ori	r24, 0x01	; 1
     cca:	8d bb       	out	0x1d, r24	; 29
     ccc:	81 e0       	ldi	r24, 0x01	; 1
     cce:	80 93 69 00 	sts	0x0069, r24	; 0x800069 <__TEXT_REGION_LENGTH__+0x7e0069>
     cd2:	f7 ce       	rjmp	.-530    	; 0xac2 <reset_state>
     cd4:	08 95       	ret

00000cd6 <kc_cass_handle_recv_file>:
}

/************************************************************************/
/* To be called from the main while loop                                */
/************************************************************************/
void kc_cass_handle_recv_file() {
     cd6:	1f 93       	push	r17
     cd8:	cf 93       	push	r28
     cda:	df 93       	push	r29
     cdc:	00 d0       	rcall	.+0      	; 0xcde <kc_cass_handle_recv_file+0x8>
     cde:	cd b7       	in	r28, 0x3d	; 61
     ce0:	de b7       	in	r29, 0x3e	; 62
	if (is_start_new_block) {
     ce2:	80 91 03 02 	lds	r24, 0x0203	; 0x800203 <is_start_new_block>
     ce6:	88 23       	and	r24, r24
     ce8:	09 f4       	brne	.+2      	; 0xcec <kc_cass_handle_recv_file+0x16>
     cea:	b7 c0       	rjmp	.+366    	; 0xe5a <kc_cass_handle_recv_file+0x184>
		if (!is_in_recv_state) {
     cec:	80 91 06 02 	lds	r24, 0x0206	; 0x800206 <is_in_recv_state>
     cf0:	81 11       	cpse	r24, r1
     cf2:	13 c0       	rjmp	.+38     	; 0xd1a <kc_cass_handle_recv_file+0x44>
			is_in_recv_state = true;
     cf4:	81 e0       	ldi	r24, 0x01	; 1
     cf6:	80 93 06 02 	sts	0x0206, r24	; 0x800206 <is_in_recv_state>
			memset(buf,0x0,DATA_BUF_SIZE);
     cfa:	92 e8       	ldi	r25, 0x82	; 130
     cfc:	e9 eb       	ldi	r30, 0xB9	; 185
     cfe:	f4 e0       	ldi	r31, 0x04	; 4
     d00:	df 01       	movw	r26, r30
     d02:	1d 92       	st	X+, r1
     d04:	9a 95       	dec	r25
     d06:	e9 f7       	brne	.-6      	; 0xd02 <kc_cass_handle_recv_file+0x2c>
			buf_idx = 0;
     d08:	10 92 05 02 	sts	0x0205, r1	; 0x800205 <buf_idx>
			is_first_block = true;
     d0c:	80 93 07 02 	sts	0x0207, r24	; 0x800207 <is_first_block>
			display_recvinfo(NULL,0);
     d10:	60 e0       	ldi	r22, 0x00	; 0
     d12:	80 e0       	ldi	r24, 0x00	; 0
     d14:	90 e0       	ldi	r25, 0x00	; 0
     d16:	2f de       	rcall	.-930    	; 0x976 <display_recvinfo>
     d18:	9d c0       	rjmp	.+314    	; 0xe54 <kc_cass_handle_recv_file+0x17e>
		}
		else {
			// is_start_new_block == true and is_in_recv_state -> a block is complete, write it
			if (buf[129] != calculate_checksum()) {
     d1a:	10 91 3a 05 	lds	r17, 0x053A	; 0x80053a <buf+0x81>
     d1e:	a8 de       	rcall	.-688    	; 0xa70 <calculate_checksum>
     d20:	18 17       	cp	r17, r24
				reset_state();
     d22:	59 f0       	breq	.+22     	; 0xd3a <kc_cass_handle_recv_file+0x64>
     d24:	ce de       	rcall	.-612    	; 0xac2 <reset_state>
				f_close(&fhdl);
     d26:	8d e6       	ldi	r24, 0x6D	; 109
     d28:	94 e0       	ldi	r25, 0x04	; 4
     d2a:	0e 94 9d 21 	call	0x433a	; 0x433a <f_close>
				disp_err("ERROR","WRONG CHECKSUM");
     d2e:	63 e3       	ldi	r22, 0x33	; 51
     d30:	71 e0       	ldi	r23, 0x01	; 1
     d32:	82 e4       	ldi	r24, 0x42	; 66
     d34:	91 e0       	ldi	r25, 0x01	; 1
     d36:	6c de       	rcall	.-808    	; 0xa10 <disp_err>
				return;
     d38:	c9 c0       	rjmp	.+402    	; 0xecc <kc_cass_handle_recv_file+0x1f6>
			}
			UINT bytes_written = 0;
     d3a:	1a 82       	std	Y+2, r1	; 0x02
     d3c:	19 82       	std	Y+1, r1	; 0x01
			if (is_first_block) {
     d3e:	80 91 07 02 	lds	r24, 0x0207	; 0x800207 <is_first_block>
     d42:	88 23       	and	r24, r24
     d44:	09 f4       	brne	.+2      	; 0xd48 <kc_cass_handle_recv_file+0x72>
				// we assume there is always a real FCB in the beginning
				// TODO: check what about BASIC!
				get_filename_from_fcb();
     d46:	52 c0       	rjmp	.+164    	; 0xdec <kc_cass_handle_recv_file+0x116>
     d48:	d7 de       	rcall	.-594    	; 0xaf8 <get_filename_from_fcb>
				f_close(&fhdl);
     d4a:	8d e6       	ldi	r24, 0x6D	; 109
     d4c:	94 e0       	ldi	r25, 0x04	; 4
     d4e:	0e 94 9d 21 	call	0x433a	; 0x433a <f_close>
				fr = f_open(&fhdl, file_name, FA_WRITE | FA_CREATE_ALWAYS);
     d52:	4a e0       	ldi	r20, 0x0A	; 10
     d54:	6b e3       	ldi	r22, 0x3B	; 59
     d56:	75 e0       	ldi	r23, 0x05	; 5
     d58:	8d e6       	ldi	r24, 0x6D	; 109
     d5a:	94 e0       	ldi	r25, 0x04	; 4
     d5c:	0e 94 38 1c 	call	0x3870	; 0x3870 <f_open>
     d60:	90 93 b8 04 	sts	0x04B8, r25	; 0x8004b8 <fr+0x1>
     d64:	80 93 b7 04 	sts	0x04B7, r24	; 0x8004b7 <fr>
				if (fr != FR_OK) {
     d68:	89 2b       	or	r24, r25
					reset_state();
     d6a:	81 f0       	breq	.+32     	; 0xd8c <kc_cass_handle_recv_file+0xb6>
     d6c:	aa de       	rcall	.-684    	; 0xac2 <reset_state>
					f_close(&fhdl);
     d6e:	8d e6       	ldi	r24, 0x6D	; 109
     d70:	94 e0       	ldi	r25, 0x04	; 4
     d72:	0e 94 9d 21 	call	0x433a	; 0x433a <f_close>
					disp_fr_err(fr);
     d76:	80 91 b7 04 	lds	r24, 0x04B7	; 0x8004b7 <fr>
     d7a:	90 91 b8 04 	lds	r25, 0x04B8	; 0x8004b8 <fr+0x1>
					disp_err("ERROR","OPEN FOR WRITE");
     d7e:	12 dd       	rcall	.-1500   	; 0x7a4 <disp_fr_err>
     d80:	68 e4       	ldi	r22, 0x48	; 72
     d82:	71 e0       	ldi	r23, 0x01	; 1
     d84:	82 e4       	ldi	r24, 0x42	; 66
     d86:	91 e0       	ldi	r25, 0x01	; 1
					return;
     d88:	43 de       	rcall	.-890    	; 0xa10 <disp_err>
				}
				display_recvinfo(file_name,buf[0]);
     d8a:	a0 c0       	rjmp	.+320    	; 0xecc <kc_cass_handle_recv_file+0x1f6>
     d8c:	60 91 b9 04 	lds	r22, 0x04B9	; 0x8004b9 <buf>
     d90:	8b e3       	ldi	r24, 0x3B	; 59
     d92:	95 e0       	ldi	r25, 0x05	; 5
     d94:	f0 dd       	rcall	.-1056   	; 0x976 <display_recvinfo>

				// write block to file
				fr = f_write(&fhdl, buf, DISK_BLOCK_SIZE - 1, &bytes_written);
     d96:	9e 01       	movw	r18, r28
     d98:	2f 5f       	subi	r18, 0xFF	; 255
     d9a:	3f 4f       	sbci	r19, 0xFF	; 255
     d9c:	40 e8       	ldi	r20, 0x80	; 128
     d9e:	50 e0       	ldi	r21, 0x00	; 0
     da0:	69 eb       	ldi	r22, 0xB9	; 185
     da2:	74 e0       	ldi	r23, 0x04	; 4
     da4:	8d e6       	ldi	r24, 0x6D	; 109
     da6:	94 e0       	ldi	r25, 0x04	; 4
     da8:	0e 94 5d 1f 	call	0x3eba	; 0x3eba <f_write>
     dac:	90 93 b8 04 	sts	0x04B8, r25	; 0x8004b8 <fr+0x1>
     db0:	80 93 b7 04 	sts	0x04B7, r24	; 0x8004b7 <fr>
				if (fr != FR_OK || bytes_written != DISK_BLOCK_SIZE) {
     db4:	89 2b       	or	r24, r25
     db6:	29 f4       	brne	.+10     	; 0xdc2 <kc_cass_handle_recv_file+0xec>
     db8:	89 81       	ldd	r24, Y+1	; 0x01
     dba:	9a 81       	ldd	r25, Y+2	; 0x02
     dbc:	81 38       	cpi	r24, 0x81	; 129
     dbe:	91 05       	cpc	r25, r1
					reset_state();
     dc0:	91 f0       	breq	.+36     	; 0xde6 <kc_cass_handle_recv_file+0x110>
					f_close(&fhdl);
     dc2:	7f de       	rcall	.-770    	; 0xac2 <reset_state>
     dc4:	8d e6       	ldi	r24, 0x6D	; 109
     dc6:	94 e0       	ldi	r25, 0x04	; 4
					if (fr != FR_OK) {
     dc8:	0e 94 9d 21 	call	0x433a	; 0x433a <f_close>
     dcc:	80 91 b7 04 	lds	r24, 0x04B7	; 0x8004b7 <fr>
     dd0:	90 91 b8 04 	lds	r25, 0x04B8	; 0x8004b8 <fr+0x1>
						disp_fr_err(fr);
					}
					disp_err("ERROR","WRITE FILE");
     dd4:	00 97       	sbiw	r24, 0x00	; 0
     dd6:	09 f0       	breq	.+2      	; 0xdda <kc_cass_handle_recv_file+0x104>
     dd8:	e5 dc       	rcall	.-1590   	; 0x7a4 <disp_fr_err>
     dda:	67 e5       	ldi	r22, 0x57	; 87
     ddc:	71 e0       	ldi	r23, 0x01	; 1
					return;
     dde:	82 e4       	ldi	r24, 0x42	; 66
				}
				is_first_block = false;
     de0:	91 e0       	ldi	r25, 0x01	; 1
     de2:	16 de       	rcall	.-980    	; 0xa10 <disp_err>
     de4:	73 c0       	rjmp	.+230    	; 0xecc <kc_cass_handle_recv_file+0x1f6>
			}
			else {
				// append block to open file
				display_upd_recvinfo(buf[0]);
     de6:	10 92 07 02 	sts	0x0207, r1	; 0x800207 <is_first_block>
     dea:	2b c0       	rjmp	.+86     	; 0xe42 <kc_cass_handle_recv_file+0x16c>
     dec:	80 91 b9 04 	lds	r24, 0x04B9	; 0x8004b9 <buf>
				fr = f_write(&fhdl, buf, DISK_BLOCK_SIZE, &bytes_written);
     df0:	fc dd       	rcall	.-1032   	; 0x9ea <display_upd_recvinfo>
     df2:	9e 01       	movw	r18, r28
     df4:	2f 5f       	subi	r18, 0xFF	; 255
     df6:	3f 4f       	sbci	r19, 0xFF	; 255
     df8:	41 e8       	ldi	r20, 0x81	; 129
     dfa:	50 e0       	ldi	r21, 0x00	; 0
     dfc:	69 eb       	ldi	r22, 0xB9	; 185
     dfe:	74 e0       	ldi	r23, 0x04	; 4
     e00:	8d e6       	ldi	r24, 0x6D	; 109
     e02:	94 e0       	ldi	r25, 0x04	; 4
     e04:	0e 94 5d 1f 	call	0x3eba	; 0x3eba <f_write>
     e08:	90 93 b8 04 	sts	0x04B8, r25	; 0x8004b8 <fr+0x1>
				if (fr != FR_OK || bytes_written != DISK_BLOCK_SIZE) {
     e0c:	80 93 b7 04 	sts	0x04B7, r24	; 0x8004b7 <fr>
     e10:	89 2b       	or	r24, r25
     e12:	29 f4       	brne	.+10     	; 0xe1e <kc_cass_handle_recv_file+0x148>
     e14:	89 81       	ldd	r24, Y+1	; 0x01
					reset_state();
     e16:	9a 81       	ldd	r25, Y+2	; 0x02
     e18:	81 38       	cpi	r24, 0x81	; 129
					f_close(&fhdl);
     e1a:	91 05       	cpc	r25, r1
     e1c:	91 f0       	breq	.+36     	; 0xe42 <kc_cass_handle_recv_file+0x16c>
     e1e:	51 de       	rcall	.-862    	; 0xac2 <reset_state>
					if (fr != FR_OK) {
     e20:	8d e6       	ldi	r24, 0x6D	; 109
     e22:	94 e0       	ldi	r25, 0x04	; 4
     e24:	0e 94 9d 21 	call	0x433a	; 0x433a <f_close>
     e28:	80 91 b7 04 	lds	r24, 0x04B7	; 0x8004b7 <fr>
						disp_fr_err(fr);
     e2c:	90 91 b8 04 	lds	r25, 0x04B8	; 0x8004b8 <fr+0x1>
					}	
					disp_err("ERROR","APPEND BLOCK");
     e30:	00 97       	sbiw	r24, 0x00	; 0
     e32:	09 f0       	breq	.+2      	; 0xe36 <kc_cass_handle_recv_file+0x160>
     e34:	b7 dc       	rcall	.-1682   	; 0x7a4 <disp_fr_err>
     e36:	62 e6       	ldi	r22, 0x62	; 98
     e38:	71 e0       	ldi	r23, 0x01	; 1
     e3a:	82 e4       	ldi	r24, 0x42	; 66
					return;
     e3c:	91 e0       	ldi	r25, 0x01	; 1
				}
			}
			memset(buf,0x0,DATA_BUF_SIZE);
     e3e:	e8 dd       	rcall	.-1072   	; 0xa10 <disp_err>
     e40:	45 c0       	rjmp	.+138    	; 0xecc <kc_cass_handle_recv_file+0x1f6>
     e42:	82 e8       	ldi	r24, 0x82	; 130
     e44:	e9 eb       	ldi	r30, 0xB9	; 185
     e46:	f4 e0       	ldi	r31, 0x04	; 4
     e48:	df 01       	movw	r26, r30
     e4a:	1d 92       	st	X+, r1
			buf_idx = 0;
     e4c:	8a 95       	dec	r24
     e4e:	e9 f7       	brne	.-6      	; 0xe4a <kc_cass_handle_recv_file+0x174>
		}
		is_start_new_block = false;
     e50:	10 92 05 02 	sts	0x0205, r1	; 0x800205 <buf_idx>
		return;
     e54:	10 92 03 02 	sts	0x0203, r1	; 0x800203 <is_start_new_block>
	}
	if (is_in_recv_state && is_byte_complete) {
     e58:	39 c0       	rjmp	.+114    	; 0xecc <kc_cass_handle_recv_file+0x1f6>
     e5a:	80 91 06 02 	lds	r24, 0x0206	; 0x800206 <is_in_recv_state>
     e5e:	88 23       	and	r24, r24
     e60:	19 f1       	breq	.+70     	; 0xea8 <kc_cass_handle_recv_file+0x1d2>
     e62:	80 91 04 02 	lds	r24, 0x0204	; 0x800204 <is_byte_complete>
		is_byte_complete = false;
     e66:	88 23       	and	r24, r24
     e68:	f9 f0       	breq	.+62     	; 0xea8 <kc_cass_handle_recv_file+0x1d2>
		if (buf_idx < DATA_BUF_SIZE) {
     e6a:	10 92 04 02 	sts	0x0204, r1	; 0x800204 <is_byte_complete>
     e6e:	80 91 05 02 	lds	r24, 0x0205	; 0x800205 <buf_idx>
			buf[buf_idx] = recv_byte;
     e72:	82 38       	cpi	r24, 0x82	; 130
     e74:	70 f4       	brcc	.+28     	; 0xe92 <kc_cass_handle_recv_file+0x1bc>
     e76:	e0 91 05 02 	lds	r30, 0x0205	; 0x800205 <buf_idx>
     e7a:	f0 e0       	ldi	r31, 0x00	; 0
     e7c:	80 91 01 02 	lds	r24, 0x0201	; 0x800201 <recv_byte>
			buf_idx++;
     e80:	e7 54       	subi	r30, 0x47	; 71
     e82:	fb 4f       	sbci	r31, 0xFB	; 251
     e84:	80 83       	st	Z, r24
     e86:	80 91 05 02 	lds	r24, 0x0205	; 0x800205 <buf_idx>
		}
		else {
			reset_state();
     e8a:	8f 5f       	subi	r24, 0xFF	; 255
     e8c:	80 93 05 02 	sts	0x0205, r24	; 0x800205 <buf_idx>
			f_close(&fhdl);
     e90:	1d c0       	rjmp	.+58     	; 0xecc <kc_cass_handle_recv_file+0x1f6>
     e92:	17 de       	rcall	.-978    	; 0xac2 <reset_state>
			disp_err("ERROR","BLKSIZE EXCEEDED");
     e94:	8d e6       	ldi	r24, 0x6D	; 109
     e96:	94 e0       	ldi	r25, 0x04	; 4
     e98:	0e 94 9d 21 	call	0x433a	; 0x433a <f_close>
     e9c:	6f e6       	ldi	r22, 0x6F	; 111
			return;
		}
		return;
	}
	if (timeout_occured && is_in_recv_state) {
     e9e:	71 e0       	ldi	r23, 0x01	; 1
     ea0:	82 e4       	ldi	r24, 0x42	; 66
     ea2:	91 e0       	ldi	r25, 0x01	; 1
     ea4:	b5 dd       	rcall	.-1174   	; 0xa10 <disp_err>
     ea6:	12 c0       	rjmp	.+36     	; 0xecc <kc_cass_handle_recv_file+0x1f6>
     ea8:	80 91 02 02 	lds	r24, 0x0202	; 0x800202 <timeout_occured>
     eac:	88 23       	and	r24, r24
		reset_state();
     eae:	71 f0       	breq	.+28     	; 0xecc <kc_cass_handle_recv_file+0x1f6>
     eb0:	80 91 06 02 	lds	r24, 0x0206	; 0x800206 <is_in_recv_state>
		f_close(&fhdl);
     eb4:	88 23       	and	r24, r24
     eb6:	51 f0       	breq	.+20     	; 0xecc <kc_cass_handle_recv_file+0x1f6>
     eb8:	04 de       	rcall	.-1016   	; 0xac2 <reset_state>
		disp_err("INFO","FILE SAVED");
     eba:	8d e6       	ldi	r24, 0x6D	; 109
     ebc:	94 e0       	ldi	r25, 0x04	; 4
     ebe:	0e 94 9d 21 	call	0x433a	; 0x433a <f_close>
     ec2:	60 e8       	ldi	r22, 0x80	; 128
     ec4:	71 e0       	ldi	r23, 0x01	; 1
		return;
	}
     ec6:	8b e8       	ldi	r24, 0x8B	; 139
     ec8:	91 e0       	ldi	r25, 0x01	; 1
     eca:	a2 dd       	rcall	.-1212   	; 0xa10 <disp_err>
     ecc:	0f 90       	pop	r0
     ece:	0f 90       	pop	r0
     ed0:	df 91       	pop	r29
	TCCR1A = 0;
	TIMSK1 = 0;
	TIFR1 = 0;
}

static void reset_state() {
     ed2:	cf 91       	pop	r28
     ed4:	1f 91       	pop	r17
     ed6:	08 95       	ret

00000ed8 <config_and_start_timer_sendfile>:
#define OCR_SPACE_SENDFILE (F_CPU / 64 / 571 / 2 - 1) //108
#define OCR_BIT_ONE_SENDFILE (F_CPU / 64 / 1087 / 2 - 1) //56
#define OCR_BIT_ZERO_SENDFILE (F_CPU / 64 / 2000 / 2 - 1) //30

static void config_and_start_timer_sendfile(uint8_t ocr_val) {
	OCR0A = ocr_val;
     ed8:	87 bd       	out	0x27, r24	; 39
	TCNT0 = 0; // reset timer
     eda:	16 bc       	out	0x26, r1	; 38
	TIFR0 = 0; // clear all INT flags
     edc:	15 ba       	out	0x15, r1	; 21
	TCCR0A = _BV(WGM01); // CTC mode -> TOP is OCR0A
     ede:	82 e0       	ldi	r24, 0x02	; 2
     ee0:	84 bd       	out	0x24, r24	; 36
	TIMSK0 = _BV(OCIE0A); // allow OCA interrupt generation
     ee2:	80 93 6e 00 	sts	0x006E, r24	; 0x80006e <__TEXT_REGION_LENGTH__+0x7e006e>
	// timer is started with the next command!
	TCCR0B = _BV(CS01)|_BV(CS00); // 64 prescaler -> 125000Hz, 8s/tick for F_CPU=8MHz
     ee6:	83 e0       	ldi	r24, 0x03	; 3
     ee8:	85 bd       	out	0x25, r24	; 37
     eea:	08 95       	ret

00000eec <send_bit>:


// sends the specified bit using Timer0
// blocks until the bit is sent only if bit_type!=SPACE
// this gives us time to reload buffer and do computation while sending the space
static void send_bit(BIT_TYPE bit_type) {
     eec:	cf 93       	push	r28
     eee:	df 93       	push	r29
     ef0:	ec 01       	movw	r28, r24
	#ifdef DEBUG_TIMER
	MONITOR_PIN |= MONITOR_BIT;
	#endif
	send_state = FIRST_HALF;
     ef2:	81 e0       	ldi	r24, 0x01	; 1
     ef4:	90 e0       	ldi	r25, 0x00	; 0
     ef6:	90 93 0c 02 	sts	0x020C, r25	; 0x80020c <send_state+0x1>
     efa:	80 93 0b 02 	sts	0x020B, r24	; 0x80020b <send_state>
	uint8_t ocr_val;
	switch(bit_type) {
     efe:	20 97       	sbiw	r28, 0x00	; 0
     f00:	21 f0       	breq	.+8      	; 0xf0a <send_bit+0x1e>
     f02:	c1 30       	cpi	r28, 0x01	; 1
     f04:	d1 05       	cpc	r29, r1
     f06:	29 f0       	breq	.+10     	; 0xf12 <send_bit+0x26>
     f08:	02 c0       	rjmp	.+4      	; 0xf0e <send_bit+0x22>
		case SPACE:
			ocr_val = OCR_SPACE_SENDFILE;
     f0a:	8c e6       	ldi	r24, 0x6C	; 108
     f0c:	03 c0       	rjmp	.+6      	; 0xf14 <send_bit+0x28>
		case ONE:
			ocr_val = OCR_BIT_ONE_SENDFILE;
			break;
		default:
		case ZERO:
			ocr_val = OCR_BIT_ZERO_SENDFILE;
     f0e:	8e e1       	ldi	r24, 0x1E	; 30
			break;
     f10:	01 c0       	rjmp	.+2      	; 0xf14 <send_bit+0x28>
	switch(bit_type) {
		case SPACE:
			ocr_val = OCR_SPACE_SENDFILE;
			break;
		case ONE:
			ocr_val = OCR_BIT_ONE_SENDFILE;
     f12:	88 e3       	ldi	r24, 0x38	; 56
		default:
		case ZERO:
			ocr_val = OCR_BIT_ZERO_SENDFILE;
			break;
	}
	CASS_OUT_PORT |= _BV(CASS_OUT_PIN);
     f14:	9b b1       	in	r25, 0x0b	; 11
     f16:	92 60       	ori	r25, 0x02	; 2
	config_and_start_timer_sendfile(ocr_val);
     f18:	9b b9       	out	0x0b, r25	; 11
		// block until bit is sent
	while (bit_type != SPACE && send_state != DONE);
     f1a:	de df       	rcall	.-68     	; 0xed8 <config_and_start_timer_sendfile>
     f1c:	20 97       	sbiw	r28, 0x00	; 0
     f1e:	31 f0       	breq	.+12     	; 0xf2c <send_bit+0x40>
     f20:	80 91 0b 02 	lds	r24, 0x020B	; 0x80020b <send_state>
     f24:	90 91 0c 02 	lds	r25, 0x020C	; 0x80020c <send_state+0x1>
     f28:	89 2b       	or	r24, r25
	#ifdef DEBUG_TIMER
	MONITOR_PIN |= MONITOR_BIT;
	#endif
}
     f2a:	c1 f7       	brne	.-16     	; 0xf1c <send_bit+0x30>
     f2c:	df 91       	pop	r29
     f2e:	cf 91       	pop	r28
     f30:	08 95       	ret

00000f32 <send_byte>:

// sends out a byte
// LSB first!
static void send_byte(uint8_t byte) {
     f32:	1f 93       	push	r17
     f34:	cf 93       	push	r28
     f36:	df 93       	push	r29
     f38:	18 2f       	mov	r17, r24
	// wait until the previous SPACE is completed
	while (send_state != DONE);
     f3a:	80 91 0b 02 	lds	r24, 0x020B	; 0x80020b <send_state>
     f3e:	90 91 0c 02 	lds	r25, 0x020C	; 0x80020c <send_state+0x1>
     f42:	89 2b       	or	r24, r25
     f44:	d1 f7       	brne	.-12     	; 0xf3a <send_byte+0x8>
     f46:	c0 e0       	ldi	r28, 0x00	; 0
     f48:	d1 e0       	ldi	r29, 0x01	; 1
     f4a:	0c c0       	rjmp	.+24     	; 0xf64 <send_byte+0x32>
	uint8_t mask = 1;
	for (uint8_t i = 0; i < 8; i++) {
		if (mask & byte)
     f4c:	8d 2f       	mov	r24, r29
     f4e:	81 23       	and	r24, r17
     f50:	21 f0       	breq	.+8      	; 0xf5a <send_byte+0x28>
			send_bit(ONE);
     f52:	81 e0       	ldi	r24, 0x01	; 1
     f54:	90 e0       	ldi	r25, 0x00	; 0
     f56:	ca df       	rcall	.-108    	; 0xeec <send_bit>
     f58:	03 c0       	rjmp	.+6      	; 0xf60 <send_byte+0x2e>
		else
			send_bit(ZERO);
     f5a:	82 e0       	ldi	r24, 0x02	; 2
     f5c:	90 e0       	ldi	r25, 0x00	; 0
     f5e:	c6 df       	rcall	.-116    	; 0xeec <send_bit>
		mask <<= 1;
     f60:	dd 0f       	add	r29, r29
// LSB first!
static void send_byte(uint8_t byte) {
	// wait until the previous SPACE is completed
	while (send_state != DONE);
	uint8_t mask = 1;
	for (uint8_t i = 0; i < 8; i++) {
     f62:	cf 5f       	subi	r28, 0xFF	; 255
     f64:	c8 30       	cpi	r28, 0x08	; 8
			send_bit(ONE);
		else
			send_bit(ZERO);
		mask <<= 1;
	}
	send_bit(SPACE); // this doesn't block!
     f66:	90 f3       	brcs	.-28     	; 0xf4c <send_byte+0x1a>
     f68:	80 e0       	ldi	r24, 0x00	; 0
     f6a:	90 e0       	ldi	r25, 0x00	; 0
}
     f6c:	bf df       	rcall	.-130    	; 0xeec <send_bit>
     f6e:	df 91       	pop	r29
     f70:	cf 91       	pop	r28
     f72:	1f 91       	pop	r17
     f74:	08 95       	ret

00000f76 <check_basic_fcb>:
	return true;
}

static bool check_basic_fcb() {
	KC_FCB_BASIC* fcb_basic = (KC_FCB_BASIC*) (buf + 1);
	uint8_t b1 = fcb_basic->dateityp[0];
     f76:	e9 eb       	ldi	r30, 0xB9	; 185
     f78:	f4 e0       	ldi	r31, 0x04	; 4
     f7a:	81 81       	ldd	r24, Z+1	; 0x01
	uint8_t b2 = fcb_basic->dateityp[1];
     f7c:	22 81       	ldd	r18, Z+2	; 0x02
	uint8_t b3 = fcb_basic->dateityp[2];
     f7e:	33 81       	ldd	r19, Z+3	; 0x03
	return ( b1 >= 0xd3 && b1 <= 0xd9 && b1 == b2 && b1 == b3);
     f80:	9d e2       	ldi	r25, 0x2D	; 45
     f82:	98 0f       	add	r25, r24
     f84:	97 30       	cpi	r25, 0x07	; 7
     f86:	30 f4       	brcc	.+12     	; 0xf94 <check_basic_fcb+0x1e>
     f88:	82 13       	cpse	r24, r18
     f8a:	06 c0       	rjmp	.+12     	; 0xf98 <check_basic_fcb+0x22>
     f8c:	83 17       	cp	r24, r19
     f8e:	31 f0       	breq	.+12     	; 0xf9c <check_basic_fcb+0x26>
     f90:	80 e0       	ldi	r24, 0x00	; 0
     f92:	08 95       	ret
     f94:	80 e0       	ldi	r24, 0x00	; 0
     f96:	08 95       	ret
     f98:	80 e0       	ldi	r24, 0x00	; 0
     f9a:	08 95       	ret
     f9c:	81 e0       	ldi	r24, 0x01	; 1
}
     f9e:	08 95       	ret

00000fa0 <detect_block_len>:
/************************************************************************/
/* Scans the file and checks if there are consecutive blocknrs          */
/* sets block_len=128, start_buf_prt = buf+1 if file has no blocknrs    */
/* sets block_len=129, start_buf_prt = buf if file provides blocknrs    */
/************************************************************************/
static bool detect_block_len() {
     fa0:	cf 93       	push	r28
     fa2:	df 93       	push	r29
	// rewind to start of file
	if (disp_fr_err(f_lseek(&fhdl, 0))) {
     fa4:	40 e0       	ldi	r20, 0x00	; 0
     fa6:	50 e0       	ldi	r21, 0x00	; 0
     fa8:	ba 01       	movw	r22, r20
     faa:	8d e6       	ldi	r24, 0x6D	; 109
     fac:	94 e0       	ldi	r25, 0x04	; 4
     fae:	0e 94 19 23 	call	0x4632	; 0x4632 <f_lseek>
     fb2:	f8 db       	rcall	.-2064   	; 0x7a4 <disp_fr_err>
     fb4:	d8 2f       	mov	r29, r24
     fb6:	88 23       	and	r24, r24
     fb8:	21 f1       	breq	.+72     	; 0x1002 <detect_block_len+0x62>
		f_close(&fhdl);
     fba:	8d e6       	ldi	r24, 0x6D	; 109
     fbc:	94 e0       	ldi	r25, 0x04	; 4
     fbe:	0e 94 9d 21 	call	0x433a	; 0x433a <f_close>
		return false;
     fc2:	d0 e0       	ldi	r29, 0x00	; 0
     fc4:	32 c0       	rjmp	.+100    	; 0x102a <detect_block_len+0x8a>
	bool first_block = true;
	uint8_t last_blocknr = 0;
	// Sweep through file and see if blocknumbers are consecutive
	while (bytes_read > 0 || first_block) {
		if (disp_fr_err(f_read(&fhdl, buf, 129, &bytes_read))) {
			f_close(&fhdl);
     fc6:	8d e6       	ldi	r24, 0x6D	; 109
     fc8:	94 e0       	ldi	r25, 0x04	; 4
     fca:	0e 94 9d 21 	call	0x433a	; 0x433a <f_close>
			return false;
     fce:	2d c0       	rjmp	.+90     	; 0x102a <detect_block_len+0x8a>
		}
		if (first_block) {
			if (buf[0] < 2)
     fd0:	80 91 b9 04 	lds	r24, 0x04B9	; 0x8004b9 <buf>
     fd4:	82 30       	cpi	r24, 0x02	; 2
     fd6:	a8 f0       	brcs	.+42     	; 0x1002 <detect_block_len+0x62>
				// Normal files start with block=0, BASIC files with block=1
				last_blocknr = buf[0];
			else {
				// already the first blocknr is wrong, so we dont have blocknrs
				start_buf_ptr = buf + 1;
     fd8:	8a eb       	ldi	r24, 0xBA	; 186
     fda:	94 e0       	ldi	r25, 0x04	; 4
     fdc:	90 93 0b 01 	sts	0x010B, r25	; 0x80010b <start_buf_ptr+0x1>
     fe0:	80 93 0a 01 	sts	0x010A, r24	; 0x80010a <start_buf_ptr>
				block_len = 128;
     fe4:	80 e8       	ldi	r24, 0x80	; 128
     fe6:	80 93 09 01 	sts	0x0109, r24	; 0x800109 <block_len>
			}
		}

	}
	// rewind again
	if (disp_fr_err(f_lseek(&fhdl, 0))) {
     fea:	40 e0       	ldi	r20, 0x00	; 0
     fec:	50 e0       	ldi	r21, 0x00	; 0
     fee:	ba 01       	movw	r22, r20
     ff0:	8d e6       	ldi	r24, 0x6D	; 109
     ff2:	94 e0       	ldi	r25, 0x04	; 4
     ff4:	0e 94 19 23 	call	0x4632	; 0x4632 <f_lseek>
     ff8:	d5 db       	rcall	.-2134   	; 0x7a4 <disp_fr_err>
     ffa:	81 11       	cpse	r24, r1
     ffc:	11 c0       	rjmp	.+34     	; 0x1020 <detect_block_len+0x80>
		f_close(&fhdl);
		return false;
	}
	return true;
     ffe:	d1 e0       	ldi	r29, 0x01	; 1
    1000:	14 c0       	rjmp	.+40     	; 0x102a <detect_block_len+0x8a>

	bool first_block = true;
	uint8_t last_blocknr = 0;
	// Sweep through file and see if blocknumbers are consecutive
	while (bytes_read > 0 || first_block) {
		if (disp_fr_err(f_read(&fhdl, buf, 129, &bytes_read))) {
    1002:	29 e0       	ldi	r18, 0x09	; 9
    1004:	32 e0       	ldi	r19, 0x02	; 2
    1006:	41 e8       	ldi	r20, 0x81	; 129
    1008:	50 e0       	ldi	r21, 0x00	; 0
    100a:	69 eb       	ldi	r22, 0xB9	; 185
    100c:	74 e0       	ldi	r23, 0x04	; 4
    100e:	8d e6       	ldi	r24, 0x6D	; 109
    1010:	94 e0       	ldi	r25, 0x04	; 4
    1012:	0e 94 e4 1d 	call	0x3bc8	; 0x3bc8 <f_read>
    1016:	c6 db       	rcall	.-2164   	; 0x7a4 <disp_fr_err>
    1018:	c8 2f       	mov	r28, r24
    101a:	88 23       	and	r24, r24
    101c:	c9 f2       	breq	.-78     	; 0xfd0 <detect_block_len+0x30>
    101e:	d3 cf       	rjmp	.-90     	; 0xfc6 <detect_block_len+0x26>
		}

	}
	// rewind again
	if (disp_fr_err(f_lseek(&fhdl, 0))) {
		f_close(&fhdl);
    1020:	8d e6       	ldi	r24, 0x6D	; 109
    1022:	94 e0       	ldi	r25, 0x04	; 4
    1024:	0e 94 9d 21 	call	0x433a	; 0x433a <f_close>
		return false;
    1028:	dc 2f       	mov	r29, r28
	}
	return true;
}
    102a:	8d 2f       	mov	r24, r29
    102c:	df 91       	pop	r29
    102e:	cf 91       	pop	r28
    1030:	08 95       	ret

00001032 <check_tap_types>:
	fcb_mc->sadr = 0xffff;

	return true;
}

static bool check_tap_types(FILINFO* Finfo) {
    1032:	cf 93       	push	r28
	kc_file_type = TAP;
    1034:	24 e0       	ldi	r18, 0x04	; 4
    1036:	30 e0       	ldi	r19, 0x00	; 0
    1038:	30 93 08 01 	sts	0x0108, r19	; 0x800108 <kc_file_type+0x1>
    103c:	20 93 07 01 	sts	0x0107, r18	; 0x800107 <kc_file_type>
	
	number_of_blocks = (uint8_t)((Finfo->fsize - TAP_HEADER_LEN) / 129);
    1040:	fc 01       	movw	r30, r24
    1042:	80 81       	ld	r24, Z
    1044:	91 81       	ldd	r25, Z+1	; 0x01
    1046:	a2 81       	ldd	r26, Z+2	; 0x02
    1048:	b3 81       	ldd	r27, Z+3	; 0x03
    104a:	bc 01       	movw	r22, r24
    104c:	cd 01       	movw	r24, r26
    104e:	60 51       	subi	r22, 0x10	; 16
    1050:	71 09       	sbc	r23, r1
    1052:	81 09       	sbc	r24, r1
    1054:	91 09       	sbc	r25, r1
    1056:	21 e8       	ldi	r18, 0x81	; 129
    1058:	30 e0       	ldi	r19, 0x00	; 0
    105a:	40 e0       	ldi	r20, 0x00	; 0
    105c:	50 e0       	ldi	r21, 0x00	; 0
    105e:	0e 94 90 2c 	call	0x5920	; 0x5920 <__udivmodsi4>
    1062:	20 93 08 02 	sts	0x0208, r18	; 0x800208 <number_of_blocks>
	
	// read the first block after the TAP_HEADER
	if (disp_fr_err(f_lseek(&fhdl, TAP_HEADER_LEN)) || disp_fr_err(f_read(&fhdl, start_buf_ptr, block_len, &bytes_read))) {
    1066:	40 e1       	ldi	r20, 0x10	; 16
    1068:	50 e0       	ldi	r21, 0x00	; 0
    106a:	60 e0       	ldi	r22, 0x00	; 0
    106c:	70 e0       	ldi	r23, 0x00	; 0
    106e:	8d e6       	ldi	r24, 0x6D	; 109
    1070:	94 e0       	ldi	r25, 0x04	; 4
    1072:	0e 94 19 23 	call	0x4632	; 0x4632 <f_lseek>
    1076:	96 db       	rcall	.-2260   	; 0x7a4 <disp_fr_err>
    1078:	81 11       	cpse	r24, r1
    107a:	10 c0       	rjmp	.+32     	; 0x109c <check_tap_types+0x6a>
    107c:	40 91 09 01 	lds	r20, 0x0109	; 0x800109 <block_len>
    1080:	50 e0       	ldi	r21, 0x00	; 0
    1082:	60 91 0a 01 	lds	r22, 0x010A	; 0x80010a <start_buf_ptr>
    1086:	70 91 0b 01 	lds	r23, 0x010B	; 0x80010b <start_buf_ptr+0x1>
    108a:	29 e0       	ldi	r18, 0x09	; 9
    108c:	32 e0       	ldi	r19, 0x02	; 2
    108e:	8d e6       	ldi	r24, 0x6D	; 109
    1090:	94 e0       	ldi	r25, 0x04	; 4
    1092:	0e 94 e4 1d 	call	0x3bc8	; 0x3bc8 <f_read>
    1096:	86 db       	rcall	.-2292   	; 0x7a4 <disp_fr_err>
    1098:	88 23       	and	r24, r24
    109a:	31 f0       	breq	.+12     	; 0x10a8 <check_tap_types+0x76>
		f_close(&fhdl);
    109c:	8d e6       	ldi	r24, 0x6D	; 109
    109e:	94 e0       	ldi	r25, 0x04	; 4
    10a0:	0e 94 9d 21 	call	0x433a	; 0x433a <f_close>
		return false;
	}

	if (check_basic_fcb()) {
    10a4:	c0 e0       	ldi	r28, 0x00	; 0
    10a6:	51 c0       	rjmp	.+162    	; 0x114a <check_tap_types+0x118>
    10a8:	66 df       	rcall	.-308    	; 0xf76 <check_basic_fcb>
    10aa:	c8 2f       	mov	r28, r24
    10ac:	88 23       	and	r24, r24
		kc_file_type = TAP_BASIC;
    10ae:	39 f0       	breq	.+14     	; 0x10be <check_tap_types+0x8c>
    10b0:	85 e0       	ldi	r24, 0x05	; 5
    10b2:	90 e0       	ldi	r25, 0x00	; 0
    10b4:	90 93 08 01 	sts	0x0108, r25	; 0x800108 <kc_file_type+0x1>
    10b8:	80 93 07 01 	sts	0x0107, r24	; 0x800107 <kc_file_type>
	} else {
		// workaround for TAP files that contain a meaningless block 0 before the
		// actual first BASIC block #1. Z9001 doesn't like that.
		// so load the first block after the header and see if it is BASIC
		if (disp_fr_err(f_read(&fhdl, start_buf_ptr, block_len, &bytes_read))) {
    10bc:	46 c0       	rjmp	.+140    	; 0x114a <check_tap_types+0x118>
    10be:	40 91 09 01 	lds	r20, 0x0109	; 0x800109 <block_len>
    10c2:	50 e0       	ldi	r21, 0x00	; 0
    10c4:	60 91 0a 01 	lds	r22, 0x010A	; 0x80010a <start_buf_ptr>
    10c8:	70 91 0b 01 	lds	r23, 0x010B	; 0x80010b <start_buf_ptr+0x1>
    10cc:	29 e0       	ldi	r18, 0x09	; 9
    10ce:	32 e0       	ldi	r19, 0x02	; 2
    10d0:	8d e6       	ldi	r24, 0x6D	; 109
    10d2:	94 e0       	ldi	r25, 0x04	; 4
    10d4:	0e 94 e4 1d 	call	0x3bc8	; 0x3bc8 <f_read>
    10d8:	65 db       	rcall	.-2358   	; 0x7a4 <disp_fr_err>
    10da:	88 23       	and	r24, r24
			f_close(&fhdl);
    10dc:	29 f0       	breq	.+10     	; 0x10e8 <check_tap_types+0xb6>
    10de:	8d e6       	ldi	r24, 0x6D	; 109
    10e0:	94 e0       	ldi	r25, 0x04	; 4
			return false;
    10e2:	0e 94 9d 21 	call	0x433a	; 0x433a <f_close>
		}
		if (check_basic_fcb()) {
    10e6:	31 c0       	rjmp	.+98     	; 0x114a <check_tap_types+0x118>
    10e8:	46 df       	rcall	.-372    	; 0xf76 <check_basic_fcb>
    10ea:	c8 2f       	mov	r28, r24
    10ec:	88 23       	and	r24, r24
			// BASIC header found
			kc_file_type = TAP_BASIC_EXTRA_BLOCKS;
    10ee:	61 f0       	breq	.+24     	; 0x1108 <check_tap_types+0xd6>
    10f0:	86 e0       	ldi	r24, 0x06	; 6
    10f2:	90 e0       	ldi	r25, 0x00	; 0
    10f4:	90 93 08 01 	sts	0x0108, r25	; 0x800108 <kc_file_type+0x1>
    10f8:	80 93 07 01 	sts	0x0107, r24	; 0x800107 <kc_file_type>
			number_of_blocks--;
    10fc:	80 91 08 02 	lds	r24, 0x0208	; 0x800208 <number_of_blocks>
    1100:	81 50       	subi	r24, 0x01	; 1
    1102:	80 93 08 02 	sts	0x0208, r24	; 0x800208 <number_of_blocks>
		}
		else
		{
			// it is not BASIC
			// rewind to beginning of first block after TAP header and reload
			if (disp_fr_err(f_lseek(&fhdl, TAP_HEADER_LEN)) ||
    1106:	21 c0       	rjmp	.+66     	; 0x114a <check_tap_types+0x118>
    1108:	40 e1       	ldi	r20, 0x10	; 16
    110a:	50 e0       	ldi	r21, 0x00	; 0
    110c:	60 e0       	ldi	r22, 0x00	; 0
    110e:	70 e0       	ldi	r23, 0x00	; 0
    1110:	8d e6       	ldi	r24, 0x6D	; 109
    1112:	94 e0       	ldi	r25, 0x04	; 4
    1114:	0e 94 19 23 	call	0x4632	; 0x4632 <f_lseek>
    1118:	45 db       	rcall	.-2422   	; 0x7a4 <disp_fr_err>
    111a:	81 11       	cpse	r24, r1
			disp_fr_err(f_read(&fhdl, start_buf_ptr, block_len, &bytes_read))) {
    111c:	10 c0       	rjmp	.+32     	; 0x113e <check_tap_types+0x10c>
    111e:	40 91 09 01 	lds	r20, 0x0109	; 0x800109 <block_len>
    1122:	50 e0       	ldi	r21, 0x00	; 0
    1124:	60 91 0a 01 	lds	r22, 0x010A	; 0x80010a <start_buf_ptr>
    1128:	70 91 0b 01 	lds	r23, 0x010B	; 0x80010b <start_buf_ptr+0x1>
    112c:	29 e0       	ldi	r18, 0x09	; 9
    112e:	32 e0       	ldi	r19, 0x02	; 2
    1130:	8d e6       	ldi	r24, 0x6D	; 109
    1132:	94 e0       	ldi	r25, 0x04	; 4
    1134:	0e 94 e4 1d 	call	0x3bc8	; 0x3bc8 <f_read>
		}
		else
		{
			// it is not BASIC
			// rewind to beginning of first block after TAP header and reload
			if (disp_fr_err(f_lseek(&fhdl, TAP_HEADER_LEN)) ||
    1138:	35 db       	rcall	.-2454   	; 0x7a4 <disp_fr_err>
    113a:	88 23       	and	r24, r24
			disp_fr_err(f_read(&fhdl, start_buf_ptr, block_len, &bytes_read))) {
				f_close(&fhdl);
    113c:	29 f0       	breq	.+10     	; 0x1148 <check_tap_types+0x116>
    113e:	8d e6       	ldi	r24, 0x6D	; 109
    1140:	94 e0       	ldi	r25, 0x04	; 4
    1142:	0e 94 9d 21 	call	0x433a	; 0x433a <f_close>
				return false;
			}
		}
	}
	return true;
    1146:	01 c0       	rjmp	.+2      	; 0x114a <check_tap_types+0x118>
}
    1148:	c1 e0       	ldi	r28, 0x01	; 1
    114a:	8c 2f       	mov	r24, r28
    114c:	cf 91       	pop	r28
    114e:	08 95       	ret

00001150 <check_non_tap_types>:
	uint8_t b2 = fcb_basic->dateityp[1];
	uint8_t b3 = fcb_basic->dateityp[2];
	return ( b1 >= 0xd3 && b1 <= 0xd9 && b1 == b2 && b1 == b3);
}

static bool check_non_tap_types(FILINFO* Finfo) {
    1150:	cf 92       	push	r12
    1152:	df 92       	push	r13
    1154:	ef 92       	push	r14
    1156:	ff 92       	push	r15
    1158:	0f 93       	push	r16
    115a:	1f 93       	push	r17
    115c:	cf 93       	push	r28
    115e:	df 93       	push	r29
	// non-TAP files may have the block numbers in the file or not
	// this determines the block_len:
	//  129 with blocknr
	//  128 without blocknr
	if(!detect_block_len()) {
    1160:	ec 01       	movw	r28, r24
    1162:	1e df       	rcall	.-452    	; 0xfa0 <detect_block_len>
    1164:	d8 2e       	mov	r13, r24
    1166:	88 23       	and	r24, r24
    1168:	09 f4       	brne	.+2      	; 0x116c <check_non_tap_types+0x1c>
		return false;
	}

	// load the first block completely
	// start_buf_ptr and block_len are now correct
	if (disp_fr_err(f_read(&fhdl, start_buf_ptr, block_len, &bytes_read))) {
    116a:	bf c1       	rjmp	.+894    	; 0x14ea <check_non_tap_types+0x39a>
    116c:	40 91 09 01 	lds	r20, 0x0109	; 0x800109 <block_len>
    1170:	50 e0       	ldi	r21, 0x00	; 0
    1172:	60 91 0a 01 	lds	r22, 0x010A	; 0x80010a <start_buf_ptr>
    1176:	70 91 0b 01 	lds	r23, 0x010B	; 0x80010b <start_buf_ptr+0x1>
    117a:	29 e0       	ldi	r18, 0x09	; 9
    117c:	32 e0       	ldi	r19, 0x02	; 2
    117e:	8d e6       	ldi	r24, 0x6D	; 109
    1180:	94 e0       	ldi	r25, 0x04	; 4
    1182:	0e 94 e4 1d 	call	0x3bc8	; 0x3bc8 <f_read>
    1186:	0e db       	rcall	.-2532   	; 0x7a4 <disp_fr_err>
    1188:	88 23       	and	r24, r24
		f_close(&fhdl);
    118a:	31 f0       	breq	.+12     	; 0x1198 <check_non_tap_types+0x48>
    118c:	8d e6       	ldi	r24, 0x6D	; 109
    118e:	94 e0       	ldi	r25, 0x04	; 4
		return false;
    1190:	0e 94 9d 21 	call	0x433a	; 0x433a <f_close>
	}

	// check if BASIC FCB
	if (check_basic_fcb()) {
    1194:	d1 2c       	mov	r13, r1
    1196:	a9 c1       	rjmp	.+850    	; 0x14ea <check_non_tap_types+0x39a>
    1198:	ee de       	rcall	.-548    	; 0xf76 <check_basic_fcb>
    119a:	c8 2e       	mov	r12, r24
		// BASIC FCB found
		kc_file_type = BASIC_W_HEADER;
    119c:	88 23       	and	r24, r24
    119e:	e1 f0       	breq	.+56     	; 0x11d8 <check_non_tap_types+0x88>
    11a0:	81 e0       	ldi	r24, 0x01	; 1
    11a2:	90 e0       	ldi	r25, 0x00	; 0
    11a4:	90 93 08 01 	sts	0x0108, r25	; 0x800108 <kc_file_type+0x1>
		number_of_blocks = (uint8_t)(Finfo->fsize / block_len);
    11a8:	80 93 07 01 	sts	0x0107, r24	; 0x800107 <kc_file_type>
    11ac:	68 81       	ld	r22, Y
    11ae:	79 81       	ldd	r23, Y+1	; 0x01
    11b0:	8a 81       	ldd	r24, Y+2	; 0x02
    11b2:	9b 81       	ldd	r25, Y+3	; 0x03
    11b4:	c0 91 09 01 	lds	r28, 0x0109	; 0x800109 <block_len>
    11b8:	2c 2f       	mov	r18, r28
    11ba:	30 e0       	ldi	r19, 0x00	; 0
    11bc:	40 e0       	ldi	r20, 0x00	; 0
    11be:	50 e0       	ldi	r21, 0x00	; 0
    11c0:	0e 94 90 2c 	call	0x5920	; 0x5920 <__udivmodsi4>
		if (HAS_NO_BLOCKNR) {
    11c4:	20 93 08 02 	sts	0x0208, r18	; 0x800208 <number_of_blocks>
    11c8:	c0 38       	cpi	r28, 0x80	; 128
			buf[0] = 1; // BASIC files start with block #1
    11ca:	09 f0       	breq	.+2      	; 0x11ce <check_non_tap_types+0x7e>
    11cc:	8d c1       	rjmp	.+794    	; 0x14e8 <check_non_tap_types+0x398>
    11ce:	81 e0       	ldi	r24, 0x01	; 1
		}
		return true;
    11d0:	80 93 b9 04 	sts	0x04B9, r24	; 0x8004b9 <buf>
	}

	// check the file extension if it is of BASIC type ('SSS','TTT',...)
	char* ext = strchr(Finfo->fname,'.') + 1;
    11d4:	dc 2c       	mov	r13, r12
    11d6:	89 c1       	rjmp	.+786    	; 0x14ea <check_non_tap_types+0x39a>
    11d8:	8e 01       	movw	r16, r28
    11da:	07 5f       	subi	r16, 0xF7	; 247
    11dc:	1f 4f       	sbci	r17, 0xFF	; 255
    11de:	6e e2       	ldi	r22, 0x2E	; 46
    11e0:	70 e0       	ldi	r23, 0x00	; 0
    11e2:	c8 01       	movw	r24, r16
    11e4:	0e 94 e6 2c 	call	0x59cc	; 0x59cc <strchr>
    11e8:	fc 01       	movw	r30, r24
    11ea:	7c 01       	movw	r14, r24
    11ec:	8f ef       	ldi	r24, 0xFF	; 255
	for (uint8_t c = 0x53; c <= 0x59; c++) { // stepping through from 'S' to 'Y'
    11ee:	e8 1a       	sub	r14, r24
    11f0:	f8 0a       	sbc	r15, r24
		if (ext[0] == c && ext[1] == c && ext[2] == c) {
    11f2:	93 e5       	ldi	r25, 0x53	; 83
    11f4:	ad c0       	rjmp	.+346    	; 0x1350 <check_non_tap_types+0x200>
    11f6:	21 81       	ldd	r18, Z+1	; 0x01
    11f8:	02 2e       	mov	r0, r18
    11fa:	00 0c       	add	r0, r0
    11fc:	33 0b       	sbc	r19, r19
    11fe:	49 2f       	mov	r20, r25
    1200:	50 e0       	ldi	r21, 0x00	; 0
    1202:	24 17       	cp	r18, r20
    1204:	35 07       	cpc	r19, r21
    1206:	09 f0       	breq	.+2      	; 0x120a <check_non_tap_types+0xba>
    1208:	a2 c0       	rjmp	.+324    	; 0x134e <check_non_tap_types+0x1fe>
    120a:	22 81       	ldd	r18, Z+2	; 0x02
    120c:	02 2e       	mov	r0, r18
    120e:	00 0c       	add	r0, r0
    1210:	33 0b       	sbc	r19, r19
    1212:	42 17       	cp	r20, r18
    1214:	53 07       	cpc	r21, r19
    1216:	09 f0       	breq	.+2      	; 0x121a <check_non_tap_types+0xca>
    1218:	9a c0       	rjmp	.+308    	; 0x134e <check_non_tap_types+0x1fe>
    121a:	23 81       	ldd	r18, Z+3	; 0x03
    121c:	02 2e       	mov	r0, r18
    121e:	00 0c       	add	r0, r0
    1220:	33 0b       	sbc	r19, r19
    1222:	42 17       	cp	r20, r18
    1224:	53 07       	cpc	r21, r19
			kc_file_type = BASIC_NO_HEADER; // -> we found a BASIC file ext.
    1226:	09 f0       	breq	.+2      	; 0x122a <check_non_tap_types+0xda>
    1228:	92 c0       	rjmp	.+292    	; 0x134e <check_non_tap_types+0x1fe>
    122a:	10 92 08 01 	sts	0x0108, r1	; 0x800108 <kc_file_type+0x1>
			// Create the BASIC FCB
			start_buf_ptr[0] = c + 0x80; // set the magic 3 letter header (0xd3d3d3, 0xd4d4d4, ...)
    122e:	10 92 07 01 	sts	0x0107, r1	; 0x800107 <kc_file_type>
    1232:	a0 91 0a 01 	lds	r26, 0x010A	; 0x80010a <start_buf_ptr>
    1236:	b0 91 0b 01 	lds	r27, 0x010B	; 0x80010b <start_buf_ptr+0x1>
			start_buf_ptr[1] = c + 0x80;
    123a:	90 58       	subi	r25, 0x80	; 128
    123c:	9c 93       	st	X, r25
    123e:	a0 91 0a 01 	lds	r26, 0x010A	; 0x80010a <start_buf_ptr>
    1242:	b0 91 0b 01 	lds	r27, 0x010B	; 0x80010b <start_buf_ptr+0x1>
			start_buf_ptr[2] = c + 0x80;
    1246:	11 96       	adiw	r26, 0x01	; 1
    1248:	9c 93       	st	X, r25
    124a:	a0 91 0a 01 	lds	r26, 0x010A	; 0x80010a <start_buf_ptr>
    124e:	b0 91 0b 01 	lds	r27, 0x010B	; 0x80010b <start_buf_ptr+0x1>
			// Copy the filename in the header
			for (uint8_t i=0; i < 8; i++) {
    1252:	12 96       	adiw	r26, 0x02	; 2
    1254:	9c 93       	st	X, r25
				if (Finfo->fname + i < (ext - 1)) {
    1256:	20 e0       	ldi	r18, 0x00	; 0
    1258:	23 c0       	rjmp	.+70     	; 0x12a0 <check_non_tap_types+0x150>
    125a:	82 2f       	mov	r24, r18
    125c:	90 e0       	ldi	r25, 0x00	; 0
    125e:	a8 01       	movw	r20, r16
    1260:	48 0f       	add	r20, r24
    1262:	59 1f       	adc	r21, r25
    1264:	4e 17       	cp	r20, r30
					start_buf_ptr[i+3] = Finfo->fname[i];
    1266:	5f 07       	cpc	r21, r31
    1268:	88 f4       	brcc	.+34     	; 0x128c <check_non_tap_types+0x13c>
    126a:	03 96       	adiw	r24, 0x03	; 3
    126c:	a0 91 0a 01 	lds	r26, 0x010A	; 0x80010a <start_buf_ptr>
    1270:	b0 91 0b 01 	lds	r27, 0x010B	; 0x80010b <start_buf_ptr+0x1>
    1274:	ad 01       	movw	r20, r26
    1276:	48 0f       	add	r20, r24
    1278:	59 1f       	adc	r21, r25
    127a:	ce 01       	movw	r24, r28
    127c:	82 0f       	add	r24, r18
    127e:	91 1d       	adc	r25, r1
    1280:	dc 01       	movw	r26, r24
    1282:	19 96       	adiw	r26, 0x09	; 9
    1284:	8c 91       	ld	r24, X
    1286:	da 01       	movw	r26, r20
				}
				else {
					start_buf_ptr[i+3] = 0x20;
    1288:	8c 93       	st	X, r24
    128a:	09 c0       	rjmp	.+18     	; 0x129e <check_non_tap_types+0x14e>
    128c:	03 96       	adiw	r24, 0x03	; 3
    128e:	a0 91 0a 01 	lds	r26, 0x010A	; 0x80010a <start_buf_ptr>
    1292:	b0 91 0b 01 	lds	r27, 0x010B	; 0x80010b <start_buf_ptr+0x1>
    1296:	a8 0f       	add	r26, r24
    1298:	b9 1f       	adc	r27, r25
			// Create the BASIC FCB
			start_buf_ptr[0] = c + 0x80; // set the magic 3 letter header (0xd3d3d3, 0xd4d4d4, ...)
			start_buf_ptr[1] = c + 0x80;
			start_buf_ptr[2] = c + 0x80;
			// Copy the filename in the header
			for (uint8_t i=0; i < 8; i++) {
    129a:	80 e2       	ldi	r24, 0x20	; 32
    129c:	8c 93       	st	X, r24
    129e:	2f 5f       	subi	r18, 0xFF	; 255
				else {
					start_buf_ptr[i+3] = 0x20;
				}
			}
			// reload the file contents after the just created header
			if (disp_fr_err(f_lseek(&fhdl, 0))) {
    12a0:	28 30       	cpi	r18, 0x08	; 8
    12a2:	d8 f2       	brcs	.-74     	; 0x125a <check_non_tap_types+0x10a>
    12a4:	40 e0       	ldi	r20, 0x00	; 0
    12a6:	50 e0       	ldi	r21, 0x00	; 0
    12a8:	ba 01       	movw	r22, r20
    12aa:	8d e6       	ldi	r24, 0x6D	; 109
    12ac:	94 e0       	ldi	r25, 0x04	; 4
    12ae:	0e 94 19 23 	call	0x4632	; 0x4632 <f_lseek>
    12b2:	78 da       	rcall	.-2832   	; 0x7a4 <disp_fr_err>
    12b4:	f8 2e       	mov	r15, r24
				f_close(&fhdl);
    12b6:	88 23       	and	r24, r24
    12b8:	31 f0       	breq	.+12     	; 0x12c6 <check_non_tap_types+0x176>
    12ba:	8d e6       	ldi	r24, 0x6D	; 109
    12bc:	94 e0       	ldi	r25, 0x04	; 4
				return false;
    12be:	0e 94 9d 21 	call	0x433a	; 0x433a <f_close>
			}
			uint8_t bytes_to_read = block_len - BASIC_HEADER_LEN;
    12c2:	dc 2c       	mov	r13, r12
    12c4:	12 c1       	rjmp	.+548    	; 0x14ea <check_non_tap_types+0x39a>
    12c6:	00 91 09 01 	lds	r16, 0x0109	; 0x800109 <block_len>
			if (disp_fr_err(f_read(&fhdl, start_buf_ptr + BASIC_HEADER_LEN, bytes_to_read, &bytes_read))) {
    12ca:	0b 50       	subi	r16, 0x0B	; 11
    12cc:	10 e0       	ldi	r17, 0x00	; 0
    12ce:	60 91 0a 01 	lds	r22, 0x010A	; 0x80010a <start_buf_ptr>
    12d2:	70 91 0b 01 	lds	r23, 0x010B	; 0x80010b <start_buf_ptr+0x1>
    12d6:	65 5f       	subi	r22, 0xF5	; 245
    12d8:	7f 4f       	sbci	r23, 0xFF	; 255
    12da:	29 e0       	ldi	r18, 0x09	; 9
    12dc:	32 e0       	ldi	r19, 0x02	; 2
    12de:	a8 01       	movw	r20, r16
    12e0:	8d e6       	ldi	r24, 0x6D	; 109
    12e2:	94 e0       	ldi	r25, 0x04	; 4
    12e4:	0e 94 e4 1d 	call	0x3bc8	; 0x3bc8 <f_read>
    12e8:	5d da       	rcall	.-2886   	; 0x7a4 <disp_fr_err>
    12ea:	e8 2e       	mov	r14, r24
				f_close(&fhdl);
    12ec:	88 23       	and	r24, r24
    12ee:	31 f0       	breq	.+12     	; 0x12fc <check_non_tap_types+0x1ac>
    12f0:	8d e6       	ldi	r24, 0x6D	; 109
    12f2:	94 e0       	ldi	r25, 0x04	; 4
				return false;
    12f4:	0e 94 9d 21 	call	0x433a	; 0x433a <f_close>
			}
			if (bytes_read != bytes_to_read) {
    12f8:	df 2c       	mov	r13, r15
    12fa:	f7 c0       	rjmp	.+494    	; 0x14ea <check_non_tap_types+0x39a>
    12fc:	80 91 09 02 	lds	r24, 0x0209	; 0x800209 <bytes_read>
    1300:	90 91 0a 02 	lds	r25, 0x020A	; 0x80020a <bytes_read+0x1>
				disp_err("ERROR:","Blk too short!");
    1304:	08 17       	cp	r16, r24
    1306:	19 07       	cpc	r17, r25
    1308:	39 f0       	breq	.+14     	; 0x1318 <check_non_tap_types+0x1c8>
    130a:	60 e9       	ldi	r22, 0x90	; 144
    130c:	71 e0       	ldi	r23, 0x01	; 1
    130e:	8f e9       	ldi	r24, 0x9F	; 159
				return false;
    1310:	91 e0       	ldi	r25, 0x01	; 1
    1312:	7e db       	rcall	.-2308   	; 0xa10 <disp_err>
			}
			number_of_blocks = (uint8_t)((Finfo->fsize + BASIC_HEADER_LEN) / block_len);
    1314:	de 2c       	mov	r13, r14
    1316:	e9 c0       	rjmp	.+466    	; 0x14ea <check_non_tap_types+0x39a>
    1318:	88 81       	ld	r24, Y
    131a:	99 81       	ldd	r25, Y+1	; 0x01
    131c:	aa 81       	ldd	r26, Y+2	; 0x02
    131e:	bb 81       	ldd	r27, Y+3	; 0x03
    1320:	bc 01       	movw	r22, r24
    1322:	cd 01       	movw	r24, r26
    1324:	65 5f       	subi	r22, 0xF5	; 245
    1326:	7f 4f       	sbci	r23, 0xFF	; 255
    1328:	8f 4f       	sbci	r24, 0xFF	; 255
    132a:	9f 4f       	sbci	r25, 0xFF	; 255
    132c:	c0 91 09 01 	lds	r28, 0x0109	; 0x800109 <block_len>
    1330:	2c 2f       	mov	r18, r28
    1332:	30 e0       	ldi	r19, 0x00	; 0
    1334:	40 e0       	ldi	r20, 0x00	; 0
    1336:	50 e0       	ldi	r21, 0x00	; 0
    1338:	0e 94 90 2c 	call	0x5920	; 0x5920 <__udivmodsi4>
			if (HAS_NO_BLOCKNR) {
    133c:	20 93 08 02 	sts	0x0208, r18	; 0x800208 <number_of_blocks>
    1340:	c0 38       	cpi	r28, 0x80	; 128
				buf[0] = 1; // BASIC files start with block #1
    1342:	09 f0       	breq	.+2      	; 0x1346 <check_non_tap_types+0x1f6>
    1344:	d2 c0       	rjmp	.+420    	; 0x14ea <check_non_tap_types+0x39a>
    1346:	81 e0       	ldi	r24, 0x01	; 1
    1348:	80 93 b9 04 	sts	0x04B9, r24	; 0x8004b9 <buf>
		return true;
	}

	// check the file extension if it is of BASIC type ('SSS','TTT',...)
	char* ext = strchr(Finfo->fname,'.') + 1;
	for (uint8_t c = 0x53; c <= 0x59; c++) { // stepping through from 'S' to 'Y'
    134c:	ce c0       	rjmp	.+412    	; 0x14ea <check_non_tap_types+0x39a>
    134e:	9f 5f       	subi	r25, 0xFF	; 255
    1350:	9a 35       	cpi	r25, 0x5A	; 90
			}
			return true;
		}
	}

	if (HAS_NO_BLOCKNR) {
    1352:	08 f4       	brcc	.+2      	; 0x1356 <check_non_tap_types+0x206>
    1354:	50 cf       	rjmp	.-352    	; 0x11f6 <check_non_tap_types+0xa6>
    1356:	20 91 09 01 	lds	r18, 0x0109	; 0x800109 <block_len>
		buf[0] = 0; // initialize the blocknr if not provided
    135a:	20 38       	cpi	r18, 0x80	; 128
    135c:	11 f4       	brne	.+4      	; 0x1362 <check_non_tap_types+0x212>
	}
	
	// No BASIC FCB and no BASIC extension, now check for MC header
	KC_FCB_MC* fcb_mc = (KC_FCB_MC*) (buf + 1);
	kc_file_type = MACHINE_CODE;
    135e:	10 92 b9 04 	sts	0x04B9, r1	; 0x8004b9 <buf>
    1362:	82 e0       	ldi	r24, 0x02	; 2
    1364:	90 e0       	ldi	r25, 0x00	; 0
    1366:	90 93 08 01 	sts	0x0108, r25	; 0x800108 <kc_file_type+0x1>
	for (uint8_t i=0; i<8; i++) {
    136a:	80 93 07 01 	sts	0x0107, r24	; 0x800107 <kc_file_type>
		if ((fcb_mc->dateiname[i] < 0x21 || fcb_mc->dateiname[i] > 0x7f) && fcb_mc->dateiname[i] != 0) {
    136e:	80 e0       	ldi	r24, 0x00	; 0
    1370:	41 c0       	rjmp	.+130    	; 0x13f4 <check_non_tap_types+0x2a4>
    1372:	e8 2f       	mov	r30, r24
    1374:	f0 e0       	ldi	r31, 0x00	; 0
    1376:	e7 54       	subi	r30, 0x47	; 71
    1378:	fb 4f       	sbci	r31, 0xFB	; 251
    137a:	91 81       	ldd	r25, Z+1	; 0x01
    137c:	91 32       	cpi	r25, 0x21	; 33
    137e:	4c f4       	brge	.+18     	; 0x1392 <check_non_tap_types+0x242>
			// found unprintable character -> cannot be a real fcb
			kc_file_type = RAW;
    1380:	99 23       	and	r25, r25
    1382:	39 f0       	breq	.+14     	; 0x1392 <check_non_tap_types+0x242>
    1384:	83 e0       	ldi	r24, 0x03	; 3
    1386:	90 e0       	ldi	r25, 0x00	; 0
    1388:	90 93 08 01 	sts	0x0108, r25	; 0x800108 <kc_file_type+0x1>
			break;
    138c:	80 93 07 01 	sts	0x0107, r24	; 0x800107 <kc_file_type>
		}
		if (kc_file_type == MACHINE_CODE) {
    1390:	34 c0       	rjmp	.+104    	; 0x13fa <check_non_tap_types+0x2aa>
    1392:	60 91 07 01 	lds	r22, 0x0107	; 0x800107 <kc_file_type>
    1396:	70 91 08 01 	lds	r23, 0x0108	; 0x800108 <kc_file_type+0x1>
    139a:	62 30       	cpi	r22, 0x02	; 2
    139c:	71 05       	cpc	r23, r1
			// Filename is ok, now we check the file extension
			for (uint8_t i=0; i<3; i++) {
				if ((fcb_mc->dateityp[i] < 0x21 || fcb_mc->dateityp[i] > 0x7f) && fcb_mc->dateityp[i] != 0) {
    139e:	49 f5       	brne	.+82     	; 0x13f2 <check_non_tap_types+0x2a2>
    13a0:	12 c0       	rjmp	.+36     	; 0x13c6 <check_non_tap_types+0x276>
    13a2:	e9 2f       	mov	r30, r25
    13a4:	f0 e0       	ldi	r31, 0x00	; 0
    13a6:	e7 54       	subi	r30, 0x47	; 71
    13a8:	fb 4f       	sbci	r31, 0xFB	; 251
    13aa:	31 85       	ldd	r19, Z+9	; 0x09
    13ac:	31 32       	cpi	r19, 0x21	; 33
    13ae:	4c f4       	brge	.+18     	; 0x13c2 <check_non_tap_types+0x272>
					// found unprintable character -> cannot be a real fcb
					kc_file_type = RAW;
    13b0:	33 23       	and	r19, r19
    13b2:	39 f0       	breq	.+14     	; 0x13c2 <check_non_tap_types+0x272>
    13b4:	63 e0       	ldi	r22, 0x03	; 3
    13b6:	70 e0       	ldi	r23, 0x00	; 0
    13b8:	70 93 08 01 	sts	0x0108, r23	; 0x800108 <kc_file_type+0x1>
					break;
    13bc:	60 93 07 01 	sts	0x0107, r22	; 0x800107 <kc_file_type>
			kc_file_type = RAW;
			break;
		}
		if (kc_file_type == MACHINE_CODE) {
			// Filename is ok, now we check the file extension
			for (uint8_t i=0; i<3; i++) {
    13c0:	05 c0       	rjmp	.+10     	; 0x13cc <check_non_tap_types+0x27c>
    13c2:	9f 5f       	subi	r25, 0xFF	; 255
    13c4:	01 c0       	rjmp	.+2      	; 0x13c8 <check_non_tap_types+0x278>
    13c6:	90 e0       	ldi	r25, 0x00	; 0
					// found unprintable character -> cannot be a real fcb
					kc_file_type = RAW;
					break;
				}
			}
			if (kc_file_type == MACHINE_CODE) {
    13c8:	93 30       	cpi	r25, 0x03	; 3
    13ca:	58 f3       	brcs	.-42     	; 0x13a2 <check_non_tap_types+0x252>
    13cc:	60 91 07 01 	lds	r22, 0x0107	; 0x800107 <kc_file_type>
    13d0:	70 91 08 01 	lds	r23, 0x0108	; 0x800108 <kc_file_type+0x1>
    13d4:	62 30       	cpi	r22, 0x02	; 2
				// now we're as sure as possible that we have MACHINE_CODE
				number_of_blocks = (uint8_t)(Finfo->fsize / block_len);
    13d6:	71 05       	cpc	r23, r1
    13d8:	61 f4       	brne	.+24     	; 0x13f2 <check_non_tap_types+0x2a2>
    13da:	68 81       	ld	r22, Y
    13dc:	79 81       	ldd	r23, Y+1	; 0x01
    13de:	8a 81       	ldd	r24, Y+2	; 0x02
    13e0:	9b 81       	ldd	r25, Y+3	; 0x03
    13e2:	30 e0       	ldi	r19, 0x00	; 0
    13e4:	40 e0       	ldi	r20, 0x00	; 0
    13e6:	50 e0       	ldi	r21, 0x00	; 0
    13e8:	0e 94 90 2c 	call	0x5920	; 0x5920 <__udivmodsi4>
				return true;
    13ec:	20 93 08 02 	sts	0x0208, r18	; 0x800208 <number_of_blocks>
	}
	
	// No BASIC FCB and no BASIC extension, now check for MC header
	KC_FCB_MC* fcb_mc = (KC_FCB_MC*) (buf + 1);
	kc_file_type = MACHINE_CODE;
	for (uint8_t i=0; i<8; i++) {
    13f0:	7c c0       	rjmp	.+248    	; 0x14ea <check_non_tap_types+0x39a>
    13f2:	8f 5f       	subi	r24, 0xFF	; 255
    13f4:	88 30       	cpi	r24, 0x08	; 8
			}
		}
	}

	// it is RAW, we have to create a FCB
	memset(start_buf_ptr,0x0,block_len);
    13f6:	08 f4       	brcc	.+2      	; 0x13fa <check_non_tap_types+0x2aa>
    13f8:	bc cf       	rjmp	.-136    	; 0x1372 <check_non_tap_types+0x222>
    13fa:	42 2f       	mov	r20, r18
    13fc:	50 e0       	ldi	r21, 0x00	; 0
    13fe:	60 e0       	ldi	r22, 0x00	; 0
    1400:	70 e0       	ldi	r23, 0x00	; 0
    1402:	80 91 0a 01 	lds	r24, 0x010A	; 0x80010a <start_buf_ptr>
    1406:	90 91 0b 01 	lds	r25, 0x010B	; 0x80010b <start_buf_ptr+0x1>
	// we reuse the fcb_mc pointer created earlier
	for (uint8_t i=0; i<8; i++) {
    140a:	0e 94 df 2c 	call	0x59be	; 0x59be <memset>
		if (Finfo->fname + i < ext)
    140e:	80 e0       	ldi	r24, 0x00	; 0
    1410:	18 c0       	rjmp	.+48     	; 0x1442 <check_non_tap_types+0x2f2>
    1412:	98 01       	movw	r18, r16
    1414:	28 0f       	add	r18, r24
    1416:	31 1d       	adc	r19, r1
    1418:	2e 15       	cp	r18, r14
		fcb_mc->dateiname[i] = Finfo->fname[i];
    141a:	3f 05       	cpc	r19, r15
    141c:	58 f4       	brcc	.+22     	; 0x1434 <check_non_tap_types+0x2e4>
    141e:	28 2f       	mov	r18, r24
    1420:	30 e0       	ldi	r19, 0x00	; 0
    1422:	fe 01       	movw	r30, r28
    1424:	e2 0f       	add	r30, r18
    1426:	f3 1f       	adc	r31, r19
    1428:	91 85       	ldd	r25, Z+9	; 0x09
    142a:	f9 01       	movw	r30, r18
    142c:	e7 54       	subi	r30, 0x47	; 71
    142e:	fb 4f       	sbci	r31, 0xFB	; 251
		else
		fcb_mc->dateiname[i] = 0x20;
    1430:	91 83       	std	Z+1, r25	; 0x01
    1432:	06 c0       	rjmp	.+12     	; 0x1440 <check_non_tap_types+0x2f0>
    1434:	e8 2f       	mov	r30, r24
    1436:	f0 e0       	ldi	r31, 0x00	; 0
    1438:	e7 54       	subi	r30, 0x47	; 71
    143a:	fb 4f       	sbci	r31, 0xFB	; 251
	}

	// it is RAW, we have to create a FCB
	memset(start_buf_ptr,0x0,block_len);
	// we reuse the fcb_mc pointer created earlier
	for (uint8_t i=0; i<8; i++) {
    143c:	90 e2       	ldi	r25, 0x20	; 32
    143e:	91 83       	std	Z+1, r25	; 0x01
    1440:	8f 5f       	subi	r24, 0xFF	; 255
    1442:	88 30       	cpi	r24, 0x08	; 8
    1444:	30 f3       	brcs	.-52     	; 0x1412 <check_non_tap_types+0x2c2>
    1446:	80 e0       	ldi	r24, 0x00	; 0
		else
		fcb_mc->dateiname[i] = 0x20;
	}
	bool end_reached = false;
	for (uint8_t i=0; i<3; i++) {
		if (!end_reached && ext[i+1])
    1448:	90 e0       	ldi	r25, 0x00	; 0
    144a:	18 c0       	rjmp	.+48     	; 0x147c <check_non_tap_types+0x32c>
    144c:	91 11       	cpse	r25, r1
    144e:	0e c0       	rjmp	.+28     	; 0x146c <check_non_tap_types+0x31c>
    1450:	e8 2f       	mov	r30, r24
    1452:	f0 e0       	ldi	r31, 0x00	; 0
    1454:	31 96       	adiw	r30, 0x01	; 1
    1456:	ee 0d       	add	r30, r14
    1458:	ff 1d       	adc	r31, r15
    145a:	20 81       	ld	r18, Z
		fcb_mc->dateityp[i] = ext[i+1];
    145c:	22 23       	and	r18, r18
    145e:	31 f0       	breq	.+12     	; 0x146c <check_non_tap_types+0x31c>
    1460:	e8 2f       	mov	r30, r24
    1462:	f0 e0       	ldi	r31, 0x00	; 0
    1464:	e7 54       	subi	r30, 0x47	; 71
    1466:	fb 4f       	sbci	r31, 0xFB	; 251
		else
		{
			end_reached=true;
			fcb_mc->dateiname[i] = 0x20;
    1468:	21 87       	std	Z+9, r18	; 0x09
    146a:	07 c0       	rjmp	.+14     	; 0x147a <check_non_tap_types+0x32a>
    146c:	e8 2f       	mov	r30, r24
    146e:	f0 e0       	ldi	r31, 0x00	; 0
    1470:	e7 54       	subi	r30, 0x47	; 71
    1472:	fb 4f       	sbci	r31, 0xFB	; 251
	for (uint8_t i=0; i<3; i++) {
		if (!end_reached && ext[i+1])
		fcb_mc->dateityp[i] = ext[i+1];
		else
		{
			end_reached=true;
    1474:	90 e2       	ldi	r25, 0x20	; 32
		fcb_mc->dateiname[i] = Finfo->fname[i];
		else
		fcb_mc->dateiname[i] = 0x20;
	}
	bool end_reached = false;
	for (uint8_t i=0; i<3; i++) {
    1476:	91 83       	std	Z+1, r25	; 0x01
    1478:	91 e0       	ldi	r25, 0x01	; 1
    147a:	8f 5f       	subi	r24, 0xFF	; 255
		{
			end_reached=true;
			fcb_mc->dateiname[i] = 0x20;
		}
	}
	fcb_mc->aadr = 0x300;
    147c:	83 30       	cpi	r24, 0x03	; 3
    147e:	30 f3       	brcs	.-52     	; 0x144c <check_non_tap_types+0x2fc>
    1480:	80 e0       	ldi	r24, 0x00	; 0
    1482:	93 e0       	ldi	r25, 0x03	; 3
    1484:	90 93 cc 04 	sts	0x04CC, r25	; 0x8004cc <buf+0x13>
	number_of_blocks = (uint8_t)((Finfo->fsize / block_len) + 1);
    1488:	80 93 cb 04 	sts	0x04CB, r24	; 0x8004cb <buf+0x12>
    148c:	68 81       	ld	r22, Y
    148e:	79 81       	ldd	r23, Y+1	; 0x01
    1490:	8a 81       	ldd	r24, Y+2	; 0x02
    1492:	9b 81       	ldd	r25, Y+3	; 0x03
    1494:	10 91 09 01 	lds	r17, 0x0109	; 0x800109 <block_len>
    1498:	21 2f       	mov	r18, r17
    149a:	30 e0       	ldi	r19, 0x00	; 0
    149c:	40 e0       	ldi	r20, 0x00	; 0
    149e:	50 e0       	ldi	r21, 0x00	; 0
    14a0:	0e 94 90 2c 	call	0x5920	; 0x5920 <__udivmodsi4>
    14a4:	2f 5f       	subi	r18, 0xFF	; 255
	if (HAS_NO_BLOCKNR) {
    14a6:	20 93 08 02 	sts	0x0208, r18	; 0x800208 <number_of_blocks>
		fcb_mc->eadr = 0x300 + Finfo->fsize;
    14aa:	10 38       	cpi	r17, 0x80	; 128
    14ac:	51 f4       	brne	.+20     	; 0x14c2 <check_non_tap_types+0x372>
    14ae:	88 81       	ld	r24, Y
    14b0:	99 81       	ldd	r25, Y+1	; 0x01
    14b2:	aa 81       	ldd	r26, Y+2	; 0x02
    14b4:	bb 81       	ldd	r27, Y+3	; 0x03
    14b6:	9d 5f       	subi	r25, 0xFD	; 253
    14b8:	90 93 ce 04 	sts	0x04CE, r25	; 0x8004ce <buf+0x15>
    14bc:	80 93 cd 04 	sts	0x04CD, r24	; 0x8004cd <buf+0x14>
	}
	else {
		fcb_mc->eadr = 0x300 + (Finfo->fsize - number_of_blocks);
    14c0:	0c c0       	rjmp	.+24     	; 0x14da <check_non_tap_types+0x38a>
    14c2:	88 81       	ld	r24, Y
    14c4:	99 81       	ldd	r25, Y+1	; 0x01
    14c6:	aa 81       	ldd	r26, Y+2	; 0x02
    14c8:	bb 81       	ldd	r27, Y+3	; 0x03
    14ca:	30 e0       	ldi	r19, 0x00	; 0
    14cc:	82 1b       	sub	r24, r18
    14ce:	93 0b       	sbc	r25, r19
    14d0:	9d 5f       	subi	r25, 0xFD	; 253
    14d2:	90 93 ce 04 	sts	0x04CE, r25	; 0x8004ce <buf+0x15>
	}
	fcb_mc->sadr = 0xffff;
    14d6:	80 93 cd 04 	sts	0x04CD, r24	; 0x8004cd <buf+0x14>
    14da:	8f ef       	ldi	r24, 0xFF	; 255
    14dc:	9f ef       	ldi	r25, 0xFF	; 255
    14de:	90 93 d0 04 	sts	0x04D0, r25	; 0x8004d0 <buf+0x17>

	return true;
    14e2:	80 93 cf 04 	sts	0x04CF, r24	; 0x8004cf <buf+0x16>
}
    14e6:	01 c0       	rjmp	.+2      	; 0x14ea <check_non_tap_types+0x39a>
    14e8:	dc 2c       	mov	r13, r12
    14ea:	8d 2d       	mov	r24, r13
    14ec:	df 91       	pop	r29
    14ee:	cf 91       	pop	r28
    14f0:	1f 91       	pop	r17
    14f2:	0f 91       	pop	r16
    14f4:	ff 90       	pop	r15
    14f6:	ef 90       	pop	r14
    14f8:	df 90       	pop	r13
    14fa:	cf 90       	pop	r12
    14fc:	08 95       	ret

000014fe <load_first_block_and_check_type>:
		}
	}
	return true;
}

static bool load_first_block_and_check_type(FILINFO* Finfo) {
    14fe:	1f 93       	push	r17
    1500:	cf 93       	push	r28
    1502:	df 93       	push	r29
    1504:	ec 01       	movw	r28, r24
	block_len = 129;
    1506:	81 e8       	ldi	r24, 0x81	; 129
    1508:	80 93 09 01 	sts	0x0109, r24	; 0x800109 <block_len>
	start_buf_ptr = buf;
    150c:	89 eb       	ldi	r24, 0xB9	; 185
    150e:	94 e0       	ldi	r25, 0x04	; 4
    1510:	90 93 0b 01 	sts	0x010B, r25	; 0x80010b <start_buf_ptr+0x1>
    1514:	80 93 0a 01 	sts	0x010A, r24	; 0x80010a <start_buf_ptr>
	if (Finfo->fsize < 128) { // file too short -> we don't even care to look further
    1518:	88 81       	ld	r24, Y
    151a:	99 81       	ldd	r25, Y+1	; 0x01
    151c:	aa 81       	ldd	r26, Y+2	; 0x02
    151e:	bb 81       	ldd	r27, Y+3	; 0x03
    1520:	80 38       	cpi	r24, 0x80	; 128
    1522:	91 05       	cpc	r25, r1
    1524:	a1 05       	cpc	r26, r1
    1526:	b1 05       	cpc	r27, r1
    1528:	88 f5       	brcc	.+98     	; 0x158c <load_first_block_and_check_type+0x8e>
		lcd_clrscr();
    152a:	0e 94 3d 2c 	call	0x587a	; 0x587a <lcd_clrscr>
		xprintf(PSTR("ERR:%s"),Finfo->fname);
    152e:	ce 01       	movw	r24, r28
    1530:	09 96       	adiw	r24, 0x09	; 9
    1532:	9f 93       	push	r25
    1534:	8f 93       	push	r24
    1536:	8e e3       	ldi	r24, 0x3E	; 62
    1538:	92 e0       	ldi	r25, 0x02	; 2
    153a:	9f 93       	push	r25
    153c:	8f 93       	push	r24
    153e:	0e 94 eb 01 	call	0x3d6	; 0x3d6 <xprintf>
		lcd_gotoxy(0,1);
    1542:	61 e0       	ldi	r22, 0x01	; 1
    1544:	80 e0       	ldi	r24, 0x00	; 0
    1546:	0e 94 35 2c 	call	0x586a	; 0x586a <lcd_gotoxy>
		xprintf(PSTR("Too short:%ub"),Finfo->fsize);
    154a:	8b 81       	ldd	r24, Y+3	; 0x03
    154c:	8f 93       	push	r24
    154e:	8a 81       	ldd	r24, Y+2	; 0x02
    1550:	8f 93       	push	r24
    1552:	89 81       	ldd	r24, Y+1	; 0x01
    1554:	8f 93       	push	r24
    1556:	88 81       	ld	r24, Y
    1558:	8f 93       	push	r24
    155a:	80 e3       	ldi	r24, 0x30	; 48
    155c:	92 e0       	ldi	r25, 0x02	; 2
    155e:	9f 93       	push	r25
    1560:	8f 93       	push	r24
    1562:	0e 94 eb 01 	call	0x3d6	; 0x3d6 <xprintf>
    1566:	2f ef       	ldi	r18, 0xFF	; 255
    1568:	81 e1       	ldi	r24, 0x11	; 17
    156a:	9a e7       	ldi	r25, 0x7A	; 122
    156c:	21 50       	subi	r18, 0x01	; 1
    156e:	80 40       	sbci	r24, 0x00	; 0
    1570:	90 40       	sbci	r25, 0x00	; 0
    1572:	e1 f7       	brne	.-8      	; 0x156c <load_first_block_and_check_type+0x6e>
    1574:	00 c0       	rjmp	.+0      	; 0x1576 <load_first_block_and_check_type+0x78>
    1576:	00 00       	nop
		_delay_ms(ERROR_DISP_MILLIS);
		return false;
    1578:	8d b7       	in	r24, 0x3d	; 61
    157a:	9e b7       	in	r25, 0x3e	; 62
    157c:	0a 96       	adiw	r24, 0x0a	; 10
    157e:	0f b6       	in	r0, 0x3f	; 63
    1580:	f8 94       	cli
    1582:	9e bf       	out	0x3e, r25	; 62
    1584:	0f be       	out	0x3f, r0	; 63
    1586:	8d bf       	out	0x3d, r24	; 61
    1588:	10 e0       	ldi	r17, 0x00	; 0
    158a:	37 c0       	rjmp	.+110    	; 0x15fa <load_first_block_and_check_type+0xfc>
	}
	if (disp_fr_err(f_open(&fhdl, Finfo->fname, FA_READ | FA_OPEN_EXISTING))) {
    158c:	41 e0       	ldi	r20, 0x01	; 1
    158e:	be 01       	movw	r22, r28
    1590:	67 5f       	subi	r22, 0xF7	; 247
    1592:	7f 4f       	sbci	r23, 0xFF	; 255
    1594:	8d e6       	ldi	r24, 0x6D	; 109
    1596:	94 e0       	ldi	r25, 0x04	; 4
    1598:	0e 94 38 1c 	call	0x3870	; 0x3870 <f_open>
    159c:	03 d9       	rcall	.-3578   	; 0x7a4 <disp_fr_err>
    159e:	18 2f       	mov	r17, r24
    15a0:	88 23       	and	r24, r24
    15a2:	31 f0       	breq	.+12     	; 0x15b0 <load_first_block_and_check_type+0xb2>
		f_close(&fhdl);
    15a4:	8d e6       	ldi	r24, 0x6D	; 109
    15a6:	94 e0       	ldi	r25, 0x04	; 4
    15a8:	0e 94 9d 21 	call	0x433a	; 0x433a <f_close>
		return false;
    15ac:	10 e0       	ldi	r17, 0x00	; 0
    15ae:	25 c0       	rjmp	.+74     	; 0x15fa <load_first_block_and_check_type+0xfc>
	}
	// load first TAP_HEADER_LEN to check for TAP header
	if (disp_fr_err(f_read(&fhdl, buf, TAP_HEADER_LEN, &bytes_read))) {
    15b0:	29 e0       	ldi	r18, 0x09	; 9
    15b2:	32 e0       	ldi	r19, 0x02	; 2
    15b4:	40 e1       	ldi	r20, 0x10	; 16
    15b6:	50 e0       	ldi	r21, 0x00	; 0
    15b8:	69 eb       	ldi	r22, 0xB9	; 185
    15ba:	74 e0       	ldi	r23, 0x04	; 4
    15bc:	8d e6       	ldi	r24, 0x6D	; 109
    15be:	94 e0       	ldi	r25, 0x04	; 4
    15c0:	0e 94 e4 1d 	call	0x3bc8	; 0x3bc8 <f_read>
    15c4:	ef d8       	rcall	.-3618   	; 0x7a4 <disp_fr_err>
    15c6:	88 23       	and	r24, r24
    15c8:	29 f0       	breq	.+10     	; 0x15d4 <load_first_block_and_check_type+0xd6>
		f_close(&fhdl);
    15ca:	8d e6       	ldi	r24, 0x6D	; 109
    15cc:	94 e0       	ldi	r25, 0x04	; 4
    15ce:	0e 94 9d 21 	call	0x433a	; 0x433a <f_close>
		return false;
    15d2:	13 c0       	rjmp	.+38     	; 0x15fa <load_first_block_and_check_type+0xfc>
	}

	if (strncmp_P((char*)buf,tap_header_str,bytes_read)) {
    15d4:	40 91 09 02 	lds	r20, 0x0209	; 0x800209 <bytes_read>
    15d8:	50 91 0a 02 	lds	r21, 0x020A	; 0x80020a <bytes_read+0x1>
    15dc:	6f e1       	ldi	r22, 0x1F	; 31
    15de:	72 e0       	ldi	r23, 0x02	; 2
    15e0:	89 eb       	ldi	r24, 0xB9	; 185
    15e2:	94 e0       	ldi	r25, 0x04	; 4
    15e4:	0e 94 d1 2c 	call	0x59a2	; 0x59a2 <strncmp_P>
    15e8:	89 2b       	or	r24, r25
		return check_non_tap_types(Finfo);
    15ea:	21 f0       	breq	.+8      	; 0x15f4 <load_first_block_and_check_type+0xf6>
    15ec:	ce 01       	movw	r24, r28
    15ee:	b0 dd       	rcall	.-1184   	; 0x1150 <check_non_tap_types>
    15f0:	18 2f       	mov	r17, r24
	}
	else {
		return check_tap_types(Finfo);
    15f2:	03 c0       	rjmp	.+6      	; 0x15fa <load_first_block_and_check_type+0xfc>
    15f4:	ce 01       	movw	r24, r28
    15f6:	1d dd       	rcall	.-1478   	; 0x1032 <check_tap_types>
    15f8:	18 2f       	mov	r17, r24
	}
	return true;
}
    15fa:	81 2f       	mov	r24, r17
    15fc:	df 91       	pop	r29
    15fe:	cf 91       	pop	r28
    1600:	1f 91       	pop	r17
    1602:	08 95       	ret

00001604 <__vector_14>:
	TIMSK0 = _BV(OCIE0A); // allow OCA interrupt generation
	// timer is started with the next command!
	TCCR0B = _BV(CS01)|_BV(CS00); // 64 prescaler -> 125000Hz, 8s/tick for F_CPU=8MHz
}

ISR(TIMER0_COMPA_vect) {
    1604:	1f 92       	push	r1
    1606:	0f 92       	push	r0
    1608:	0f b6       	in	r0, 0x3f	; 63
    160a:	0f 92       	push	r0
    160c:	11 24       	eor	r1, r1
    160e:	8f 93       	push	r24
    1610:	9f 93       	push	r25
	#ifdef DEBUG_TIMER
	MONITOR_PORT |= _BV(MONITOR_BIT);
	#endif
	switch(send_state) {
    1612:	80 91 0b 02 	lds	r24, 0x020B	; 0x80020b <send_state>
    1616:	90 91 0c 02 	lds	r25, 0x020C	; 0x80020c <send_state+0x1>
    161a:	81 30       	cpi	r24, 0x01	; 1
    161c:	91 05       	cpc	r25, r1
    161e:	21 f0       	breq	.+8      	; 0x1628 <__vector_14+0x24>
    1620:	68 f0       	brcs	.+26     	; 0x163c <__vector_14+0x38>
    1622:	02 97       	sbiw	r24, 0x02	; 2
    1624:	99 f4       	brne	.+38     	; 0x164c <__vector_14+0x48>
    1626:	0a c0       	rjmp	.+20     	; 0x163c <__vector_14+0x38>
		case FIRST_HALF:
			CASS_OUT_PORT &= ~(_BV(CASS_OUT_PIN));
    1628:	8b b1       	in	r24, 0x0b	; 11
    162a:	8d 7f       	andi	r24, 0xFD	; 253
    162c:	8b b9       	out	0x0b, r24	; 11
			send_state = SECOND_HALF;
    162e:	82 e0       	ldi	r24, 0x02	; 2
    1630:	90 e0       	ldi	r25, 0x00	; 0
    1632:	90 93 0c 02 	sts	0x020C, r25	; 0x80020c <send_state+0x1>
    1636:	80 93 0b 02 	sts	0x020B, r24	; 0x80020b <send_state>
			break;
    163a:	08 c0       	rjmp	.+16     	; 0x164c <__vector_14+0x48>
		case SECOND_HALF:
		case DONE:
			send_state = DONE;
    163c:	10 92 0c 02 	sts	0x020C, r1	; 0x80020c <send_state+0x1>
    1640:	10 92 0b 02 	sts	0x020B, r1	; 0x80020b <send_state>
			TCCR0B = 0; // stop timer
    1644:	15 bc       	out	0x25, r1	; 37
			TCNT0 = 0;
    1646:	16 bc       	out	0x26, r1	; 38
			TIMSK0 = 0; //disallow Timer0 interrupts
    1648:	10 92 6e 00 	sts	0x006E, r1	; 0x80006e <__TEXT_REGION_LENGTH__+0x7e006e>
			break;
	}
	#ifdef DEBUG_TIMER
	MONITOR_PORT &= ~_BV(MONITOR_BIT);
	#endif
}
    164c:	9f 91       	pop	r25
    164e:	8f 91       	pop	r24
    1650:	0f 90       	pop	r0
    1652:	0f be       	out	0x3f, r0	; 63
    1654:	0f 90       	pop	r0
    1656:	1f 90       	pop	r1
    1658:	18 95       	reti

0000165a <kc_cass_send_file_init>:

void kc_cass_send_file_init() {
	CASS_OUT_DDR |= _BV(CASS_OUT_PIN); // Configure output pin as OUTPUT
    165a:	8a b1       	in	r24, 0x0a	; 10
    165c:	82 60       	ori	r24, 0x02	; 2
    165e:	8a b9       	out	0x0a, r24	; 10
	CASS_OUT_PORT &= ~(_BV(CASS_OUT_PIN)); // Initialize output pin to LOW
    1660:	8b b1       	in	r24, 0x0b	; 11
    1662:	8d 7f       	andi	r24, 0xFD	; 253
    1664:	8b b9       	out	0x0b, r24	; 11
    1666:	08 95       	ret

00001668 <send_file>:
		return check_tap_types(Finfo);
	}
	return true;
}

void send_file(FILINFO* Finfo) {
    1668:	ff 92       	push	r15
    166a:	0f 93       	push	r16
    166c:	1f 93       	push	r17
    166e:	cf 93       	push	r28
    1670:	df 93       	push	r29
    1672:	ec 01       	movw	r28, r24
	select_key_pressed = false;
    1674:	10 92 15 02 	sts	0x0215, r1	; 0x800215 <select_key_pressed>
	uint8_t current_block = 1;
	if (load_first_block_and_check_type(Finfo)) {
    1678:	42 df       	rcall	.-380    	; 0x14fe <load_first_block_and_check_type>
    167a:	88 23       	and	r24, r24
    167c:	09 f4       	brne	.+2      	; 0x1680 <send_file+0x18>
		
		display_sendinfo(Finfo->fname,block_len,number_of_blocks,kc_file_type);
    167e:	b7 c0       	rjmp	.+366    	; 0x17ee <send_file+0x186>
    1680:	20 91 07 01 	lds	r18, 0x0107	; 0x800107 <kc_file_type>
    1684:	30 91 08 01 	lds	r19, 0x0108	; 0x800108 <kc_file_type+0x1>
    1688:	40 91 08 02 	lds	r20, 0x0208	; 0x800208 <number_of_blocks>
    168c:	60 91 09 01 	lds	r22, 0x0109	; 0x800109 <block_len>
    1690:	ce 01       	movw	r24, r28
	return true;
}

void send_file(FILINFO* Finfo) {
	select_key_pressed = false;
	uint8_t current_block = 1;
    1692:	09 96       	adiw	r24, 0x09	; 9
	if (load_first_block_and_check_type(Finfo)) {
		
		display_sendinfo(Finfo->fname,block_len,number_of_blocks,kc_file_type);

		while(1) {
			buf[129] = calculate_checksum();
    1694:	fa d8       	rcall	.-3596   	; 0x88a <display_sendinfo>
    1696:	ff 24       	eor	r15, r15
    1698:	f3 94       	inc	r15
    169a:	ea d9       	rcall	.-3116   	; 0xa70 <calculate_checksum>

			// Send "Vorton"
			int num_vorton = VORTON_BLOCK;
			if (current_block == 1) {
    169c:	80 93 3a 05 	sts	0x053A, r24	; 0x80053a <buf+0x81>
    16a0:	81 e0       	ldi	r24, 0x01	; 1
				num_vorton = VORTON_BEGIN;
			} else if (current_block == number_of_blocks) {
    16a2:	f8 16       	cp	r15, r24
    16a4:	39 f0       	breq	.+14     	; 0x16b4 <send_file+0x4c>
    16a6:	80 91 08 02 	lds	r24, 0x0208	; 0x800208 <number_of_blocks>

		while(1) {
			buf[129] = calculate_checksum();

			// Send "Vorton"
			int num_vorton = VORTON_BLOCK;
    16aa:	f8 16       	cp	r15, r24
    16ac:	31 f0       	breq	.+12     	; 0x16ba <send_file+0x52>
    16ae:	00 ea       	ldi	r16, 0xA0	; 160
			if (current_block == 1) {
				num_vorton = VORTON_BEGIN;
    16b0:	10 e0       	ldi	r17, 0x00	; 0
    16b2:	05 c0       	rjmp	.+10     	; 0x16be <send_file+0x56>
    16b4:	00 e7       	ldi	r16, 0x70	; 112
			} else if (current_block == number_of_blocks) {
				num_vorton = VORTON_FFBLOCK;
    16b6:	17 e1       	ldi	r17, 0x17	; 23
			}
			display_upd_sendinfo(buf[0]);
    16b8:	02 c0       	rjmp	.+4      	; 0x16be <send_file+0x56>
    16ba:	00 eb       	ldi	r16, 0xB0	; 176
    16bc:	14 e1       	ldi	r17, 0x14	; 20
    16be:	80 91 b9 04 	lds	r24, 0x04B9	; 0x8004b9 <buf>
			while(send_state != DONE); // wait for the previous SPACE to finish
    16c2:	46 d9       	rcall	.-3444   	; 0x950 <display_upd_sendinfo>
    16c4:	80 91 0b 02 	lds	r24, 0x020B	; 0x80020b <send_state>
    16c8:	90 91 0c 02 	lds	r25, 0x020C	; 0x80020c <send_state+0x1>
    16cc:	89 2b       	or	r24, r25
    16ce:	d1 f7       	brne	.-12     	; 0x16c4 <send_file+0x5c>
			for (int i = 0; i < num_vorton; i++) {
				send_bit(ONE);
    16d0:	c0 e0       	ldi	r28, 0x00	; 0
    16d2:	d0 e0       	ldi	r29, 0x00	; 0
    16d4:	04 c0       	rjmp	.+8      	; 0x16de <send_file+0x76>
    16d6:	81 e0       	ldi	r24, 0x01	; 1
			} else if (current_block == number_of_blocks) {
				num_vorton = VORTON_FFBLOCK;
			}
			display_upd_sendinfo(buf[0]);
			while(send_state != DONE); // wait for the previous SPACE to finish
			for (int i = 0; i < num_vorton; i++) {
    16d8:	90 e0       	ldi	r25, 0x00	; 0
    16da:	08 dc       	rcall	.-2032   	; 0xeec <send_bit>
				send_bit(ONE);
			}
			send_bit(SPACE);
    16dc:	21 96       	adiw	r28, 0x01	; 1
    16de:	c0 17       	cp	r28, r16
    16e0:	d1 07       	cpc	r29, r17
    16e2:	cc f3       	brlt	.-14     	; 0x16d6 <send_file+0x6e>
			
			// send the block
			for (uint8_t i = 0; i < DATA_BUF_SIZE; i++) {
    16e4:	80 e0       	ldi	r24, 0x00	; 0
				send_byte(buf[i]);
    16e6:	90 e0       	ldi	r25, 0x00	; 0
    16e8:	01 dc       	rcall	.-2046   	; 0xeec <send_bit>
    16ea:	c0 e0       	ldi	r28, 0x00	; 0
    16ec:	17 c0       	rjmp	.+46     	; 0x171c <send_file+0xb4>
    16ee:	ec 2f       	mov	r30, r28
    16f0:	f0 e0       	ldi	r31, 0x00	; 0
    16f2:	e7 54       	subi	r30, 0x47	; 71
			
				if (select_key_pressed) {
    16f4:	fb 4f       	sbci	r31, 0xFB	; 251
    16f6:	80 81       	ld	r24, Z
    16f8:	1c dc       	rcall	.-1992   	; 0xf32 <send_byte>
					select_key_pressed = false;
    16fa:	80 91 15 02 	lds	r24, 0x0215	; 0x800215 <select_key_pressed>
					disp_err("SEND FILE","INTERRUPTED!");
    16fe:	88 23       	and	r24, r24
    1700:	61 f0       	breq	.+24     	; 0x171a <send_file+0xb2>
    1702:	10 92 15 02 	sts	0x0215, r1	; 0x800215 <select_key_pressed>
    1706:	66 ea       	ldi	r22, 0xA6	; 166
    1708:	71 e0       	ldi	r23, 0x01	; 1
					f_close(&fhdl);
    170a:	83 eb       	ldi	r24, 0xB3	; 179
    170c:	91 e0       	ldi	r25, 0x01	; 1
    170e:	80 d9       	rcall	.-3328   	; 0xa10 <disp_err>
    1710:	8d e6       	ldi	r24, 0x6D	; 109
					return;
    1712:	94 e0       	ldi	r25, 0x04	; 4
				send_bit(ONE);
			}
			send_bit(SPACE);
			
			// send the block
			for (uint8_t i = 0; i < DATA_BUF_SIZE; i++) {
    1714:	0e 94 9d 21 	call	0x433a	; 0x433a <f_close>
					f_close(&fhdl);
					return;
				}
			}
				
			if (current_block == number_of_blocks) { // send the final SPACE
    1718:	6a c0       	rjmp	.+212    	; 0x17ee <send_file+0x186>
    171a:	cf 5f       	subi	r28, 0xFF	; 255
    171c:	c2 38       	cpi	r28, 0x82	; 130
				send_bit(SPACE);
    171e:	38 f3       	brcs	.-50     	; 0x16ee <send_file+0x86>
    1720:	80 91 08 02 	lds	r24, 0x0208	; 0x800208 <number_of_blocks>
    1724:	f8 12       	cpse	r15, r24
				while(send_state != DONE);
    1726:	0d c0       	rjmp	.+26     	; 0x1742 <send_file+0xda>
    1728:	80 e0       	ldi	r24, 0x00	; 0
    172a:	90 e0       	ldi	r25, 0x00	; 0
    172c:	df db       	rcall	.-2114   	; 0xeec <send_bit>
    172e:	80 91 0b 02 	lds	r24, 0x020B	; 0x80020b <send_state>
				CASS_OUT_PORT |= _BV(CASS_OUT_PIN); // final L->H edge
    1732:	90 91 0c 02 	lds	r25, 0x020C	; 0x80020c <send_state+0x1>
    1736:	89 2b       	or	r24, r25
				break; // we are done -> exit while loop				
    1738:	d1 f7       	brne	.-12     	; 0x172e <send_file+0xc6>
			}
			// read the next block
			if (disp_fr_err(f_read(&fhdl, start_buf_ptr, block_len, &bytes_read))) {
    173a:	8b b1       	in	r24, 0x0b	; 11
    173c:	82 60       	ori	r24, 0x02	; 2
    173e:	8b b9       	out	0x0b, r24	; 11
    1740:	52 c0       	rjmp	.+164    	; 0x17e6 <send_file+0x17e>
    1742:	40 91 09 01 	lds	r20, 0x0109	; 0x800109 <block_len>
    1746:	50 e0       	ldi	r21, 0x00	; 0
    1748:	60 91 0a 01 	lds	r22, 0x010A	; 0x80010a <start_buf_ptr>
    174c:	70 91 0b 01 	lds	r23, 0x010B	; 0x80010b <start_buf_ptr+0x1>
    1750:	29 e0       	ldi	r18, 0x09	; 9
    1752:	32 e0       	ldi	r19, 0x02	; 2
    1754:	8d e6       	ldi	r24, 0x6D	; 109
    1756:	94 e0       	ldi	r25, 0x04	; 4
				disp_err("ERROR","EOF too early!");
    1758:	0e 94 e4 1d 	call	0x3bc8	; 0x3bc8 <f_read>
    175c:	23 d8       	rcall	.-4026   	; 0x7a4 <disp_fr_err>
    175e:	88 23       	and	r24, r24
    1760:	31 f0       	breq	.+12     	; 0x176e <send_file+0x106>
    1762:	6d eb       	ldi	r22, 0xBD	; 189
				break;
    1764:	71 e0       	ldi	r23, 0x01	; 1
			}
			if (bytes_read != block_len) {
    1766:	82 e4       	ldi	r24, 0x42	; 66
    1768:	91 e0       	ldi	r25, 0x01	; 1
    176a:	52 d9       	rcall	.-3420   	; 0xa10 <disp_err>
    176c:	3c c0       	rjmp	.+120    	; 0x17e6 <send_file+0x17e>
    176e:	80 91 09 01 	lds	r24, 0x0109	; 0x800109 <block_len>
    1772:	48 2f       	mov	r20, r24
    1774:	50 e0       	ldi	r21, 0x00	; 0
    1776:	20 91 09 02 	lds	r18, 0x0209	; 0x800209 <bytes_read>
				disp_err("ERROR:","Blk too short!");
    177a:	30 91 0a 02 	lds	r19, 0x020A	; 0x80020a <bytes_read+0x1>
    177e:	42 17       	cp	r20, r18
    1780:	53 07       	cpc	r21, r19
    1782:	31 f0       	breq	.+12     	; 0x1790 <send_file+0x128>
    1784:	60 e9       	ldi	r22, 0x90	; 144
				break;
    1786:	71 e0       	ldi	r23, 0x01	; 1
			}
			// generate next blocknr if it doesnt come from the file
			if (HAS_NO_BLOCKNR) {
    1788:	8f e9       	ldi	r24, 0x9F	; 159
    178a:	91 e0       	ldi	r25, 0x01	; 1
				buf[0]++;
    178c:	41 d9       	rcall	.-3454   	; 0xa10 <disp_err>
    178e:	2b c0       	rjmp	.+86     	; 0x17e6 <send_file+0x17e>
    1790:	80 38       	cpi	r24, 0x80	; 128
    1792:	c9 f4       	brne	.+50     	; 0x17c6 <send_file+0x15e>
    1794:	e9 eb       	ldi	r30, 0xB9	; 185
				if (buf[0] == (number_of_blocks - 1) && kc_file_type != BASIC_NO_HEADER && kc_file_type != BASIC_W_HEADER)
    1796:	f4 e0       	ldi	r31, 0x04	; 4
    1798:	80 81       	ld	r24, Z
    179a:	8f 5f       	subi	r24, 0xFF	; 255
    179c:	80 83       	st	Z, r24
    179e:	90 e0       	ldi	r25, 0x00	; 0
    17a0:	20 91 08 02 	lds	r18, 0x0208	; 0x800208 <number_of_blocks>
    17a4:	30 e0       	ldi	r19, 0x00	; 0
    17a6:	21 50       	subi	r18, 0x01	; 1
    17a8:	31 09       	sbc	r19, r1
    17aa:	82 17       	cp	r24, r18
    17ac:	93 07       	cpc	r25, r19
    17ae:	59 f4       	brne	.+22     	; 0x17c6 <send_file+0x15e>
    17b0:	80 91 07 01 	lds	r24, 0x0107	; 0x800107 <kc_file_type>
    17b4:	90 91 08 01 	lds	r25, 0x0108	; 0x800108 <kc_file_type+0x1>
					buf[0]=0xff;
    17b8:	00 97       	sbiw	r24, 0x00	; 0
    17ba:	29 f0       	breq	.+10     	; 0x17c6 <send_file+0x15e>
    17bc:	01 97       	sbiw	r24, 0x01	; 1
			}
			// Skip 0xff block for TAP_BASIC_EXTRA_BLOCKS
			if (kc_file_type == TAP_BASIC_EXTRA_BLOCKS && buf[0] == 0xff) {
    17be:	19 f0       	breq	.+6      	; 0x17c6 <send_file+0x15e>
    17c0:	8f ef       	ldi	r24, 0xFF	; 255
    17c2:	80 93 b9 04 	sts	0x04B9, r24	; 0x8004b9 <buf>
    17c6:	80 91 07 01 	lds	r24, 0x0107	; 0x800107 <kc_file_type>
    17ca:	90 91 08 01 	lds	r25, 0x0108	; 0x800108 <kc_file_type+0x1>
    17ce:	06 97       	sbiw	r24, 0x06	; 6
    17d0:	41 f4       	brne	.+16     	; 0x17e2 <send_file+0x17a>
				buf[0] = number_of_blocks;
    17d2:	80 91 b9 04 	lds	r24, 0x04B9	; 0x8004b9 <buf>
    17d6:	8f 3f       	cpi	r24, 0xFF	; 255
    17d8:	21 f4       	brne	.+8      	; 0x17e2 <send_file+0x17a>
			}
			current_block++;
    17da:	80 91 08 02 	lds	r24, 0x0208	; 0x800208 <number_of_blocks>
		}
		f_close(&fhdl);
    17de:	80 93 b9 04 	sts	0x04B9, r24	; 0x8004b9 <buf>
    17e2:	f3 94       	inc	r15
    17e4:	5a cf       	rjmp	.-332    	; 0x169a <send_file+0x32>
	}
    17e6:	8d e6       	ldi	r24, 0x6D	; 109
    17e8:	94 e0       	ldi	r25, 0x04	; 4
    17ea:	0e 94 9d 21 	call	0x433a	; 0x433a <f_close>
    17ee:	df 91       	pop	r29
    17f0:	cf 91       	pop	r28
    17f2:	1f 91       	pop	r17
    17f4:	0f 91       	pop	r16
    17f6:	ff 90       	pop	r15
    17f8:	08 95       	ret

000017fa <disk_and_debounce_timer_init>:
}

static void disk_and_debounce_timer_init (void)
{
	/* Start 100Hz system timer with TC0 */
	OCR2A = F_CPU / 1024 / 100 - 1; // OC reg A
    17fa:	8d e4       	ldi	r24, 0x4D	; 77
    17fc:	80 93 b3 00 	sts	0x00B3, r24	; 0x8000b3 <__TEXT_REGION_LENGTH__+0x7e00b3>
	TCCR2A = _BV(WGM01); // CTC mode -> TOP is OCR2A
    1800:	82 e0       	ldi	r24, 0x02	; 2
    1802:	80 93 b0 00 	sts	0x00B0, r24	; 0x8000b0 <__TEXT_REGION_LENGTH__+0x7e00b0>
	TCCR2B = 0b101; // 1024 prescaler
    1806:	95 e0       	ldi	r25, 0x05	; 5
    1808:	90 93 b1 00 	sts	0x00B1, r25	; 0x8000b1 <__TEXT_REGION_LENGTH__+0x7e00b1>
	TIMSK2 = _BV(OCIE2A); // int at OC match A
    180c:	80 93 70 00 	sts	0x0070, r24	; 0x800070 <__TEXT_REGION_LENGTH__+0x7e0070>
    1810:	08 95       	ret

00001812 <power_save_config>:
/************************************************************************/
static void power_save_config()
{
	// ports are configured as input by default.
	// this enables the pullups.
	PORTB = 0xFF;
    1812:	8f ef       	ldi	r24, 0xFF	; 255
    1814:	85 b9       	out	0x05, r24	; 5
	PORTC = 0xFF;
    1816:	88 b9       	out	0x08, r24	; 8
	PORTD = 0xFF;
    1818:	8b b9       	out	0x0b, r24	; 11
	power_twi_disable();
    181a:	e4 e6       	ldi	r30, 0x64	; 100
    181c:	f0 e0       	ldi	r31, 0x00	; 0
    181e:	80 81       	ld	r24, Z
    1820:	80 68       	ori	r24, 0x80	; 128
    1822:	80 83       	st	Z, r24
	power_adc_disable();
    1824:	80 81       	ld	r24, Z
    1826:	81 60       	ori	r24, 0x01	; 1
    1828:	80 83       	st	Z, r24
	power_usart0_disable();
    182a:	80 81       	ld	r24, Z
    182c:	82 60       	ori	r24, 0x02	; 2
    182e:	80 83       	st	Z, r24
	set_sleep_mode(SLEEP_MODE_IDLE);
    1830:	83 b7       	in	r24, 0x33	; 51
    1832:	81 7f       	andi	r24, 0xF1	; 241
    1834:	83 bf       	out	0x33, r24	; 51
	sleep_bod_disable();
    1836:	85 b7       	in	r24, 0x35	; 53
    1838:	80 66       	ori	r24, 0x60	; 96
    183a:	85 bf       	out	0x35, r24	; 53
    183c:	8f 7d       	andi	r24, 0xDF	; 223
    183e:	85 bf       	out	0x35, r24	; 53
	sleep_enable();
    1840:	83 b7       	in	r24, 0x33	; 51
    1842:	81 60       	ori	r24, 0x01	; 1
    1844:	83 bf       	out	0x33, r24	; 51
    1846:	08 95       	ret

00001848 <display_prev>:
	TCCR2B = 0b101; // 1024 prescaler
	TIMSK2 = _BV(OCIE2A); // int at OC match A
}

static void display_prev()
{
    1848:	cf 93       	push	r28
    184a:	df 93       	push	r29
	if (dir_idx > 0)
    184c:	80 91 fc 01 	lds	r24, 0x01FC	; 0x8001fc <dir_idx>
    1850:	90 91 fd 01 	lds	r25, 0x01FD	; 0x8001fd <dir_idx+0x1>
    1854:	18 16       	cp	r1, r24
    1856:	19 06       	cpc	r1, r25
    1858:	5c f5       	brge	.+86     	; 0x18b0 <display_prev+0x68>
	{
		dir_idx--;
    185a:	01 97       	sbiw	r24, 0x01	; 1
    185c:	90 93 fd 01 	sts	0x01FD, r25	; 0x8001fd <dir_idx+0x1>
    1860:	80 93 fc 01 	sts	0x01FC, r24	; 0x8001fc <dir_idx>
		f_closedir(&Dir);
    1864:	8f e8       	ldi	r24, 0x8F	; 143
    1866:	94 e0       	ldi	r25, 0x04	; 4
    1868:	0e 94 4f 25 	call	0x4a9e	; 0x4a9e <f_closedir>
		if (dir_idx >= DIR_IDX_FIRST_FILE)
    186c:	80 91 fc 01 	lds	r24, 0x01FC	; 0x8001fc <dir_idx>
    1870:	90 91 fd 01 	lds	r25, 0x01FD	; 0x8001fd <dir_idx+0x1>
    1874:	18 16       	cp	r1, r24
    1876:	19 06       	cpc	r1, r25
    1878:	bc f4       	brge	.+46     	; 0x18a8 <display_prev+0x60>
		{
			// FAT lib doesn't provide a way to go backwards through the list of files
			// So we close the dir and reopen it and flip through until the new dir_idx
			f_opendir(&Dir,".");
    187a:	62 ee       	ldi	r22, 0xE2	; 226
    187c:	71 e0       	ldi	r23, 0x01	; 1
    187e:	8f e8       	ldi	r24, 0x8F	; 143
    1880:	94 e0       	ldi	r25, 0x04	; 4
    1882:	0e 94 e3 24 	call	0x49c6	; 0x49c6 <f_opendir>
			for (int16_t i=DIR_IDX_FIRST_FILE; i<=dir_idx; i++)
    1886:	c1 e0       	ldi	r28, 0x01	; 1
    1888:	d0 e0       	ldi	r29, 0x00	; 0
    188a:	07 c0       	rjmp	.+14     	; 0x189a <display_prev+0x52>
			{
				f_readdir(&Dir,&Finfo);
    188c:	67 e5       	ldi	r22, 0x57	; 87
    188e:	74 e0       	ldi	r23, 0x04	; 4
    1890:	8f e8       	ldi	r24, 0x8F	; 143
    1892:	94 e0       	ldi	r25, 0x04	; 4
    1894:	0e 94 68 25 	call	0x4ad0	; 0x4ad0 <f_readdir>
		if (dir_idx >= DIR_IDX_FIRST_FILE)
		{
			// FAT lib doesn't provide a way to go backwards through the list of files
			// So we close the dir and reopen it and flip through until the new dir_idx
			f_opendir(&Dir,".");
			for (int16_t i=DIR_IDX_FIRST_FILE; i<=dir_idx; i++)
    1898:	21 96       	adiw	r28, 0x01	; 1
    189a:	80 91 fc 01 	lds	r24, 0x01FC	; 0x8001fc <dir_idx>
    189e:	90 91 fd 01 	lds	r25, 0x01FD	; 0x8001fd <dir_idx+0x1>
    18a2:	8c 17       	cp	r24, r28
    18a4:	9d 07       	cpc	r25, r29
    18a6:	94 f7       	brge	.-28     	; 0x188c <display_prev+0x44>
			{
				f_readdir(&Dir,&Finfo);
			}
		}
		display_fileinfo(&Finfo);
    18a8:	87 e5       	ldi	r24, 0x57	; 87
    18aa:	94 e0       	ldi	r25, 0x04	; 4
    18ac:	0e 94 e2 03 	call	0x7c4	; 0x7c4 <display_fileinfo>
	}

}
    18b0:	df 91       	pop	r29
    18b2:	cf 91       	pop	r28
    18b4:	08 95       	ret

000018b6 <display_next>:

static void display_next()
{
	if (dir_idx < INT16_MAX)
    18b6:	80 91 fc 01 	lds	r24, 0x01FC	; 0x8001fc <dir_idx>
    18ba:	90 91 fd 01 	lds	r25, 0x01FD	; 0x8001fd <dir_idx+0x1>
    18be:	8f 3f       	cpi	r24, 0xFF	; 255
    18c0:	2f e7       	ldi	r18, 0x7F	; 127
    18c2:	92 07       	cpc	r25, r18
    18c4:	01 f1       	breq	.+64     	; 0x1906 <display_next+0x50>
	{
		dir_idx++;
    18c6:	01 96       	adiw	r24, 0x01	; 1
    18c8:	90 93 fd 01 	sts	0x01FD, r25	; 0x8001fd <dir_idx+0x1>
    18cc:	80 93 fc 01 	sts	0x01FC, r24	; 0x8001fc <dir_idx>
		if (dir_idx == DIR_IDX_FIRST_FILE)
    18d0:	01 97       	sbiw	r24, 0x01	; 1
    18d2:	31 f4       	brne	.+12     	; 0x18e0 <display_next+0x2a>
		{
			f_opendir(&Dir,".");
    18d4:	62 ee       	ldi	r22, 0xE2	; 226
    18d6:	71 e0       	ldi	r23, 0x01	; 1
    18d8:	8f e8       	ldi	r24, 0x8F	; 143
    18da:	94 e0       	ldi	r25, 0x04	; 4
    18dc:	0e 94 e3 24 	call	0x49c6	; 0x49c6 <f_opendir>
		}
		if (dir_idx >= DIR_IDX_FIRST_FILE)
    18e0:	80 91 fc 01 	lds	r24, 0x01FC	; 0x8001fc <dir_idx>
    18e4:	90 91 fd 01 	lds	r25, 0x01FD	; 0x8001fd <dir_idx+0x1>
    18e8:	18 16       	cp	r1, r24
    18ea:	19 06       	cpc	r1, r25
    18ec:	64 f4       	brge	.+24     	; 0x1906 <display_next+0x50>
		{
			f_readdir(&Dir,&Finfo);
    18ee:	67 e5       	ldi	r22, 0x57	; 87
    18f0:	74 e0       	ldi	r23, 0x04	; 4
    18f2:	8f e8       	ldi	r24, 0x8F	; 143
    18f4:	94 e0       	ldi	r25, 0x04	; 4
    18f6:	0e 94 68 25 	call	0x4ad0	; 0x4ad0 <f_readdir>
			if (!Finfo.fname[0])
    18fa:	80 91 60 04 	lds	r24, 0x0460	; 0x800460 <Finfo+0x9>
    18fe:	81 11       	cpse	r24, r1
			{
				display_prev(); // We're over the edge, step back!
    1900:	02 c0       	rjmp	.+4      	; 0x1906 <display_next+0x50>
				return;
    1902:	a2 cf       	rjmp	.-188    	; 0x1848 <display_prev>
			}
		}
	}
	display_fileinfo(&Finfo);
    1904:	08 95       	ret
    1906:	87 e5       	ldi	r24, 0x57	; 87
    1908:	94 e0       	ldi	r25, 0x04	; 4
    190a:	0c 94 e2 03 	jmp	0x7c4	; 0x7c4 <display_fileinfo>
    190e:	08 95       	ret

00001910 <__vector_7>:
/*---------------------------------------------------------*/
/* disk_and_debounce_timer                                 */
/* 100Hz timer interrupt generated by Timer2               */
/*---------------------------------------------------------*/
ISR(TIMER2_COMPA_vect)
{
    1910:	1f 92       	push	r1
    1912:	0f 92       	push	r0
    1914:	0f b6       	in	r0, 0x3f	; 63
    1916:	0f 92       	push	r0
    1918:	11 24       	eor	r1, r1
    191a:	2f 93       	push	r18
    191c:	3f 93       	push	r19
    191e:	4f 93       	push	r20
    1920:	5f 93       	push	r21
    1922:	6f 93       	push	r22
    1924:	7f 93       	push	r23
    1926:	8f 93       	push	r24
    1928:	9f 93       	push	r25
    192a:	af 93       	push	r26
    192c:	bf 93       	push	r27
    192e:	ef 93       	push	r30
	disk_timerproc();	/* Drive timer procedure of low level disk I/O module */
    1930:	ff 93       	push	r31
	// check for button presses
	if ((keys_changed_bitmap & _BV(START_STOP_KEY)) && (~keys_bitmap & _BV(START_STOP_KEY)))
    1932:	2e d1       	rcall	.+604    	; 0x1b90 <disk_timerproc>
    1934:	80 91 14 02 	lds	r24, 0x0214	; 0x800214 <keys_changed_bitmap>
    1938:	80 ff       	sbrs	r24, 0
    193a:	0c c0       	rjmp	.+24     	; 0x1954 <__vector_7+0x44>
    193c:	80 91 16 02 	lds	r24, 0x0216	; 0x800216 <keys_bitmap>
    1940:	80 fd       	sbrc	r24, 0
	{
		keys_changed_bitmap &= ~_BV(START_STOP_KEY);
    1942:	08 c0       	rjmp	.+16     	; 0x1954 <__vector_7+0x44>
    1944:	80 91 14 02 	lds	r24, 0x0214	; 0x800214 <keys_changed_bitmap>
    1948:	8e 7f       	andi	r24, 0xFE	; 254
    194a:	80 93 14 02 	sts	0x0214, r24	; 0x800214 <keys_changed_bitmap>
		select_key_pressed = true;
    194e:	81 e0       	ldi	r24, 0x01	; 1
    1950:	80 93 15 02 	sts	0x0215, r24	; 0x800215 <select_key_pressed>
	}
	// check for adjustment (rotary encoder)
	if (keys_changed_bitmap & _BV(ROTARY_A))
    1954:	80 91 14 02 	lds	r24, 0x0214	; 0x800214 <keys_changed_bitmap>
    1958:	81 ff       	sbrs	r24, 1
	{
		keys_changed_bitmap &= ~_BV(ROTARY_A);
    195a:	13 c0       	rjmp	.+38     	; 0x1982 <__vector_7+0x72>
    195c:	80 91 14 02 	lds	r24, 0x0214	; 0x800214 <keys_changed_bitmap>
    1960:	8d 7f       	andi	r24, 0xFD	; 253
    1962:	80 93 14 02 	sts	0x0214, r24	; 0x800214 <keys_changed_bitmap>
		if (!(keys_bitmap & _BV(ROTARY_A))) // A changed to L
    1966:	80 91 16 02 	lds	r24, 0x0216	; 0x800216 <keys_bitmap>
    196a:	81 fd       	sbrc	r24, 1
		{
			if (keys_bitmap & _BV(ROTARY_B)) // and B is H
    196c:	0a c0       	rjmp	.+20     	; 0x1982 <__vector_7+0x72>
    196e:	80 91 16 02 	lds	r24, 0x0216	; 0x800216 <keys_bitmap>
    1972:	82 ff       	sbrs	r24, 2
			{
				display_task=UP;
    1974:	06 c0       	rjmp	.+12     	; 0x1982 <__vector_7+0x72>
    1976:	81 e0       	ldi	r24, 0x01	; 1
    1978:	90 e0       	ldi	r25, 0x00	; 0
    197a:	90 93 fb 01 	sts	0x01FB, r25	; 0x8001fb <display_task+0x1>
    197e:	80 93 fa 01 	sts	0x01FA, r24	; 0x8001fa <display_task>
			}
		}
	}
	if (keys_changed_bitmap & _BV(ROTARY_B))
    1982:	80 91 14 02 	lds	r24, 0x0214	; 0x800214 <keys_changed_bitmap>
    1986:	82 ff       	sbrs	r24, 2
	{
		keys_changed_bitmap &= ~_BV(ROTARY_B);
    1988:	13 c0       	rjmp	.+38     	; 0x19b0 <__vector_7+0xa0>
    198a:	80 91 14 02 	lds	r24, 0x0214	; 0x800214 <keys_changed_bitmap>
    198e:	8b 7f       	andi	r24, 0xFB	; 251
    1990:	80 93 14 02 	sts	0x0214, r24	; 0x800214 <keys_changed_bitmap>
		if (!(keys_bitmap & _BV(ROTARY_B))) // B changed to L
    1994:	80 91 16 02 	lds	r24, 0x0216	; 0x800216 <keys_bitmap>
    1998:	82 fd       	sbrc	r24, 2
		{
			if (keys_bitmap & _BV(ROTARY_A)) // and A is H
    199a:	0a c0       	rjmp	.+20     	; 0x19b0 <__vector_7+0xa0>
    199c:	80 91 16 02 	lds	r24, 0x0216	; 0x800216 <keys_bitmap>
    19a0:	81 ff       	sbrs	r24, 1
			{
				display_task=DOWN;
    19a2:	06 c0       	rjmp	.+12     	; 0x19b0 <__vector_7+0xa0>
    19a4:	82 e0       	ldi	r24, 0x02	; 2
    19a6:	90 e0       	ldi	r25, 0x00	; 0
    19a8:	90 93 fb 01 	sts	0x01FB, r25	; 0x8001fb <display_task+0x1>
    19ac:	80 93 fa 01 	sts	0x01FA, r24	; 0x8001fa <display_task>
			}
		}
	}
	handle_keys();
    19b0:	0e 94 e7 02 	call	0x5ce	; 0x5ce <handle_keys>
}
    19b4:	ff 91       	pop	r31
    19b6:	ef 91       	pop	r30
    19b8:	bf 91       	pop	r27
    19ba:	af 91       	pop	r26
    19bc:	9f 91       	pop	r25
    19be:	8f 91       	pop	r24
    19c0:	7f 91       	pop	r23
    19c2:	6f 91       	pop	r22
    19c4:	5f 91       	pop	r21
    19c6:	4f 91       	pop	r20
    19c8:	3f 91       	pop	r19
    19ca:	2f 91       	pop	r18
    19cc:	0f 90       	pop	r0
    19ce:	0f be       	out	0x3f, r0	; 63
    19d0:	0f 90       	pop	r0
    19d2:	1f 90       	pop	r1
    19d4:	18 95       	reti

000019d6 <main>:
    19d6:	1d df       	rcall	.-454    	; 0x1812 <power_save_config>
    19d8:	8c e0       	ldi	r24, 0x0C	; 12
    19da:	0e 94 52 2c 	call	0x58a4	; 0x58a4 <lcd_init>
    19de:	80 e4       	ldi	r24, 0x40	; 64
    19e0:	9c e2       	ldi	r25, 0x2C	; 44
    19e2:	90 93 f5 01 	sts	0x01F5, r25	; 0x8001f5 <__data_end+0x1>
    19e6:	80 93 f4 01 	sts	0x01F4, r24	; 0x8001f4 <__data_end>
    19ea:	0e 94 76 02 	call	0x4ec	; 0x4ec <keys_init>
    19ee:	35 de       	rcall	.-918    	; 0x165a <kc_cass_send_file_init>
    19f0:	5b d9       	rcall	.-3402   	; 0xca8 <kc_cass_recv_file_init>
    19f2:	03 df       	rcall	.-506    	; 0x17fa <disk_and_debounce_timer_init>
    19f4:	78 94       	sei
    19f6:	41 e0       	ldi	r20, 0x01	; 1
    19f8:	62 eb       	ldi	r22, 0xB2	; 178
    19fa:	71 e0       	ldi	r23, 0x01	; 1
    19fc:	84 e2       	ldi	r24, 0x24	; 36
    19fe:	92 e0       	ldi	r25, 0x02	; 2
    1a00:	0e 94 eb 1b 	call	0x37d6	; 0x37d6 <f_mount>
    1a04:	90 93 b8 04 	sts	0x04B8, r25	; 0x8004b8 <fr+0x1>
    1a08:	80 93 b7 04 	sts	0x04B7, r24	; 0x8004b7 <fr>
    1a0c:	00 97       	sbiw	r24, 0x00	; 0
    1a0e:	a9 f0       	breq	.+42     	; 0x1a3a <main+0x64>
    1a10:	83 30       	cpi	r24, 0x03	; 3
    1a12:	91 05       	cpc	r25, r1
    1a14:	81 f4       	brne	.+32     	; 0x1a36 <main+0x60>
    1a16:	6c ec       	ldi	r22, 0xCC	; 204
    1a18:	71 e0       	ldi	r23, 0x01	; 1
    1a1a:	84 ed       	ldi	r24, 0xD4	; 212
    1a1c:	91 e0       	ldi	r25, 0x01	; 1
    1a1e:	0e 94 08 05 	call	0xa10	; 0xa10 <disp_err>
    1a22:	2f ef       	ldi	r18, 0xFF	; 255
    1a24:	84 e3       	ldi	r24, 0x34	; 52
    1a26:	9c e0       	ldi	r25, 0x0C	; 12
    1a28:	21 50       	subi	r18, 0x01	; 1
    1a2a:	80 40       	sbci	r24, 0x00	; 0
    1a2c:	90 40       	sbci	r25, 0x00	; 0
    1a2e:	e1 f7       	brne	.-8      	; 0x1a28 <main+0x52>
    1a30:	00 c0       	rjmp	.+0      	; 0x1a32 <main+0x5c>
    1a32:	00 00       	nop
    1a34:	02 c0       	rjmp	.+4      	; 0x1a3a <main+0x64>
    1a36:	0e 94 d2 03 	call	0x7a4	; 0x7a4 <disp_fr_err>
    1a3a:	80 91 b7 04 	lds	r24, 0x04B7	; 0x8004b7 <fr>
    1a3e:	90 91 b8 04 	lds	r25, 0x04B8	; 0x8004b8 <fr+0x1>
    1a42:	89 2b       	or	r24, r25
    1a44:	c1 f6       	brne	.-80     	; 0x19f6 <main+0x20>
    1a46:	6d e0       	ldi	r22, 0x0D	; 13
    1a48:	70 e0       	ldi	r23, 0x00	; 0
    1a4a:	87 e1       	ldi	r24, 0x17	; 23
    1a4c:	92 e0       	ldi	r25, 0x02	; 2
    1a4e:	0e 94 14 22 	call	0x4428	; 0x4428 <f_getcwd>
    1a52:	8f ef       	ldi	r24, 0xFF	; 255
    1a54:	9f ef       	ldi	r25, 0xFF	; 255
    1a56:	90 93 fd 01 	sts	0x01FD, r25	; 0x8001fd <dir_idx+0x1>
    1a5a:	80 93 fc 01 	sts	0x01FC, r24	; 0x8001fc <dir_idx>
    1a5e:	2b df       	rcall	.-426    	; 0x18b6 <display_next>
    1a60:	3a d9       	rcall	.-3468   	; 0xcd6 <kc_cass_handle_recv_file>
    1a62:	80 91 fa 01 	lds	r24, 0x01FA	; 0x8001fa <display_task>
    1a66:	90 91 fb 01 	lds	r25, 0x01FB	; 0x8001fb <display_task+0x1>
    1a6a:	81 30       	cpi	r24, 0x01	; 1
    1a6c:	91 05       	cpc	r25, r1
    1a6e:	19 f0       	breq	.+6      	; 0x1a76 <main+0xa0>
    1a70:	02 97       	sbiw	r24, 0x02	; 2
    1a72:	39 f0       	breq	.+14     	; 0x1a82 <main+0xac>
    1a74:	0b c0       	rjmp	.+22     	; 0x1a8c <main+0xb6>
    1a76:	e8 de       	rcall	.-560    	; 0x1848 <display_prev>
    1a78:	10 92 fb 01 	sts	0x01FB, r1	; 0x8001fb <display_task+0x1>
    1a7c:	10 92 fa 01 	sts	0x01FA, r1	; 0x8001fa <display_task>
    1a80:	05 c0       	rjmp	.+10     	; 0x1a8c <main+0xb6>
    1a82:	19 df       	rcall	.-462    	; 0x18b6 <display_next>
    1a84:	10 92 fb 01 	sts	0x01FB, r1	; 0x8001fb <display_task+0x1>
    1a88:	10 92 fa 01 	sts	0x01FA, r1	; 0x8001fa <display_task>
    1a8c:	80 91 15 02 	lds	r24, 0x0215	; 0x800215 <select_key_pressed>
    1a90:	88 23       	and	r24, r24
    1a92:	09 f4       	brne	.+2      	; 0x1a96 <main+0xc0>
    1a94:	41 c0       	rjmp	.+130    	; 0x1b18 <main+0x142>
    1a96:	80 91 fc 01 	lds	r24, 0x01FC	; 0x8001fc <dir_idx>
    1a9a:	90 91 fd 01 	lds	r25, 0x01FD	; 0x8001fd <dir_idx+0x1>
    1a9e:	89 2b       	or	r24, r25
    1aa0:	91 f4       	brne	.+36     	; 0x1ac6 <main+0xf0>
    1aa2:	81 ee       	ldi	r24, 0xE1	; 225
    1aa4:	91 e0       	ldi	r25, 0x01	; 1
    1aa6:	0e 94 ba 21 	call	0x4374	; 0x4374 <f_chdir>
    1aaa:	6d e0       	ldi	r22, 0x0D	; 13
    1aac:	70 e0       	ldi	r23, 0x00	; 0
    1aae:	87 e1       	ldi	r24, 0x17	; 23
    1ab0:	92 e0       	ldi	r25, 0x02	; 2
    1ab2:	0e 94 14 22 	call	0x4428	; 0x4428 <f_getcwd>
    1ab6:	8f ef       	ldi	r24, 0xFF	; 255
    1ab8:	9f ef       	ldi	r25, 0xFF	; 255
    1aba:	90 93 fd 01 	sts	0x01FD, r25	; 0x8001fd <dir_idx+0x1>
    1abe:	80 93 fc 01 	sts	0x01FC, r24	; 0x8001fc <dir_idx>
    1ac2:	f9 de       	rcall	.-526    	; 0x18b6 <display_next>
    1ac4:	27 c0       	rjmp	.+78     	; 0x1b14 <main+0x13e>
    1ac6:	80 91 5f 04 	lds	r24, 0x045F	; 0x80045f <Finfo+0x8>
    1aca:	84 ff       	sbrs	r24, 4
    1acc:	12 c0       	rjmp	.+36     	; 0x1af2 <main+0x11c>
    1ace:	80 e6       	ldi	r24, 0x60	; 96
    1ad0:	94 e0       	ldi	r25, 0x04	; 4
    1ad2:	0e 94 ba 21 	call	0x4374	; 0x4374 <f_chdir>
    1ad6:	6d e0       	ldi	r22, 0x0D	; 13
    1ad8:	70 e0       	ldi	r23, 0x00	; 0
    1ada:	87 e1       	ldi	r24, 0x17	; 23
    1adc:	92 e0       	ldi	r25, 0x02	; 2
    1ade:	0e 94 14 22 	call	0x4428	; 0x4428 <f_getcwd>
    1ae2:	8f ef       	ldi	r24, 0xFF	; 255
    1ae4:	9f ef       	ldi	r25, 0xFF	; 255
    1ae6:	90 93 fd 01 	sts	0x01FD, r25	; 0x8001fd <dir_idx+0x1>
    1aea:	80 93 fc 01 	sts	0x01FC, r24	; 0x8001fc <dir_idx>
    1aee:	e3 de       	rcall	.-570    	; 0x18b6 <display_next>
    1af0:	11 c0       	rjmp	.+34     	; 0x1b14 <main+0x13e>
    1af2:	80 91 60 04 	lds	r24, 0x0460	; 0x800460 <Finfo+0x9>
    1af6:	88 23       	and	r24, r24
    1af8:	69 f0       	breq	.+26     	; 0x1b14 <main+0x13e>
    1afa:	87 e5       	ldi	r24, 0x57	; 87
    1afc:	94 e0       	ldi	r25, 0x04	; 4
    1afe:	b4 dd       	rcall	.-1176   	; 0x1668 <send_file>
    1b00:	80 91 0b 02 	lds	r24, 0x020B	; 0x80020b <send_state>
    1b04:	90 91 0c 02 	lds	r25, 0x020C	; 0x80020c <send_state+0x1>
    1b08:	89 2b       	or	r24, r25
    1b0a:	d1 f7       	brne	.-12     	; 0x1b00 <main+0x12a>
    1b0c:	87 e5       	ldi	r24, 0x57	; 87
    1b0e:	94 e0       	ldi	r25, 0x04	; 4
    1b10:	0e 94 e2 03 	call	0x7c4	; 0x7c4 <display_fileinfo>
    1b14:	10 92 15 02 	sts	0x0215, r1	; 0x800215 <select_key_pressed>
    1b18:	88 95       	sleep
    1b1a:	a2 cf       	rjmp	.-188    	; 0x1a60 <main+0x8a>

00001b1c <disk_status>:

DSTATUS disk_status (
	BYTE pdrv		/* Physical drive nmuber to identify the drive */
)
{
	switch (pdrv) {
    1b1c:	81 11       	cpse	r24, r1
    1b1e:	03 c0       	rjmp	.+6      	; 0x1b26 <disk_status+0xa>
	case DRV_CFC :
		return cf_disk_status();
#endif
#ifdef DRV_MMC
	case DRV_MMC :
		return mmc_disk_status();
    1b20:	0c 94 75 27 	jmp	0x4eea	; 0x4eea <mmc_disk_status>
    1b24:	08 95       	ret
#endif
	}
	return STA_NOINIT;
    1b26:	81 e0       	ldi	r24, 0x01	; 1
}
    1b28:	08 95       	ret

00001b2a <disk_initialize>:

DSTATUS disk_initialize (
	BYTE pdrv				/* Physical drive nmuber to identify the drive */
)
{
	switch (pdrv) {
    1b2a:	81 11       	cpse	r24, r1
    1b2c:	03 c0       	rjmp	.+6      	; 0x1b34 <disk_initialize+0xa>
	case DRV_CFC :
		return cf_disk_initialize();
#endif
#ifdef DRV_MMC
	case DRV_MMC :
		return mmc_disk_initialize();
    1b2e:	0c 94 a0 26 	jmp	0x4d40	; 0x4d40 <mmc_disk_initialize>
    1b32:	08 95       	ret
#endif
	}
	return STA_NOINIT;
    1b34:	81 e0       	ldi	r24, 0x01	; 1
}
    1b36:	08 95       	ret

00001b38 <disk_read>:
	BYTE pdrv,		/* Physical drive nmuber to identify the drive */
	BYTE *buff,		/* Data buffer to store read data */
	DWORD sector,	/* Sector address in LBA */
	UINT count		/* Number of sectors to read */
)
{
    1b38:	0f 93       	push	r16
    1b3a:	1f 93       	push	r17
    1b3c:	fb 01       	movw	r30, r22
	switch (pdrv) {
    1b3e:	81 11       	cpse	r24, r1
    1b40:	07 c0       	rjmp	.+14     	; 0x1b50 <disk_read+0x18>
    1b42:	ba 01       	movw	r22, r20
    1b44:	a9 01       	movw	r20, r18
    1b46:	cf 01       	movw	r24, r30
	case DRV_CFC :
		return cf_disk_read(buff, sector, count);
#endif
#ifdef DRV_MMC
	case DRV_MMC :
		return mmc_disk_read(buff, sector, count);
    1b48:	98 01       	movw	r18, r16
    1b4a:	0e 94 78 27 	call	0x4ef0	; 0x4ef0 <mmc_disk_read>
    1b4e:	02 c0       	rjmp	.+4      	; 0x1b54 <disk_read+0x1c>
#endif
	}
	return RES_PARERR;
    1b50:	84 e0       	ldi	r24, 0x04	; 4
    1b52:	90 e0       	ldi	r25, 0x00	; 0
}
    1b54:	1f 91       	pop	r17
    1b56:	0f 91       	pop	r16
    1b58:	08 95       	ret

00001b5a <disk_write>:
	BYTE pdrv,			/* Physical drive nmuber to identify the drive */
	const BYTE *buff,	/* Data to be written */
	DWORD sector,		/* Sector address in LBA */
	UINT count			/* Number of sectors to write */
)
{
    1b5a:	0f 93       	push	r16
    1b5c:	1f 93       	push	r17
    1b5e:	fb 01       	movw	r30, r22
	switch (pdrv) {
    1b60:	81 11       	cpse	r24, r1
    1b62:	07 c0       	rjmp	.+14     	; 0x1b72 <disk_write+0x18>
    1b64:	ba 01       	movw	r22, r20
    1b66:	a9 01       	movw	r20, r18
    1b68:	cf 01       	movw	r24, r30
	case DRV_CFC :
		return cf_disk_write(buff, sector, count);
#endif
#ifdef DRV_MMC
	case DRV_MMC :
		return mmc_disk_write(buff, sector, count);
    1b6a:	98 01       	movw	r18, r16
    1b6c:	0e 94 c5 27 	call	0x4f8a	; 0x4f8a <mmc_disk_write>
    1b70:	02 c0       	rjmp	.+4      	; 0x1b76 <disk_write+0x1c>
#endif
	}
	return RES_PARERR;
    1b72:	84 e0       	ldi	r24, 0x04	; 4
    1b74:	90 e0       	ldi	r25, 0x00	; 0
}
    1b76:	1f 91       	pop	r17
    1b78:	0f 91       	pop	r16
    1b7a:	08 95       	ret

00001b7c <disk_ioctl>:
	BYTE pdrv,		/* Physical drive nmuber (0..) */
	BYTE cmd,		/* Control code */
	void *buff		/* Buffer to send/receive control data */
)
{
	switch (pdrv) {
    1b7c:	81 11       	cpse	r24, r1
    1b7e:	05 c0       	rjmp	.+10     	; 0x1b8a <disk_ioctl+0xe>
    1b80:	86 2f       	mov	r24, r22
	case DRV_CFC :
		return cf_disk_ioctl(cmd, buff);
#endif
#ifdef DRV_MMC
	case DRV_MMC :
		return mmc_disk_ioctl(cmd, buff);
    1b82:	ba 01       	movw	r22, r20
    1b84:	0c 94 31 28 	jmp	0x5062	; 0x5062 <mmc_disk_ioctl>
    1b88:	08 95       	ret
#endif
	}
	return RES_PARERR;
    1b8a:	84 e0       	ldi	r24, 0x04	; 4
    1b8c:	90 e0       	ldi	r25, 0x00	; 0
}
    1b8e:	08 95       	ret

00001b90 <disk_timerproc>:
{
#ifdef DRV_CFC
	cf_disk_timerproc();
#endif
#ifdef DRV_MMC
	mmc_disk_timerproc();
    1b90:	0c 94 b2 2b 	jmp	0x5764	; 0x5764 <mmc_disk_timerproc>
    1b94:	08 95       	ret

00001b96 <ld_word>:
		fs->wflag = 1;
	}
#endif

	return res;
}
    1b96:	fc 01       	movw	r30, r24
    1b98:	21 81       	ldd	r18, Z+1	; 0x01
    1b9a:	30 e0       	ldi	r19, 0x00	; 0
    1b9c:	32 2f       	mov	r19, r18
    1b9e:	22 27       	eor	r18, r18
    1ba0:	80 81       	ld	r24, Z
    1ba2:	a9 01       	movw	r20, r18
    1ba4:	48 2b       	or	r20, r24
    1ba6:	ca 01       	movw	r24, r20
    1ba8:	08 95       	ret

00001baa <ld_dword>:
    1baa:	fc 01       	movw	r30, r24
    1bac:	63 81       	ldd	r22, Z+3	; 0x03
    1bae:	86 2f       	mov	r24, r22
    1bb0:	90 e0       	ldi	r25, 0x00	; 0
    1bb2:	a0 e0       	ldi	r26, 0x00	; 0
    1bb4:	b0 e0       	ldi	r27, 0x00	; 0
    1bb6:	ba 2f       	mov	r27, r26
    1bb8:	a9 2f       	mov	r26, r25
    1bba:	98 2f       	mov	r25, r24
    1bbc:	88 27       	eor	r24, r24
    1bbe:	22 81       	ldd	r18, Z+2	; 0x02
    1bc0:	82 2b       	or	r24, r18
    1bc2:	ba 2f       	mov	r27, r26
    1bc4:	a9 2f       	mov	r26, r25
    1bc6:	98 2f       	mov	r25, r24
    1bc8:	88 27       	eor	r24, r24
    1bca:	21 81       	ldd	r18, Z+1	; 0x01
    1bcc:	82 2b       	or	r24, r18
    1bce:	ba 2f       	mov	r27, r26
    1bd0:	a9 2f       	mov	r26, r25
    1bd2:	98 2f       	mov	r25, r24
    1bd4:	88 27       	eor	r24, r24
    1bd6:	20 81       	ld	r18, Z
    1bd8:	bc 01       	movw	r22, r24
    1bda:	cd 01       	movw	r24, r26
    1bdc:	62 2b       	or	r22, r18
    1bde:	08 95       	ret

00001be0 <st_word>:
    1be0:	fc 01       	movw	r30, r24
    1be2:	60 83       	st	Z, r22
    1be4:	71 83       	std	Z+1, r23	; 0x01
    1be6:	08 95       	ret

00001be8 <st_dword>:
    1be8:	fc 01       	movw	r30, r24
    1bea:	40 83       	st	Z, r20
    1bec:	51 83       	std	Z+1, r21	; 0x01
    1bee:	62 83       	std	Z+2, r22	; 0x02
    1bf0:	73 83       	std	Z+3, r23	; 0x03
    1bf2:	08 95       	ret

00001bf4 <mem_cpy>:
    1bf4:	dc 01       	movw	r26, r24
    1bf6:	fb 01       	movw	r30, r22
    1bf8:	41 15       	cp	r20, r1
    1bfa:	51 05       	cpc	r21, r1
    1bfc:	49 f0       	breq	.+18     	; 0x1c10 <mem_cpy+0x1c>
    1bfe:	80 81       	ld	r24, Z
    1c00:	8c 93       	st	X, r24
    1c02:	41 50       	subi	r20, 0x01	; 1
    1c04:	51 09       	sbc	r21, r1
    1c06:	11 96       	adiw	r26, 0x01	; 1
    1c08:	31 96       	adiw	r30, 0x01	; 1
    1c0a:	41 15       	cp	r20, r1
    1c0c:	51 05       	cpc	r21, r1
    1c0e:	b9 f7       	brne	.-18     	; 0x1bfe <mem_cpy+0xa>
    1c10:	08 95       	ret

00001c12 <mem_set>:
    1c12:	fc 01       	movw	r30, r24
    1c14:	60 83       	st	Z, r22
    1c16:	41 50       	subi	r20, 0x01	; 1
    1c18:	51 09       	sbc	r21, r1
    1c1a:	31 96       	adiw	r30, 0x01	; 1
    1c1c:	41 15       	cp	r20, r1
    1c1e:	51 05       	cpc	r21, r1
    1c20:	c9 f7       	brne	.-14     	; 0x1c14 <mem_set+0x2>
    1c22:	08 95       	ret

00001c24 <mem_cmp>:
    1c24:	cf 93       	push	r28
    1c26:	df 93       	push	r29
    1c28:	dc 01       	movw	r26, r24
    1c2a:	fb 01       	movw	r30, r22
    1c2c:	ed 01       	movw	r28, r26
    1c2e:	21 96       	adiw	r28, 0x01	; 1
    1c30:	8c 91       	ld	r24, X
    1c32:	90 e0       	ldi	r25, 0x00	; 0
    1c34:	bf 01       	movw	r22, r30
    1c36:	6f 5f       	subi	r22, 0xFF	; 255
    1c38:	7f 4f       	sbci	r23, 0xFF	; 255
    1c3a:	20 81       	ld	r18, Z
    1c3c:	82 1b       	sub	r24, r18
    1c3e:	91 09       	sbc	r25, r1
    1c40:	41 50       	subi	r20, 0x01	; 1
    1c42:	51 09       	sbc	r21, r1
    1c44:	21 f0       	breq	.+8      	; 0x1c4e <mem_cmp+0x2a>
    1c46:	de 01       	movw	r26, r28
    1c48:	fb 01       	movw	r30, r22
    1c4a:	00 97       	sbiw	r24, 0x00	; 0
    1c4c:	79 f3       	breq	.-34     	; 0x1c2c <mem_cmp+0x8>
    1c4e:	df 91       	pop	r29
    1c50:	cf 91       	pop	r28
    1c52:	08 95       	ret

00001c54 <chk_chr>:
    1c54:	fc 01       	movw	r30, r24
    1c56:	01 c0       	rjmp	.+2      	; 0x1c5a <chk_chr+0x6>
    1c58:	31 96       	adiw	r30, 0x01	; 1
    1c5a:	80 81       	ld	r24, Z
    1c5c:	88 23       	and	r24, r24
    1c5e:	39 f0       	breq	.+14     	; 0x1c6e <chk_chr+0x1a>
    1c60:	28 2f       	mov	r18, r24
    1c62:	08 2e       	mov	r0, r24
    1c64:	00 0c       	add	r0, r0
    1c66:	33 0b       	sbc	r19, r19
    1c68:	26 17       	cp	r18, r22
    1c6a:	37 07       	cpc	r19, r23
    1c6c:	a9 f7       	brne	.-22     	; 0x1c58 <chk_chr+0x4>
    1c6e:	08 2e       	mov	r0, r24
    1c70:	00 0c       	add	r0, r0
    1c72:	99 0b       	sbc	r25, r25
    1c74:	08 95       	ret

00001c76 <clust2sect>:
    1c76:	0f 93       	push	r16
    1c78:	1f 93       	push	r17
    1c7a:	fc 01       	movw	r30, r24
    1c7c:	9a 01       	movw	r18, r20
    1c7e:	ab 01       	movw	r20, r22
    1c80:	22 50       	subi	r18, 0x02	; 2
    1c82:	31 09       	sbc	r19, r1
    1c84:	41 09       	sbc	r20, r1
    1c86:	51 09       	sbc	r21, r1
    1c88:	87 89       	ldd	r24, Z+23	; 0x17
    1c8a:	90 8d       	ldd	r25, Z+24	; 0x18
    1c8c:	a1 8d       	ldd	r26, Z+25	; 0x19
    1c8e:	b2 8d       	ldd	r27, Z+26	; 0x1a
    1c90:	02 97       	sbiw	r24, 0x02	; 2
    1c92:	a1 09       	sbc	r26, r1
    1c94:	b1 09       	sbc	r27, r1
    1c96:	28 17       	cp	r18, r24
    1c98:	39 07       	cpc	r19, r25
    1c9a:	4a 07       	cpc	r20, r26
    1c9c:	5b 07       	cpc	r21, r27
    1c9e:	68 f4       	brcc	.+26     	; 0x1cba <clust2sect+0x44>
    1ca0:	a1 85       	ldd	r26, Z+9	; 0x09
    1ca2:	b2 85       	ldd	r27, Z+10	; 0x0a
    1ca4:	0e 94 c7 2c 	call	0x598e	; 0x598e <__muluhisi3>
    1ca8:	03 a5       	ldd	r16, Z+43	; 0x2b
    1caa:	14 a5       	ldd	r17, Z+44	; 0x2c
    1cac:	25 a5       	ldd	r18, Z+45	; 0x2d
    1cae:	36 a5       	ldd	r19, Z+46	; 0x2e
    1cb0:	60 0f       	add	r22, r16
    1cb2:	71 1f       	adc	r23, r17
    1cb4:	82 1f       	adc	r24, r18
    1cb6:	93 1f       	adc	r25, r19
    1cb8:	03 c0       	rjmp	.+6      	; 0x1cc0 <clust2sect+0x4a>
    1cba:	60 e0       	ldi	r22, 0x00	; 0
    1cbc:	70 e0       	ldi	r23, 0x00	; 0
    1cbe:	cb 01       	movw	r24, r22
    1cc0:	1f 91       	pop	r17
    1cc2:	0f 91       	pop	r16
    1cc4:	08 95       	ret

00001cc6 <ld_clust>:
    1cc6:	cf 92       	push	r12
    1cc8:	df 92       	push	r13
    1cca:	ef 92       	push	r14
    1ccc:	ff 92       	push	r15
    1cce:	0f 93       	push	r16
    1cd0:	1f 93       	push	r17
    1cd2:	cf 93       	push	r28
    1cd4:	df 93       	push	r29
    1cd6:	8c 01       	movw	r16, r24
    1cd8:	eb 01       	movw	r28, r22
    1cda:	cb 01       	movw	r24, r22
    1cdc:	4a 96       	adiw	r24, 0x1a	; 26
    1cde:	5b df       	rcall	.-330    	; 0x1b96 <ld_word>
    1ce0:	6c 01       	movw	r12, r24
    1ce2:	e1 2c       	mov	r14, r1
    1ce4:	f1 2c       	mov	r15, r1
    1ce6:	f8 01       	movw	r30, r16
    1ce8:	80 81       	ld	r24, Z
    1cea:	83 30       	cpi	r24, 0x03	; 3
    1cec:	61 f4       	brne	.+24     	; 0x1d06 <ld_clust+0x40>
    1cee:	ce 01       	movw	r24, r28
    1cf0:	44 96       	adiw	r24, 0x14	; 20
    1cf2:	51 df       	rcall	.-350    	; 0x1b96 <ld_word>
    1cf4:	a0 e0       	ldi	r26, 0x00	; 0
    1cf6:	b0 e0       	ldi	r27, 0x00	; 0
    1cf8:	dc 01       	movw	r26, r24
    1cfa:	99 27       	eor	r25, r25
    1cfc:	88 27       	eor	r24, r24
    1cfe:	c8 2a       	or	r12, r24
    1d00:	d9 2a       	or	r13, r25
    1d02:	ea 2a       	or	r14, r26
    1d04:	fb 2a       	or	r15, r27
    1d06:	c7 01       	movw	r24, r14
    1d08:	b6 01       	movw	r22, r12
    1d0a:	df 91       	pop	r29
    1d0c:	cf 91       	pop	r28
    1d0e:	1f 91       	pop	r17
    1d10:	0f 91       	pop	r16
    1d12:	ff 90       	pop	r15
    1d14:	ef 90       	pop	r14
    1d16:	df 90       	pop	r13
    1d18:	cf 90       	pop	r12
    1d1a:	08 95       	ret

00001d1c <st_clust>:
    1d1c:	cf 92       	push	r12
    1d1e:	df 92       	push	r13
    1d20:	ef 92       	push	r14
    1d22:	ff 92       	push	r15
    1d24:	0f 93       	push	r16
    1d26:	1f 93       	push	r17
    1d28:	cf 93       	push	r28
    1d2a:	df 93       	push	r29
    1d2c:	8c 01       	movw	r16, r24
    1d2e:	eb 01       	movw	r28, r22
    1d30:	69 01       	movw	r12, r18
    1d32:	7a 01       	movw	r14, r20
    1d34:	b9 01       	movw	r22, r18
    1d36:	ce 01       	movw	r24, r28
    1d38:	4a 96       	adiw	r24, 0x1a	; 26
    1d3a:	52 df       	rcall	.-348    	; 0x1be0 <st_word>
    1d3c:	f8 01       	movw	r30, r16
    1d3e:	80 81       	ld	r24, Z
    1d40:	83 30       	cpi	r24, 0x03	; 3
    1d42:	31 f4       	brne	.+12     	; 0x1d50 <st_clust+0x34>
    1d44:	b7 01       	movw	r22, r14
    1d46:	88 27       	eor	r24, r24
    1d48:	99 27       	eor	r25, r25
    1d4a:	ce 01       	movw	r24, r28
    1d4c:	44 96       	adiw	r24, 0x14	; 20
    1d4e:	48 df       	rcall	.-368    	; 0x1be0 <st_word>
    1d50:	df 91       	pop	r29
    1d52:	cf 91       	pop	r28
    1d54:	1f 91       	pop	r17
    1d56:	0f 91       	pop	r16
    1d58:	ff 90       	pop	r15
    1d5a:	ef 90       	pop	r14
    1d5c:	df 90       	pop	r13
    1d5e:	cf 90       	pop	r12
    1d60:	08 95       	ret

00001d62 <get_fileinfo>:
    1d62:	0f 93       	push	r16
    1d64:	1f 93       	push	r17
    1d66:	cf 93       	push	r28
    1d68:	df 93       	push	r29
    1d6a:	ec 01       	movw	r28, r24
    1d6c:	fb 01       	movw	r30, r22
    1d6e:	11 86       	std	Z+9, r1	; 0x09
    1d70:	8e 89       	ldd	r24, Y+22	; 0x16
    1d72:	9f 89       	ldd	r25, Y+23	; 0x17
    1d74:	a8 8d       	ldd	r26, Y+24	; 0x18
    1d76:	b9 8d       	ldd	r27, Y+25	; 0x19
    1d78:	89 2b       	or	r24, r25
    1d7a:	8a 2b       	or	r24, r26
    1d7c:	8b 2b       	or	r24, r27
    1d7e:	09 f4       	brne	.+2      	; 0x1d82 <get_fileinfo+0x20>
    1d80:	41 c0       	rjmp	.+130    	; 0x1e04 <get_fileinfo+0xa2>
    1d82:	e0 e0       	ldi	r30, 0x00	; 0
    1d84:	f0 e0       	ldi	r31, 0x00	; 0
    1d86:	20 e0       	ldi	r18, 0x00	; 0
    1d88:	30 e0       	ldi	r19, 0x00	; 0
    1d8a:	1e c0       	rjmp	.+60     	; 0x1dc8 <get_fileinfo+0x66>
    1d8c:	aa 8d       	ldd	r26, Y+26	; 0x1a
    1d8e:	bb 8d       	ldd	r27, Y+27	; 0x1b
    1d90:	a9 01       	movw	r20, r18
    1d92:	4f 5f       	subi	r20, 0xFF	; 255
    1d94:	5f 4f       	sbci	r21, 0xFF	; 255
    1d96:	a2 0f       	add	r26, r18
    1d98:	b3 1f       	adc	r27, r19
    1d9a:	9c 91       	ld	r25, X
    1d9c:	90 32       	cpi	r25, 0x20	; 32
    1d9e:	99 f0       	breq	.+38     	; 0x1dc6 <get_fileinfo+0x64>
    1da0:	95 30       	cpi	r25, 0x05	; 5
    1da2:	09 f4       	brne	.+2      	; 0x1da6 <get_fileinfo+0x44>
    1da4:	95 ee       	ldi	r25, 0xE5	; 229
    1da6:	49 30       	cpi	r20, 0x09	; 9
    1da8:	51 05       	cpc	r21, r1
    1daa:	39 f4       	brne	.+14     	; 0x1dba <get_fileinfo+0x58>
    1dac:	db 01       	movw	r26, r22
    1dae:	ae 0f       	add	r26, r30
    1db0:	bf 1f       	adc	r27, r31
    1db2:	8e e2       	ldi	r24, 0x2E	; 46
    1db4:	19 96       	adiw	r26, 0x09	; 9
    1db6:	8c 93       	st	X, r24
    1db8:	31 96       	adiw	r30, 0x01	; 1
    1dba:	db 01       	movw	r26, r22
    1dbc:	ae 0f       	add	r26, r30
    1dbe:	bf 1f       	adc	r27, r31
    1dc0:	19 96       	adiw	r26, 0x09	; 9
    1dc2:	9c 93       	st	X, r25
    1dc4:	31 96       	adiw	r30, 0x01	; 1
    1dc6:	9a 01       	movw	r18, r20
    1dc8:	2b 30       	cpi	r18, 0x0B	; 11
    1dca:	31 05       	cpc	r19, r1
    1dcc:	f8 f2       	brcs	.-66     	; 0x1d8c <get_fileinfo+0x2a>
    1dce:	8b 01       	movw	r16, r22
    1dd0:	e6 0f       	add	r30, r22
    1dd2:	f7 1f       	adc	r31, r23
    1dd4:	11 86       	std	Z+9, r1	; 0x09
    1dd6:	ea 8d       	ldd	r30, Y+26	; 0x1a
    1dd8:	fb 8d       	ldd	r31, Y+27	; 0x1b
    1dda:	83 85       	ldd	r24, Z+11	; 0x0b
    1ddc:	fb 01       	movw	r30, r22
    1dde:	80 87       	std	Z+8, r24	; 0x08
    1de0:	8a 8d       	ldd	r24, Y+26	; 0x1a
    1de2:	9b 8d       	ldd	r25, Y+27	; 0x1b
    1de4:	4c 96       	adiw	r24, 0x1c	; 28
    1de6:	e1 de       	rcall	.-574    	; 0x1baa <ld_dword>
    1de8:	f8 01       	movw	r30, r16
    1dea:	60 83       	st	Z, r22
    1dec:	71 83       	std	Z+1, r23	; 0x01
    1dee:	82 83       	std	Z+2, r24	; 0x02
    1df0:	93 83       	std	Z+3, r25	; 0x03
    1df2:	8a 8d       	ldd	r24, Y+26	; 0x1a
    1df4:	9b 8d       	ldd	r25, Y+27	; 0x1b
    1df6:	46 96       	adiw	r24, 0x16	; 22
    1df8:	d8 de       	rcall	.-592    	; 0x1baa <ld_dword>
    1dfa:	f8 01       	movw	r30, r16
    1dfc:	77 83       	std	Z+7, r23	; 0x07
    1dfe:	66 83       	std	Z+6, r22	; 0x06
    1e00:	95 83       	std	Z+5, r25	; 0x05
    1e02:	84 83       	std	Z+4, r24	; 0x04
    1e04:	df 91       	pop	r29
    1e06:	cf 91       	pop	r28
    1e08:	1f 91       	pop	r17
    1e0a:	0f 91       	pop	r16
    1e0c:	08 95       	ret

00001e0e <create_name>:
    1e0e:	4f 92       	push	r4
    1e10:	5f 92       	push	r5
    1e12:	6f 92       	push	r6
    1e14:	7f 92       	push	r7
    1e16:	8f 92       	push	r8
    1e18:	9f 92       	push	r9
    1e1a:	af 92       	push	r10
    1e1c:	bf 92       	push	r11
    1e1e:	cf 92       	push	r12
    1e20:	df 92       	push	r13
    1e22:	ef 92       	push	r14
    1e24:	ff 92       	push	r15
    1e26:	0f 93       	push	r16
    1e28:	1f 93       	push	r17
    1e2a:	cf 93       	push	r28
    1e2c:	df 93       	push	r29
    1e2e:	5c 01       	movw	r10, r24
    1e30:	3b 01       	movw	r6, r22
    1e32:	fb 01       	movw	r30, r22
    1e34:	c0 81       	ld	r28, Z
    1e36:	d1 81       	ldd	r29, Z+1	; 0x01
    1e38:	6c 01       	movw	r12, r24
    1e3a:	fc e1       	ldi	r31, 0x1C	; 28
    1e3c:	cf 0e       	add	r12, r31
    1e3e:	d1 1c       	adc	r13, r1
    1e40:	4b e0       	ldi	r20, 0x0B	; 11
    1e42:	50 e0       	ldi	r21, 0x00	; 0
    1e44:	60 e2       	ldi	r22, 0x20	; 32
    1e46:	70 e0       	ldi	r23, 0x00	; 0
    1e48:	c6 01       	movw	r24, r12
    1e4a:	e3 de       	rcall	.-570    	; 0x1c12 <mem_set>
    1e4c:	88 81       	ld	r24, Y
    1e4e:	8e 32       	cpi	r24, 0x2E	; 46
    1e50:	81 f5       	brne	.+96     	; 0x1eb2 <create_name+0xa4>
    1e52:	40 e0       	ldi	r20, 0x00	; 0
    1e54:	50 e0       	ldi	r21, 0x00	; 0
    1e56:	80 e0       	ldi	r24, 0x00	; 0
    1e58:	90 e0       	ldi	r25, 0x00	; 0
    1e5a:	9c 01       	movw	r18, r24
    1e5c:	2f 5f       	subi	r18, 0xFF	; 255
    1e5e:	3f 4f       	sbci	r19, 0xFF	; 255
    1e60:	fe 01       	movw	r30, r28
    1e62:	e8 0f       	add	r30, r24
    1e64:	f9 1f       	adc	r31, r25
    1e66:	80 81       	ld	r24, Z
    1e68:	8e 32       	cpi	r24, 0x2E	; 46
    1e6a:	59 f4       	brne	.+22     	; 0x1e82 <create_name+0x74>
    1e6c:	23 30       	cpi	r18, 0x03	; 3
    1e6e:	31 05       	cpc	r19, r1
    1e70:	40 f4       	brcc	.+16     	; 0x1e82 <create_name+0x74>
    1e72:	f6 01       	movw	r30, r12
    1e74:	e4 0f       	add	r30, r20
    1e76:	f5 1f       	adc	r31, r21
    1e78:	80 83       	st	Z, r24
    1e7a:	c9 01       	movw	r24, r18
    1e7c:	4f 5f       	subi	r20, 0xFF	; 255
    1e7e:	5f 4f       	sbci	r21, 0xFF	; 255
    1e80:	ec cf       	rjmp	.-40     	; 0x1e5a <create_name+0x4c>
    1e82:	8f 32       	cpi	r24, 0x2F	; 47
    1e84:	29 f0       	breq	.+10     	; 0x1e90 <create_name+0x82>
    1e86:	8c 35       	cpi	r24, 0x5C	; 92
    1e88:	19 f0       	breq	.+6      	; 0x1e90 <create_name+0x82>
    1e8a:	81 32       	cpi	r24, 0x21	; 33
    1e8c:	08 f0       	brcs	.+2      	; 0x1e90 <create_name+0x82>
    1e8e:	81 c0       	rjmp	.+258    	; 0x1f92 <create_name+0x184>
    1e90:	c2 0f       	add	r28, r18
    1e92:	d3 1f       	adc	r29, r19
    1e94:	f3 01       	movw	r30, r6
    1e96:	d1 83       	std	Z+1, r29	; 0x01
    1e98:	c0 83       	st	Z, r28
    1e9a:	81 32       	cpi	r24, 0x21	; 33
    1e9c:	10 f4       	brcc	.+4      	; 0x1ea2 <create_name+0x94>
    1e9e:	84 e2       	ldi	r24, 0x24	; 36
    1ea0:	01 c0       	rjmp	.+2      	; 0x1ea4 <create_name+0x96>
    1ea2:	80 e2       	ldi	r24, 0x20	; 32
    1ea4:	f5 01       	movw	r30, r10
    1ea6:	87 a3       	std	Z+39, r24	; 0x27
    1ea8:	80 e0       	ldi	r24, 0x00	; 0
    1eaa:	90 e0       	ldi	r25, 0x00	; 0
    1eac:	83 c0       	rjmp	.+262    	; 0x1fb4 <create_name+0x1a6>
    1eae:	c8 01       	movw	r24, r16
    1eb0:	08 c0       	rjmp	.+16     	; 0x1ec2 <create_name+0xb4>
    1eb2:	e1 2c       	mov	r14, r1
    1eb4:	f1 2c       	mov	r15, r1
    1eb6:	80 e0       	ldi	r24, 0x00	; 0
    1eb8:	90 e0       	ldi	r25, 0x00	; 0
    1eba:	68 94       	set
    1ebc:	88 24       	eor	r8, r8
    1ebe:	83 f8       	bld	r8, 3
    1ec0:	91 2c       	mov	r9, r1
    1ec2:	8c 01       	movw	r16, r24
    1ec4:	0f 5f       	subi	r16, 0xFF	; 255
    1ec6:	1f 4f       	sbci	r17, 0xFF	; 255
    1ec8:	fe 01       	movw	r30, r28
    1eca:	e8 0f       	add	r30, r24
    1ecc:	f9 1f       	adc	r31, r25
    1ece:	40 80       	ld	r4, Z
    1ed0:	54 2c       	mov	r5, r4
    1ed2:	f0 e2       	ldi	r31, 0x20	; 32
    1ed4:	f4 15       	cp	r31, r4
    1ed6:	08 f0       	brcs	.+2      	; 0x1eda <create_name+0xcc>
    1ed8:	44 c0       	rjmp	.+136    	; 0x1f62 <create_name+0x154>
    1eda:	8f e2       	ldi	r24, 0x2F	; 47
    1edc:	48 16       	cp	r4, r24
    1ede:	31 f0       	breq	.+12     	; 0x1eec <create_name+0xde>
    1ee0:	9c e5       	ldi	r25, 0x5C	; 92
    1ee2:	49 12       	cpse	r4, r25
    1ee4:	0c c0       	rjmp	.+24     	; 0x1efe <create_name+0xf0>
    1ee6:	02 c0       	rjmp	.+4      	; 0x1eec <create_name+0xde>
    1ee8:	0f 5f       	subi	r16, 0xFF	; 255
    1eea:	1f 4f       	sbci	r17, 0xFF	; 255
    1eec:	fe 01       	movw	r30, r28
    1eee:	e0 0f       	add	r30, r16
    1ef0:	f1 1f       	adc	r31, r17
    1ef2:	80 81       	ld	r24, Z
    1ef4:	8f 32       	cpi	r24, 0x2F	; 47
    1ef6:	c1 f3       	breq	.-16     	; 0x1ee8 <create_name+0xda>
    1ef8:	8c 35       	cpi	r24, 0x5C	; 92
    1efa:	b1 f3       	breq	.-20     	; 0x1ee8 <create_name+0xda>
    1efc:	32 c0       	rjmp	.+100    	; 0x1f62 <create_name+0x154>
    1efe:	ee e2       	ldi	r30, 0x2E	; 46
    1f00:	4e 16       	cp	r4, r30
    1f02:	19 f0       	breq	.+6      	; 0x1f0a <create_name+0xfc>
    1f04:	e8 14       	cp	r14, r8
    1f06:	f9 04       	cpc	r15, r9
    1f08:	90 f0       	brcs	.+36     	; 0x1f2e <create_name+0x120>
    1f0a:	fb e0       	ldi	r31, 0x0B	; 11
    1f0c:	8f 16       	cp	r8, r31
    1f0e:	91 04       	cpc	r9, r1
    1f10:	09 f4       	brne	.+2      	; 0x1f14 <create_name+0x106>
    1f12:	42 c0       	rjmp	.+132    	; 0x1f98 <create_name+0x18a>
    1f14:	8e e2       	ldi	r24, 0x2E	; 46
    1f16:	58 12       	cpse	r5, r24
    1f18:	42 c0       	rjmp	.+132    	; 0x1f9e <create_name+0x190>
    1f1a:	68 94       	set
    1f1c:	ee 24       	eor	r14, r14
    1f1e:	e3 f8       	bld	r14, 3
    1f20:	f1 2c       	mov	r15, r1
    1f22:	0f 2e       	mov	r0, r31
    1f24:	fb e0       	ldi	r31, 0x0B	; 11
    1f26:	8f 2e       	mov	r8, r31
    1f28:	91 2c       	mov	r9, r1
    1f2a:	f0 2d       	mov	r31, r0
    1f2c:	c0 cf       	rjmp	.-128    	; 0x1eae <create_name+0xa0>
    1f2e:	44 20       	and	r4, r4
    1f30:	cc f1       	brlt	.+114    	; 0x1fa4 <create_name+0x196>
    1f32:	64 2d       	mov	r22, r4
    1f34:	70 e0       	ldi	r23, 0x00	; 0
    1f36:	84 ee       	ldi	r24, 0xE4	; 228
    1f38:	91 e0       	ldi	r25, 0x01	; 1
    1f3a:	8c de       	rcall	.-744    	; 0x1c54 <chk_chr>
    1f3c:	89 2b       	or	r24, r25
    1f3e:	a9 f5       	brne	.+106    	; 0x1faa <create_name+0x19c>
    1f40:	8f e9       	ldi	r24, 0x9F	; 159
    1f42:	84 0d       	add	r24, r4
    1f44:	8a 31       	cpi	r24, 0x1A	; 26
    1f46:	28 f4       	brcc	.+10     	; 0x1f52 <create_name+0x144>
    1f48:	0f 2e       	mov	r0, r31
    1f4a:	f0 ee       	ldi	r31, 0xE0	; 224
    1f4c:	5f 2e       	mov	r5, r31
    1f4e:	f0 2d       	mov	r31, r0
    1f50:	54 0c       	add	r5, r4
    1f52:	f6 01       	movw	r30, r12
    1f54:	ee 0d       	add	r30, r14
    1f56:	ff 1d       	adc	r31, r15
    1f58:	50 82       	st	Z, r5
    1f5a:	f7 01       	movw	r30, r14
    1f5c:	31 96       	adiw	r30, 0x01	; 1
    1f5e:	7f 01       	movw	r14, r30
    1f60:	a6 cf       	rjmp	.-180    	; 0x1eae <create_name+0xa0>
    1f62:	c0 0f       	add	r28, r16
    1f64:	d1 1f       	adc	r29, r17
    1f66:	f3 01       	movw	r30, r6
    1f68:	d1 83       	std	Z+1, r29	; 0x01
    1f6a:	c0 83       	st	Z, r28
    1f6c:	ef 28       	or	r14, r15
    1f6e:	01 f1       	breq	.+64     	; 0x1fb0 <create_name+0x1a2>
    1f70:	f5 01       	movw	r30, r10
    1f72:	84 8d       	ldd	r24, Z+28	; 0x1c
    1f74:	85 3e       	cpi	r24, 0xE5	; 229
    1f76:	11 f4       	brne	.+4      	; 0x1f7c <create_name+0x16e>
    1f78:	85 e0       	ldi	r24, 0x05	; 5
    1f7a:	84 8f       	std	Z+28, r24	; 0x1c
    1f7c:	f0 e2       	ldi	r31, 0x20	; 32
    1f7e:	f5 15       	cp	r31, r5
    1f80:	10 f0       	brcs	.+4      	; 0x1f86 <create_name+0x178>
    1f82:	84 e0       	ldi	r24, 0x04	; 4
    1f84:	01 c0       	rjmp	.+2      	; 0x1f88 <create_name+0x17a>
    1f86:	80 e0       	ldi	r24, 0x00	; 0
    1f88:	f5 01       	movw	r30, r10
    1f8a:	87 a3       	std	Z+39, r24	; 0x27
    1f8c:	80 e0       	ldi	r24, 0x00	; 0
    1f8e:	90 e0       	ldi	r25, 0x00	; 0
    1f90:	11 c0       	rjmp	.+34     	; 0x1fb4 <create_name+0x1a6>
    1f92:	86 e0       	ldi	r24, 0x06	; 6
    1f94:	90 e0       	ldi	r25, 0x00	; 0
    1f96:	0e c0       	rjmp	.+28     	; 0x1fb4 <create_name+0x1a6>
    1f98:	86 e0       	ldi	r24, 0x06	; 6
    1f9a:	90 e0       	ldi	r25, 0x00	; 0
    1f9c:	0b c0       	rjmp	.+22     	; 0x1fb4 <create_name+0x1a6>
    1f9e:	86 e0       	ldi	r24, 0x06	; 6
    1fa0:	90 e0       	ldi	r25, 0x00	; 0
    1fa2:	08 c0       	rjmp	.+16     	; 0x1fb4 <create_name+0x1a6>
    1fa4:	86 e0       	ldi	r24, 0x06	; 6
    1fa6:	90 e0       	ldi	r25, 0x00	; 0
    1fa8:	05 c0       	rjmp	.+10     	; 0x1fb4 <create_name+0x1a6>
    1faa:	86 e0       	ldi	r24, 0x06	; 6
    1fac:	90 e0       	ldi	r25, 0x00	; 0
    1fae:	02 c0       	rjmp	.+4      	; 0x1fb4 <create_name+0x1a6>
    1fb0:	86 e0       	ldi	r24, 0x06	; 6
    1fb2:	90 e0       	ldi	r25, 0x00	; 0
    1fb4:	df 91       	pop	r29
    1fb6:	cf 91       	pop	r28
    1fb8:	1f 91       	pop	r17
    1fba:	0f 91       	pop	r16
    1fbc:	ff 90       	pop	r15
    1fbe:	ef 90       	pop	r14
    1fc0:	df 90       	pop	r13
    1fc2:	cf 90       	pop	r12
    1fc4:	bf 90       	pop	r11
    1fc6:	af 90       	pop	r10
    1fc8:	9f 90       	pop	r9
    1fca:	8f 90       	pop	r8
    1fcc:	7f 90       	pop	r7
    1fce:	6f 90       	pop	r6
    1fd0:	5f 90       	pop	r5
    1fd2:	4f 90       	pop	r4
    1fd4:	08 95       	ret

00001fd6 <get_ldnumber>:
    1fd6:	cf 93       	push	r28
    1fd8:	df 93       	push	r29
    1fda:	ec 01       	movw	r28, r24
    1fdc:	a8 81       	ld	r26, Y
    1fde:	b9 81       	ldd	r27, Y+1	; 0x01
    1fe0:	10 97       	sbiw	r26, 0x00	; 0
    1fe2:	29 f4       	brne	.+10     	; 0x1fee <get_ldnumber+0x18>
    1fe4:	8f ef       	ldi	r24, 0xFF	; 255
    1fe6:	9f ef       	ldi	r25, 0xFF	; 255
    1fe8:	2a c0       	rjmp	.+84     	; 0x203e <get_ldnumber+0x68>
    1fea:	31 96       	adiw	r30, 0x01	; 1
    1fec:	01 c0       	rjmp	.+2      	; 0x1ff0 <get_ldnumber+0x1a>
    1fee:	fd 01       	movw	r30, r26
    1ff0:	90 81       	ld	r25, Z
    1ff2:	91 32       	cpi	r25, 0x21	; 33
    1ff4:	10 f0       	brcs	.+4      	; 0x1ffa <get_ldnumber+0x24>
    1ff6:	9a 33       	cpi	r25, 0x3A	; 58
    1ff8:	c1 f7       	brne	.-16     	; 0x1fea <get_ldnumber+0x14>
    1ffa:	9a 33       	cpi	r25, 0x3A	; 58
    1ffc:	a9 f4       	brne	.+42     	; 0x2028 <get_ldnumber+0x52>
    1ffe:	ad 01       	movw	r20, r26
    2000:	4f 5f       	subi	r20, 0xFF	; 255
    2002:	5f 4f       	sbci	r21, 0xFF	; 255
    2004:	2c 91       	ld	r18, X
    2006:	02 2e       	mov	r0, r18
    2008:	00 0c       	add	r0, r0
    200a:	33 0b       	sbc	r19, r19
    200c:	c9 01       	movw	r24, r18
    200e:	c0 97       	sbiw	r24, 0x30	; 48
    2010:	8a 30       	cpi	r24, 0x0A	; 10
    2012:	91 05       	cpc	r25, r1
    2014:	60 f4       	brcc	.+24     	; 0x202e <get_ldnumber+0x58>
    2016:	e4 17       	cp	r30, r20
    2018:	f5 07       	cpc	r31, r21
    201a:	61 f4       	brne	.+24     	; 0x2034 <get_ldnumber+0x5e>
    201c:	00 97       	sbiw	r24, 0x00	; 0
    201e:	69 f4       	brne	.+26     	; 0x203a <get_ldnumber+0x64>
    2020:	31 96       	adiw	r30, 0x01	; 1
    2022:	f9 83       	std	Y+1, r31	; 0x01
    2024:	e8 83       	st	Y, r30
    2026:	0b c0       	rjmp	.+22     	; 0x203e <get_ldnumber+0x68>
    2028:	80 e0       	ldi	r24, 0x00	; 0
    202a:	90 e0       	ldi	r25, 0x00	; 0
    202c:	08 c0       	rjmp	.+16     	; 0x203e <get_ldnumber+0x68>
    202e:	8f ef       	ldi	r24, 0xFF	; 255
    2030:	9f ef       	ldi	r25, 0xFF	; 255
    2032:	05 c0       	rjmp	.+10     	; 0x203e <get_ldnumber+0x68>
    2034:	8f ef       	ldi	r24, 0xFF	; 255
    2036:	9f ef       	ldi	r25, 0xFF	; 255
    2038:	02 c0       	rjmp	.+4      	; 0x203e <get_ldnumber+0x68>
    203a:	8f ef       	ldi	r24, 0xFF	; 255
    203c:	9f ef       	ldi	r25, 0xFF	; 255
    203e:	df 91       	pop	r29
    2040:	cf 91       	pop	r28
    2042:	08 95       	ret

00002044 <validate>:
    2044:	0f 93       	push	r16
    2046:	1f 93       	push	r17
    2048:	cf 93       	push	r28
    204a:	df 93       	push	r29
    204c:	ec 01       	movw	r28, r24
    204e:	8b 01       	movw	r16, r22
    2050:	89 2b       	or	r24, r25
    2052:	91 f0       	breq	.+36     	; 0x2078 <validate+0x34>
    2054:	e8 81       	ld	r30, Y
    2056:	f9 81       	ldd	r31, Y+1	; 0x01
    2058:	30 97       	sbiw	r30, 0x00	; 0
    205a:	71 f0       	breq	.+28     	; 0x2078 <validate+0x34>
    205c:	80 81       	ld	r24, Z
    205e:	88 23       	and	r24, r24
    2060:	59 f0       	breq	.+22     	; 0x2078 <validate+0x34>
    2062:	25 81       	ldd	r18, Z+5	; 0x05
    2064:	36 81       	ldd	r19, Z+6	; 0x06
    2066:	8a 81       	ldd	r24, Y+2	; 0x02
    2068:	9b 81       	ldd	r25, Y+3	; 0x03
    206a:	28 17       	cp	r18, r24
    206c:	39 07       	cpc	r19, r25
    206e:	21 f4       	brne	.+8      	; 0x2078 <validate+0x34>
    2070:	81 81       	ldd	r24, Z+1	; 0x01
    2072:	54 dd       	rcall	.-1368   	; 0x1b1c <disk_status>
    2074:	80 ff       	sbrs	r24, 0
    2076:	06 c0       	rjmp	.+12     	; 0x2084 <validate+0x40>
    2078:	f8 01       	movw	r30, r16
    207a:	11 82       	std	Z+1, r1	; 0x01
    207c:	10 82       	st	Z, r1
    207e:	89 e0       	ldi	r24, 0x09	; 9
    2080:	90 e0       	ldi	r25, 0x00	; 0
    2082:	07 c0       	rjmp	.+14     	; 0x2092 <validate+0x4e>
    2084:	88 81       	ld	r24, Y
    2086:	99 81       	ldd	r25, Y+1	; 0x01
    2088:	f8 01       	movw	r30, r16
    208a:	91 83       	std	Z+1, r25	; 0x01
    208c:	80 83       	st	Z, r24
    208e:	80 e0       	ldi	r24, 0x00	; 0
    2090:	90 e0       	ldi	r25, 0x00	; 0
    2092:	df 91       	pop	r29
    2094:	cf 91       	pop	r28
    2096:	1f 91       	pop	r17
    2098:	0f 91       	pop	r16
    209a:	08 95       	ret

0000209c <sync_window>:
    209c:	8f 92       	push	r8
    209e:	9f 92       	push	r9
    20a0:	af 92       	push	r10
    20a2:	bf 92       	push	r11
    20a4:	cf 92       	push	r12
    20a6:	df 92       	push	r13
    20a8:	ef 92       	push	r14
    20aa:	ff 92       	push	r15
    20ac:	0f 93       	push	r16
    20ae:	1f 93       	push	r17
    20b0:	cf 93       	push	r28
    20b2:	df 93       	push	r29
    20b4:	fc 01       	movw	r30, r24
    20b6:	23 81       	ldd	r18, Z+3	; 0x03
    20b8:	22 23       	and	r18, r18
    20ba:	09 f4       	brne	.+2      	; 0x20be <sync_window+0x22>
    20bc:	42 c0       	rjmp	.+132    	; 0x2142 <sync_window+0xa6>
    20be:	ec 01       	movw	r28, r24
    20c0:	c7 a4       	ldd	r12, Z+47	; 0x2f
    20c2:	d0 a8       	ldd	r13, Z+48	; 0x30
    20c4:	e1 a8       	ldd	r14, Z+49	; 0x31
    20c6:	f2 a8       	ldd	r15, Z+50	; 0x32
    20c8:	5c 01       	movw	r10, r24
    20ca:	f3 e3       	ldi	r31, 0x33	; 51
    20cc:	af 0e       	add	r10, r31
    20ce:	b1 1c       	adc	r11, r1
    20d0:	01 e0       	ldi	r16, 0x01	; 1
    20d2:	10 e0       	ldi	r17, 0x00	; 0
    20d4:	a7 01       	movw	r20, r14
    20d6:	96 01       	movw	r18, r12
    20d8:	b5 01       	movw	r22, r10
    20da:	89 81       	ldd	r24, Y+1	; 0x01
    20dc:	3e dd       	rcall	.-1412   	; 0x1b5a <disk_write>
    20de:	89 2b       	or	r24, r25
    20e0:	99 f5       	brne	.+102    	; 0x2148 <sync_window+0xac>
    20e2:	1b 82       	std	Y+3, r1	; 0x03
    20e4:	8b a1       	ldd	r24, Y+35	; 0x23
    20e6:	9c a1       	ldd	r25, Y+36	; 0x24
    20e8:	ad a1       	ldd	r26, Y+37	; 0x25
    20ea:	be a1       	ldd	r27, Y+38	; 0x26
    20ec:	b7 01       	movw	r22, r14
    20ee:	a6 01       	movw	r20, r12
    20f0:	48 1b       	sub	r20, r24
    20f2:	59 0b       	sbc	r21, r25
    20f4:	6a 0b       	sbc	r22, r26
    20f6:	7b 0b       	sbc	r23, r27
    20f8:	8b 8d       	ldd	r24, Y+27	; 0x1b
    20fa:	9c 8d       	ldd	r25, Y+28	; 0x1c
    20fc:	ad 8d       	ldd	r26, Y+29	; 0x1d
    20fe:	be 8d       	ldd	r27, Y+30	; 0x1e
    2100:	48 17       	cp	r20, r24
    2102:	59 07       	cpc	r21, r25
    2104:	6a 07       	cpc	r22, r26
    2106:	7b 07       	cpc	r23, r27
    2108:	10 f5       	brcc	.+68     	; 0x214e <sync_window+0xb2>
    210a:	8a 80       	ldd	r8, Y+2	; 0x02
    210c:	91 2c       	mov	r9, r1
    210e:	12 c0       	rjmp	.+36     	; 0x2134 <sync_window+0x98>
    2110:	8b 8d       	ldd	r24, Y+27	; 0x1b
    2112:	9c 8d       	ldd	r25, Y+28	; 0x1c
    2114:	ad 8d       	ldd	r26, Y+29	; 0x1d
    2116:	be 8d       	ldd	r27, Y+30	; 0x1e
    2118:	c8 0e       	add	r12, r24
    211a:	d9 1e       	adc	r13, r25
    211c:	ea 1e       	adc	r14, r26
    211e:	fb 1e       	adc	r15, r27
    2120:	01 e0       	ldi	r16, 0x01	; 1
    2122:	10 e0       	ldi	r17, 0x00	; 0
    2124:	a7 01       	movw	r20, r14
    2126:	96 01       	movw	r18, r12
    2128:	b5 01       	movw	r22, r10
    212a:	89 81       	ldd	r24, Y+1	; 0x01
    212c:	16 dd       	rcall	.-1492   	; 0x1b5a <disk_write>
    212e:	81 e0       	ldi	r24, 0x01	; 1
    2130:	88 1a       	sub	r8, r24
    2132:	91 08       	sbc	r9, r1
    2134:	e2 e0       	ldi	r30, 0x02	; 2
    2136:	8e 16       	cp	r8, r30
    2138:	91 04       	cpc	r9, r1
    213a:	50 f7       	brcc	.-44     	; 0x2110 <sync_window+0x74>
    213c:	80 e0       	ldi	r24, 0x00	; 0
    213e:	90 e0       	ldi	r25, 0x00	; 0
    2140:	08 c0       	rjmp	.+16     	; 0x2152 <sync_window+0xb6>
    2142:	80 e0       	ldi	r24, 0x00	; 0
    2144:	90 e0       	ldi	r25, 0x00	; 0
    2146:	05 c0       	rjmp	.+10     	; 0x2152 <sync_window+0xb6>
    2148:	81 e0       	ldi	r24, 0x01	; 1
    214a:	90 e0       	ldi	r25, 0x00	; 0
    214c:	02 c0       	rjmp	.+4      	; 0x2152 <sync_window+0xb6>
    214e:	80 e0       	ldi	r24, 0x00	; 0
    2150:	90 e0       	ldi	r25, 0x00	; 0
    2152:	df 91       	pop	r29
    2154:	cf 91       	pop	r28
    2156:	1f 91       	pop	r17
    2158:	0f 91       	pop	r16
    215a:	ff 90       	pop	r15
    215c:	ef 90       	pop	r14
    215e:	df 90       	pop	r13
    2160:	cf 90       	pop	r12
    2162:	bf 90       	pop	r11
    2164:	af 90       	pop	r10
    2166:	9f 90       	pop	r9
    2168:	8f 90       	pop	r8
    216a:	08 95       	ret

0000216c <move_window>:
    216c:	8f 92       	push	r8
    216e:	9f 92       	push	r9
    2170:	af 92       	push	r10
    2172:	bf 92       	push	r11
    2174:	ef 92       	push	r14
    2176:	ff 92       	push	r15
    2178:	0f 93       	push	r16
    217a:	1f 93       	push	r17
    217c:	cf 93       	push	r28
    217e:	df 93       	push	r29
    2180:	ec 01       	movw	r28, r24
    2182:	4a 01       	movw	r8, r20
    2184:	5b 01       	movw	r10, r22
    2186:	8f a5       	ldd	r24, Y+47	; 0x2f
    2188:	98 a9       	ldd	r25, Y+48	; 0x30
    218a:	a9 a9       	ldd	r26, Y+49	; 0x31
    218c:	ba a9       	ldd	r27, Y+50	; 0x32
    218e:	84 17       	cp	r24, r20
    2190:	95 07       	cpc	r25, r21
    2192:	a6 07       	cpc	r26, r22
    2194:	b7 07       	cpc	r27, r23
    2196:	e1 f0       	breq	.+56     	; 0x21d0 <move_window+0x64>
    2198:	ce 01       	movw	r24, r28
    219a:	80 df       	rcall	.-256    	; 0x209c <sync_window>
    219c:	7c 01       	movw	r14, r24
    219e:	89 2b       	or	r24, r25
    21a0:	c9 f4       	brne	.+50     	; 0x21d4 <move_window+0x68>
    21a2:	01 e0       	ldi	r16, 0x01	; 1
    21a4:	10 e0       	ldi	r17, 0x00	; 0
    21a6:	a5 01       	movw	r20, r10
    21a8:	94 01       	movw	r18, r8
    21aa:	be 01       	movw	r22, r28
    21ac:	6d 5c       	subi	r22, 0xCD	; 205
    21ae:	7f 4f       	sbci	r23, 0xFF	; 255
    21b0:	89 81       	ldd	r24, Y+1	; 0x01
    21b2:	c2 dc       	rcall	.-1660   	; 0x1b38 <disk_read>
    21b4:	89 2b       	or	r24, r25
    21b6:	39 f0       	breq	.+14     	; 0x21c6 <move_window+0x5a>
    21b8:	ee 24       	eor	r14, r14
    21ba:	e3 94       	inc	r14
    21bc:	f1 2c       	mov	r15, r1
    21be:	88 24       	eor	r8, r8
    21c0:	8a 94       	dec	r8
    21c2:	98 2c       	mov	r9, r8
    21c4:	54 01       	movw	r10, r8
    21c6:	8f a6       	std	Y+47, r8	; 0x2f
    21c8:	98 aa       	std	Y+48, r9	; 0x30
    21ca:	a9 aa       	std	Y+49, r10	; 0x31
    21cc:	ba aa       	std	Y+50, r11	; 0x32
    21ce:	02 c0       	rjmp	.+4      	; 0x21d4 <move_window+0x68>
    21d0:	e1 2c       	mov	r14, r1
    21d2:	f1 2c       	mov	r15, r1
    21d4:	c7 01       	movw	r24, r14
    21d6:	df 91       	pop	r29
    21d8:	cf 91       	pop	r28
    21da:	1f 91       	pop	r17
    21dc:	0f 91       	pop	r16
    21de:	ff 90       	pop	r15
    21e0:	ef 90       	pop	r14
    21e2:	bf 90       	pop	r11
    21e4:	af 90       	pop	r10
    21e6:	9f 90       	pop	r9
    21e8:	8f 90       	pop	r8
    21ea:	08 95       	ret

000021ec <check_fs>:
    21ec:	cf 93       	push	r28
    21ee:	df 93       	push	r29
    21f0:	ec 01       	movw	r28, r24
    21f2:	1b 82       	std	Y+3, r1	; 0x03
    21f4:	8f ef       	ldi	r24, 0xFF	; 255
    21f6:	9f ef       	ldi	r25, 0xFF	; 255
    21f8:	dc 01       	movw	r26, r24
    21fa:	8f a7       	std	Y+47, r24	; 0x2f
    21fc:	98 ab       	std	Y+48, r25	; 0x30
    21fe:	a9 ab       	std	Y+49, r26	; 0x31
    2200:	ba ab       	std	Y+50, r27	; 0x32
    2202:	ce 01       	movw	r24, r28
    2204:	b3 df       	rcall	.-154    	; 0x216c <move_window>
    2206:	89 2b       	or	r24, r25
    2208:	31 f5       	brne	.+76     	; 0x2256 <check_fs+0x6a>
    220a:	ce 01       	movw	r24, r28
    220c:	8f 5c       	subi	r24, 0xCF	; 207
    220e:	9d 4f       	sbci	r25, 0xFD	; 253
    2210:	c2 dc       	rcall	.-1660   	; 0x1b96 <ld_word>
    2212:	85 35       	cpi	r24, 0x55	; 85
    2214:	9a 4a       	sbci	r25, 0xAA	; 170
    2216:	09 f5       	brne	.+66     	; 0x225a <check_fs+0x6e>
    2218:	8b a9       	ldd	r24, Y+51	; 0x33
    221a:	89 3e       	cpi	r24, 0xE9	; 233
    221c:	29 f0       	breq	.+10     	; 0x2228 <check_fs+0x3c>
    221e:	8b 3e       	cpi	r24, 0xEB	; 235
    2220:	f1 f4       	brne	.+60     	; 0x225e <check_fs+0x72>
    2222:	8d a9       	ldd	r24, Y+53	; 0x35
    2224:	80 39       	cpi	r24, 0x90	; 144
    2226:	e9 f4       	brne	.+58     	; 0x2262 <check_fs+0x76>
    2228:	ce 01       	movw	r24, r28
    222a:	87 59       	subi	r24, 0x97	; 151
    222c:	9f 4f       	sbci	r25, 0xFF	; 255
    222e:	bd dc       	rcall	.-1670   	; 0x1baa <ld_dword>
    2230:	dc 01       	movw	r26, r24
    2232:	cb 01       	movw	r24, r22
    2234:	bb 27       	eor	r27, r27
    2236:	86 34       	cpi	r24, 0x46	; 70
    2238:	91 44       	sbci	r25, 0x41	; 65
    223a:	a4 45       	sbci	r26, 0x54	; 84
    223c:	b1 05       	cpc	r27, r1
    223e:	99 f0       	breq	.+38     	; 0x2266 <check_fs+0x7a>
    2240:	ce 01       	movw	r24, r28
    2242:	8b 57       	subi	r24, 0x7B	; 123
    2244:	9f 4f       	sbci	r25, 0xFF	; 255
    2246:	b1 dc       	rcall	.-1694   	; 0x1baa <ld_dword>
    2248:	66 34       	cpi	r22, 0x46	; 70
    224a:	71 44       	sbci	r23, 0x41	; 65
    224c:	84 45       	sbci	r24, 0x54	; 84
    224e:	93 43       	sbci	r25, 0x33	; 51
    2250:	61 f4       	brne	.+24     	; 0x226a <check_fs+0x7e>
    2252:	80 e0       	ldi	r24, 0x00	; 0
    2254:	0b c0       	rjmp	.+22     	; 0x226c <check_fs+0x80>
    2256:	84 e0       	ldi	r24, 0x04	; 4
    2258:	09 c0       	rjmp	.+18     	; 0x226c <check_fs+0x80>
    225a:	83 e0       	ldi	r24, 0x03	; 3
    225c:	07 c0       	rjmp	.+14     	; 0x226c <check_fs+0x80>
    225e:	82 e0       	ldi	r24, 0x02	; 2
    2260:	05 c0       	rjmp	.+10     	; 0x226c <check_fs+0x80>
    2262:	82 e0       	ldi	r24, 0x02	; 2
    2264:	03 c0       	rjmp	.+6      	; 0x226c <check_fs+0x80>
    2266:	80 e0       	ldi	r24, 0x00	; 0
    2268:	01 c0       	rjmp	.+2      	; 0x226c <check_fs+0x80>
    226a:	82 e0       	ldi	r24, 0x02	; 2
    226c:	df 91       	pop	r29
    226e:	cf 91       	pop	r28
    2270:	08 95       	ret

00002272 <find_volume>:
    2272:	4f 92       	push	r4
    2274:	5f 92       	push	r5
    2276:	6f 92       	push	r6
    2278:	7f 92       	push	r7
    227a:	8f 92       	push	r8
    227c:	9f 92       	push	r9
    227e:	af 92       	push	r10
    2280:	bf 92       	push	r11
    2282:	cf 92       	push	r12
    2284:	df 92       	push	r13
    2286:	ef 92       	push	r14
    2288:	ff 92       	push	r15
    228a:	0f 93       	push	r16
    228c:	1f 93       	push	r17
    228e:	cf 93       	push	r28
    2290:	df 93       	push	r29
    2292:	cd b7       	in	r28, 0x3d	; 61
    2294:	de b7       	in	r29, 0x3e	; 62
    2296:	a0 97       	sbiw	r28, 0x20	; 32
    2298:	0f b6       	in	r0, 0x3f	; 63
    229a:	f8 94       	cli
    229c:	de bf       	out	0x3e, r29	; 62
    229e:	0f be       	out	0x3f, r0	; 63
    22a0:	cd bf       	out	0x3d, r28	; 61
    22a2:	6b 01       	movw	r12, r22
    22a4:	b4 2e       	mov	r11, r20
    22a6:	db 01       	movw	r26, r22
    22a8:	1d 92       	st	X+, r1
    22aa:	1c 92       	st	X, r1
    22ac:	94 de       	rcall	.-728    	; 0x1fd6 <get_ldnumber>
    22ae:	7c 01       	movw	r14, r24
    22b0:	99 23       	and	r25, r25
    22b2:	0c f4       	brge	.+2      	; 0x22b6 <find_volume+0x44>
    22b4:	56 c2       	rjmp	.+1196   	; 0x2762 <find_volume+0x4f0>
    22b6:	fc 01       	movw	r30, r24
    22b8:	ee 0f       	add	r30, r30
    22ba:	ff 1f       	adc	r31, r31
    22bc:	e1 5f       	subi	r30, 0xF1	; 241
    22be:	fd 4f       	sbci	r31, 0xFD	; 253
    22c0:	00 81       	ld	r16, Z
    22c2:	11 81       	ldd	r17, Z+1	; 0x01
    22c4:	01 15       	cp	r16, r1
    22c6:	11 05       	cpc	r17, r1
    22c8:	09 f4       	brne	.+2      	; 0x22cc <find_volume+0x5a>
    22ca:	4e c2       	rjmp	.+1180   	; 0x2768 <find_volume+0x4f6>
    22cc:	f6 01       	movw	r30, r12
    22ce:	11 83       	std	Z+1, r17	; 0x01
    22d0:	00 83       	st	Z, r16
    22d2:	fb 2d       	mov	r31, r11
    22d4:	fe 7f       	andi	r31, 0xFE	; 254
    22d6:	bf 2e       	mov	r11, r31
    22d8:	d8 01       	movw	r26, r16
    22da:	8c 91       	ld	r24, X
    22dc:	88 23       	and	r24, r24
    22de:	69 f0       	breq	.+26     	; 0x22fa <find_volume+0x88>
    22e0:	11 96       	adiw	r26, 0x01	; 1
    22e2:	8c 91       	ld	r24, X
    22e4:	1b dc       	rcall	.-1994   	; 0x1b1c <disk_status>
    22e6:	80 fd       	sbrc	r24, 0
    22e8:	08 c0       	rjmp	.+16     	; 0x22fa <find_volume+0x88>
    22ea:	bb 20       	and	r11, r11
    22ec:	09 f4       	brne	.+2      	; 0x22f0 <find_volume+0x7e>
    22ee:	3f c2       	rjmp	.+1150   	; 0x276e <find_volume+0x4fc>
    22f0:	82 fd       	sbrc	r24, 2
    22f2:	40 c2       	rjmp	.+1152   	; 0x2774 <find_volume+0x502>
    22f4:	80 e0       	ldi	r24, 0x00	; 0
    22f6:	90 e0       	ldi	r25, 0x00	; 0
    22f8:	6f c2       	rjmp	.+1246   	; 0x27d8 <find_volume+0x566>
    22fa:	f8 01       	movw	r30, r16
    22fc:	10 82       	st	Z, r1
    22fe:	e1 82       	std	Z+1, r14	; 0x01
    2300:	8e 2d       	mov	r24, r14
    2302:	13 dc       	rcall	.-2010   	; 0x1b2a <disk_initialize>
    2304:	80 fd       	sbrc	r24, 0
    2306:	39 c2       	rjmp	.+1138   	; 0x277a <find_volume+0x508>
    2308:	bb 20       	and	r11, r11
    230a:	11 f0       	breq	.+4      	; 0x2310 <find_volume+0x9e>
    230c:	82 fd       	sbrc	r24, 2
    230e:	38 c2       	rjmp	.+1136   	; 0x2780 <find_volume+0x50e>
    2310:	40 e0       	ldi	r20, 0x00	; 0
    2312:	50 e0       	ldi	r21, 0x00	; 0
    2314:	ba 01       	movw	r22, r20
    2316:	c8 01       	movw	r24, r16
    2318:	69 df       	rcall	.-302    	; 0x21ec <check_fs>
    231a:	82 30       	cpi	r24, 0x02	; 2
    231c:	71 f1       	breq	.+92     	; 0x237a <find_volume+0x108>
    231e:	c1 2c       	mov	r12, r1
    2320:	d1 2c       	mov	r13, r1
    2322:	76 01       	movw	r14, r12
    2324:	55 c0       	rjmp	.+170    	; 0x23d0 <find_volume+0x15e>
    2326:	f7 01       	movw	r30, r14
    2328:	e2 95       	swap	r30
    232a:	f2 95       	swap	r31
    232c:	f0 7f       	andi	r31, 0xF0	; 240
    232e:	fe 27       	eor	r31, r30
    2330:	e0 7f       	andi	r30, 0xF0	; 240
    2332:	fe 27       	eor	r31, r30
    2334:	e2 54       	subi	r30, 0x42	; 66
    2336:	fe 4f       	sbci	r31, 0xFE	; 254
    2338:	c8 01       	movw	r24, r16
    233a:	c3 96       	adiw	r24, 0x33	; 51
    233c:	e8 0f       	add	r30, r24
    233e:	f9 1f       	adc	r31, r25
    2340:	84 81       	ldd	r24, Z+4	; 0x04
    2342:	88 23       	and	r24, r24
    2344:	21 f0       	breq	.+8      	; 0x234e <find_volume+0xdc>
    2346:	cf 01       	movw	r24, r30
    2348:	08 96       	adiw	r24, 0x08	; 8
    234a:	2f dc       	rcall	.-1954   	; 0x1baa <ld_dword>
    234c:	03 c0       	rjmp	.+6      	; 0x2354 <find_volume+0xe2>
    234e:	60 e0       	ldi	r22, 0x00	; 0
    2350:	70 e0       	ldi	r23, 0x00	; 0
    2352:	cb 01       	movw	r24, r22
    2354:	f7 01       	movw	r30, r14
    2356:	ee 0f       	add	r30, r30
    2358:	ff 1f       	adc	r31, r31
    235a:	ee 0f       	add	r30, r30
    235c:	ff 1f       	adc	r31, r31
    235e:	21 e0       	ldi	r18, 0x01	; 1
    2360:	30 e0       	ldi	r19, 0x00	; 0
    2362:	2c 0f       	add	r18, r28
    2364:	3d 1f       	adc	r19, r29
    2366:	e2 0f       	add	r30, r18
    2368:	f3 1f       	adc	r31, r19
    236a:	60 83       	st	Z, r22
    236c:	71 83       	std	Z+1, r23	; 0x01
    236e:	82 83       	std	Z+2, r24	; 0x02
    2370:	93 83       	std	Z+3, r25	; 0x03
    2372:	3f ef       	ldi	r19, 0xFF	; 255
    2374:	e3 1a       	sub	r14, r19
    2376:	f3 0a       	sbc	r15, r19
    2378:	02 c0       	rjmp	.+4      	; 0x237e <find_volume+0x10c>
    237a:	e1 2c       	mov	r14, r1
    237c:	f1 2c       	mov	r15, r1
    237e:	44 e0       	ldi	r20, 0x04	; 4
    2380:	e4 16       	cp	r14, r20
    2382:	f1 04       	cpc	r15, r1
    2384:	80 f2       	brcs	.-96     	; 0x2326 <find_volume+0xb4>
    2386:	a1 2c       	mov	r10, r1
    2388:	b1 2c       	mov	r11, r1
    238a:	f5 01       	movw	r30, r10
    238c:	ee 0f       	add	r30, r30
    238e:	ff 1f       	adc	r31, r31
    2390:	ee 0f       	add	r30, r30
    2392:	ff 1f       	adc	r31, r31
    2394:	61 e0       	ldi	r22, 0x01	; 1
    2396:	70 e0       	ldi	r23, 0x00	; 0
    2398:	6c 0f       	add	r22, r28
    239a:	7d 1f       	adc	r23, r29
    239c:	e6 0f       	add	r30, r22
    239e:	f7 1f       	adc	r31, r23
    23a0:	c0 80       	ld	r12, Z
    23a2:	d1 80       	ldd	r13, Z+1	; 0x01
    23a4:	e2 80       	ldd	r14, Z+2	; 0x02
    23a6:	f3 80       	ldd	r15, Z+3	; 0x03
    23a8:	c1 14       	cp	r12, r1
    23aa:	d1 04       	cpc	r13, r1
    23ac:	e1 04       	cpc	r14, r1
    23ae:	f1 04       	cpc	r15, r1
    23b0:	29 f0       	breq	.+10     	; 0x23bc <find_volume+0x14a>
    23b2:	b7 01       	movw	r22, r14
    23b4:	a6 01       	movw	r20, r12
    23b6:	c8 01       	movw	r24, r16
    23b8:	19 df       	rcall	.-462    	; 0x21ec <check_fs>
    23ba:	01 c0       	rjmp	.+2      	; 0x23be <find_volume+0x14c>
    23bc:	83 e0       	ldi	r24, 0x03	; 3
    23be:	82 30       	cpi	r24, 0x02	; 2
    23c0:	38 f0       	brcs	.+14     	; 0x23d0 <find_volume+0x15e>
    23c2:	7f ef       	ldi	r23, 0xFF	; 255
    23c4:	a7 1a       	sub	r10, r23
    23c6:	b7 0a       	sbc	r11, r23
    23c8:	94 e0       	ldi	r25, 0x04	; 4
    23ca:	a9 16       	cp	r10, r25
    23cc:	b1 04       	cpc	r11, r1
    23ce:	e8 f2       	brcs	.-70     	; 0x238a <find_volume+0x118>
    23d0:	84 30       	cpi	r24, 0x04	; 4
    23d2:	09 f4       	brne	.+2      	; 0x23d6 <find_volume+0x164>
    23d4:	d8 c1       	rjmp	.+944    	; 0x2786 <find_volume+0x514>
    23d6:	82 30       	cpi	r24, 0x02	; 2
    23d8:	08 f0       	brcs	.+2      	; 0x23dc <find_volume+0x16a>
    23da:	d8 c1       	rjmp	.+944    	; 0x278c <find_volume+0x51a>
    23dc:	c8 01       	movw	r24, r16
    23de:	ce 96       	adiw	r24, 0x3e	; 62
    23e0:	da db       	rcall	.-2124   	; 0x1b96 <ld_word>
    23e2:	81 15       	cp	r24, r1
    23e4:	92 40       	sbci	r25, 0x02	; 2
    23e6:	09 f0       	breq	.+2      	; 0x23ea <find_volume+0x178>
    23e8:	d4 c1       	rjmp	.+936    	; 0x2792 <find_volume+0x520>
    23ea:	c8 01       	movw	r24, r16
    23ec:	87 5b       	subi	r24, 0xB7	; 183
    23ee:	9f 4f       	sbci	r25, 0xFF	; 255
    23f0:	d2 db       	rcall	.-2140   	; 0x1b96 <ld_word>
    23f2:	9c 01       	movw	r18, r24
    23f4:	40 e0       	ldi	r20, 0x00	; 0
    23f6:	50 e0       	ldi	r21, 0x00	; 0
    23f8:	29 8b       	std	Y+17, r18	; 0x11
    23fa:	3a 8b       	std	Y+18, r19	; 0x12
    23fc:	4b 8b       	std	Y+19, r20	; 0x13
    23fe:	5c 8b       	std	Y+20, r21	; 0x14
    2400:	23 2b       	or	r18, r19
    2402:	24 2b       	or	r18, r20
    2404:	25 2b       	or	r18, r21
    2406:	41 f4       	brne	.+16     	; 0x2418 <find_volume+0x1a6>
    2408:	c8 01       	movw	r24, r16
    240a:	89 5a       	subi	r24, 0xA9	; 169
    240c:	9f 4f       	sbci	r25, 0xFF	; 255
    240e:	cd db       	rcall	.-2150   	; 0x1baa <ld_dword>
    2410:	69 8b       	std	Y+17, r22	; 0x11
    2412:	7a 8b       	std	Y+18, r23	; 0x12
    2414:	8b 8b       	std	Y+19, r24	; 0x13
    2416:	9c 8b       	std	Y+20, r25	; 0x14
    2418:	49 89       	ldd	r20, Y+17	; 0x11
    241a:	5a 89       	ldd	r21, Y+18	; 0x12
    241c:	6b 89       	ldd	r22, Y+19	; 0x13
    241e:	7c 89       	ldd	r23, Y+20	; 0x14
    2420:	d8 01       	movw	r26, r16
    2422:	5b 96       	adiw	r26, 0x1b	; 27
    2424:	4d 93       	st	X+, r20
    2426:	5d 93       	st	X+, r21
    2428:	6d 93       	st	X+, r22
    242a:	7c 93       	st	X, r23
    242c:	5e 97       	sbiw	r26, 0x1e	; 30
    242e:	f8 01       	movw	r30, r16
    2430:	ed 5b       	subi	r30, 0xBD	; 189
    2432:	ff 4f       	sbci	r31, 0xFF	; 255
    2434:	a0 81       	ld	r26, Z
    2436:	f8 01       	movw	r30, r16
    2438:	a2 83       	std	Z+2, r26	; 0x02
    243a:	8f ef       	ldi	r24, 0xFF	; 255
    243c:	8a 0f       	add	r24, r26
    243e:	82 30       	cpi	r24, 0x02	; 2
    2440:	08 f0       	brcs	.+2      	; 0x2444 <find_volume+0x1d2>
    2442:	aa c1       	rjmp	.+852    	; 0x2798 <find_volume+0x526>
    2444:	b0 e0       	ldi	r27, 0x00	; 0
    2446:	9a 01       	movw	r18, r20
    2448:	ab 01       	movw	r20, r22
    244a:	0e 94 c7 2c 	call	0x598e	; 0x598e <__muluhisi3>
    244e:	69 8f       	std	Y+25, r22	; 0x19
    2450:	7a 8f       	std	Y+26, r23	; 0x1a
    2452:	8b 8f       	std	Y+27, r24	; 0x1b
    2454:	9c 8f       	std	Y+28, r25	; 0x1c
    2456:	e0 5c       	subi	r30, 0xC0	; 192
    2458:	ff 4f       	sbci	r31, 0xFF	; 255
    245a:	a0 80       	ld	r10, Z
    245c:	b1 2c       	mov	r11, r1
    245e:	d8 01       	movw	r26, r16
    2460:	1a 96       	adiw	r26, 0x0a	; 10
    2462:	bc 92       	st	X, r11
    2464:	ae 92       	st	-X, r10
    2466:	19 97       	sbiw	r26, 0x09	; 9
    2468:	a1 14       	cp	r10, r1
    246a:	b1 04       	cpc	r11, r1
    246c:	09 f4       	brne	.+2      	; 0x2470 <find_volume+0x1fe>
    246e:	97 c1       	rjmp	.+814    	; 0x279e <find_volume+0x52c>
    2470:	c5 01       	movw	r24, r10
    2472:	01 97       	sbiw	r24, 0x01	; 1
    2474:	8a 21       	and	r24, r10
    2476:	9b 21       	and	r25, r11
    2478:	89 2b       	or	r24, r25
    247a:	09 f0       	breq	.+2      	; 0x247e <find_volume+0x20c>
    247c:	93 c1       	rjmp	.+806    	; 0x27a4 <find_volume+0x532>
    247e:	c8 01       	movw	r24, r16
    2480:	8c 5b       	subi	r24, 0xBC	; 188
    2482:	9f 4f       	sbci	r25, 0xFF	; 255
    2484:	88 db       	rcall	.-2288   	; 0x1b96 <ld_word>
    2486:	4c 01       	movw	r8, r24
    2488:	f8 01       	movw	r30, r16
    248a:	90 87       	std	Z+8, r25	; 0x08
    248c:	87 83       	std	Z+7, r24	; 0x07
    248e:	8f 70       	andi	r24, 0x0F	; 15
    2490:	99 27       	eor	r25, r25
    2492:	89 2b       	or	r24, r25
    2494:	09 f0       	breq	.+2      	; 0x2498 <find_volume+0x226>
    2496:	89 c1       	rjmp	.+786    	; 0x27aa <find_volume+0x538>
    2498:	c8 01       	movw	r24, r16
    249a:	8a 5b       	subi	r24, 0xBA	; 186
    249c:	9f 4f       	sbci	r25, 0xFF	; 255
    249e:	7b db       	rcall	.-2314   	; 0x1b96 <ld_word>
    24a0:	2c 01       	movw	r4, r24
    24a2:	61 2c       	mov	r6, r1
    24a4:	71 2c       	mov	r7, r1
    24a6:	41 14       	cp	r4, r1
    24a8:	51 04       	cpc	r5, r1
    24aa:	61 04       	cpc	r6, r1
    24ac:	71 04       	cpc	r7, r1
    24ae:	31 f4       	brne	.+12     	; 0x24bc <find_volume+0x24a>
    24b0:	c8 01       	movw	r24, r16
    24b2:	8d 5a       	subi	r24, 0xAD	; 173
    24b4:	9f 4f       	sbci	r25, 0xFF	; 255
    24b6:	79 db       	rcall	.-2318   	; 0x1baa <ld_dword>
    24b8:	2b 01       	movw	r4, r22
    24ba:	3c 01       	movw	r6, r24
    24bc:	c8 01       	movw	r24, r16
    24be:	8f 5b       	subi	r24, 0xBF	; 191
    24c0:	9f 4f       	sbci	r25, 0xFF	; 255
    24c2:	69 db       	rcall	.-2350   	; 0x1b96 <ld_word>
    24c4:	00 97       	sbiw	r24, 0x00	; 0
    24c6:	09 f4       	brne	.+2      	; 0x24ca <find_volume+0x258>
    24c8:	73 c1       	rjmp	.+742    	; 0x27b0 <find_volume+0x53e>
    24ca:	9c 01       	movw	r18, r24
    24cc:	40 e0       	ldi	r20, 0x00	; 0
    24ce:	50 e0       	ldi	r21, 0x00	; 0
    24d0:	2d 8f       	std	Y+29, r18	; 0x1d
    24d2:	3e 8f       	std	Y+30, r19	; 0x1e
    24d4:	4f 8f       	std	Y+31, r20	; 0x1f
    24d6:	58 a3       	std	Y+32, r21	; 0x20
    24d8:	89 8d       	ldd	r24, Y+25	; 0x19
    24da:	9a 8d       	ldd	r25, Y+26	; 0x1a
    24dc:	ab 8d       	ldd	r26, Y+27	; 0x1b
    24de:	bc 8d       	ldd	r27, Y+28	; 0x1c
    24e0:	82 0f       	add	r24, r18
    24e2:	93 1f       	adc	r25, r19
    24e4:	a4 1f       	adc	r26, r20
    24e6:	b5 1f       	adc	r27, r21
    24e8:	94 01       	movw	r18, r8
    24ea:	32 95       	swap	r19
    24ec:	22 95       	swap	r18
    24ee:	2f 70       	andi	r18, 0x0F	; 15
    24f0:	23 27       	eor	r18, r19
    24f2:	3f 70       	andi	r19, 0x0F	; 15
    24f4:	23 27       	eor	r18, r19
    24f6:	ac 01       	movw	r20, r24
    24f8:	bd 01       	movw	r22, r26
    24fa:	42 0f       	add	r20, r18
    24fc:	53 1f       	adc	r21, r19
    24fe:	61 1d       	adc	r22, r1
    2500:	71 1d       	adc	r23, r1
    2502:	4d 8b       	std	Y+21, r20	; 0x15
    2504:	5e 8b       	std	Y+22, r21	; 0x16
    2506:	6f 8b       	std	Y+23, r22	; 0x17
    2508:	78 8f       	std	Y+24, r23	; 0x18
    250a:	44 16       	cp	r4, r20
    250c:	55 06       	cpc	r5, r21
    250e:	66 06       	cpc	r6, r22
    2510:	77 06       	cpc	r7, r23
    2512:	08 f4       	brcc	.+2      	; 0x2516 <find_volume+0x2a4>
    2514:	50 c1       	rjmp	.+672    	; 0x27b6 <find_volume+0x544>
    2516:	c3 01       	movw	r24, r6
    2518:	b2 01       	movw	r22, r4
    251a:	2d 89       	ldd	r18, Y+21	; 0x15
    251c:	3e 89       	ldd	r19, Y+22	; 0x16
    251e:	4f 89       	ldd	r20, Y+23	; 0x17
    2520:	58 8d       	ldd	r21, Y+24	; 0x18
    2522:	62 1b       	sub	r22, r18
    2524:	73 0b       	sbc	r23, r19
    2526:	84 0b       	sbc	r24, r20
    2528:	95 0b       	sbc	r25, r21
    252a:	95 01       	movw	r18, r10
    252c:	40 e0       	ldi	r20, 0x00	; 0
    252e:	50 e0       	ldi	r21, 0x00	; 0
    2530:	0e 94 90 2c 	call	0x5920	; 0x5920 <__udivmodsi4>
    2534:	da 01       	movw	r26, r20
    2536:	c9 01       	movw	r24, r18
    2538:	21 15       	cp	r18, r1
    253a:	31 05       	cpc	r19, r1
    253c:	41 05       	cpc	r20, r1
    253e:	51 05       	cpc	r21, r1
    2540:	09 f4       	brne	.+2      	; 0x2544 <find_volume+0x2d2>
    2542:	3c c1       	rjmp	.+632    	; 0x27bc <find_volume+0x54a>
    2544:	26 3f       	cpi	r18, 0xF6	; 246
    2546:	6f ef       	ldi	r22, 0xFF	; 255
    2548:	36 07       	cpc	r19, r22
    254a:	41 05       	cpc	r20, r1
    254c:	51 05       	cpc	r21, r1
    254e:	28 f0       	brcs	.+10     	; 0x255a <find_volume+0x2e8>
    2550:	0f 2e       	mov	r0, r31
    2552:	f3 e0       	ldi	r31, 0x03	; 3
    2554:	bf 2e       	mov	r11, r31
    2556:	f0 2d       	mov	r31, r0
    2558:	03 c0       	rjmp	.+6      	; 0x2560 <find_volume+0x2ee>
    255a:	68 94       	set
    255c:	bb 24       	eor	r11, r11
    255e:	b1 f8       	bld	r11, 1
    2560:	86 3f       	cpi	r24, 0xF6	; 246
    2562:	9f 40       	sbci	r25, 0x0F	; 15
    2564:	a1 05       	cpc	r26, r1
    2566:	b1 05       	cpc	r27, r1
    2568:	10 f4       	brcc	.+4      	; 0x256e <find_volume+0x2fc>
    256a:	bb 24       	eor	r11, r11
    256c:	b3 94       	inc	r11
    256e:	29 01       	movw	r4, r18
    2570:	3a 01       	movw	r6, r20
    2572:	82 e0       	ldi	r24, 0x02	; 2
    2574:	48 0e       	add	r4, r24
    2576:	51 1c       	adc	r5, r1
    2578:	61 1c       	adc	r6, r1
    257a:	71 1c       	adc	r7, r1
    257c:	d8 01       	movw	r26, r16
    257e:	57 96       	adiw	r26, 0x17	; 23
    2580:	4d 92       	st	X+, r4
    2582:	5d 92       	st	X+, r5
    2584:	6d 92       	st	X+, r6
    2586:	7c 92       	st	X, r7
    2588:	5a 97       	sbiw	r26, 0x1a	; 26
    258a:	f8 01       	movw	r30, r16
    258c:	c7 8e       	std	Z+31, r12	; 0x1f
    258e:	d0 a2       	std	Z+32, r13	; 0x20
    2590:	e1 a2       	std	Z+33, r14	; 0x21
    2592:	f2 a2       	std	Z+34, r15	; 0x22
    2594:	8d 8d       	ldd	r24, Y+29	; 0x1d
    2596:	9e 8d       	ldd	r25, Y+30	; 0x1e
    2598:	af 8d       	ldd	r26, Y+31	; 0x1f
    259a:	b8 a1       	ldd	r27, Y+32	; 0x20
    259c:	8c 0d       	add	r24, r12
    259e:	9d 1d       	adc	r25, r13
    25a0:	ae 1d       	adc	r26, r14
    25a2:	bf 1d       	adc	r27, r15
    25a4:	83 a3       	std	Z+35, r24	; 0x23
    25a6:	94 a3       	std	Z+36, r25	; 0x24
    25a8:	a5 a3       	std	Z+37, r26	; 0x25
    25aa:	b6 a3       	std	Z+38, r27	; 0x26
    25ac:	4d 89       	ldd	r20, Y+21	; 0x15
    25ae:	5e 89       	ldd	r21, Y+22	; 0x16
    25b0:	6f 89       	ldd	r22, Y+23	; 0x17
    25b2:	78 8d       	ldd	r23, Y+24	; 0x18
    25b4:	4c 0d       	add	r20, r12
    25b6:	5d 1d       	adc	r21, r13
    25b8:	6e 1d       	adc	r22, r14
    25ba:	7f 1d       	adc	r23, r15
    25bc:	43 a7       	std	Z+43, r20	; 0x2b
    25be:	54 a7       	std	Z+44, r21	; 0x2c
    25c0:	65 a7       	std	Z+45, r22	; 0x2d
    25c2:	76 a7       	std	Z+46, r23	; 0x2e
    25c4:	f3 e0       	ldi	r31, 0x03	; 3
    25c6:	bf 12       	cpse	r11, r31
    25c8:	1e c0       	rjmp	.+60     	; 0x2606 <find_volume+0x394>
    25ca:	c8 01       	movw	r24, r16
    25cc:	83 5a       	subi	r24, 0xA3	; 163
    25ce:	9f 4f       	sbci	r25, 0xFF	; 255
    25d0:	e2 da       	rcall	.-2620   	; 0x1b96 <ld_word>
    25d2:	89 2b       	or	r24, r25
    25d4:	09 f0       	breq	.+2      	; 0x25d8 <find_volume+0x366>
    25d6:	f5 c0       	rjmp	.+490    	; 0x27c2 <find_volume+0x550>
    25d8:	89 28       	or	r8, r9
    25da:	09 f0       	breq	.+2      	; 0x25de <find_volume+0x36c>
    25dc:	f5 c0       	rjmp	.+490    	; 0x27c8 <find_volume+0x556>
    25de:	c8 01       	movw	r24, r16
    25e0:	81 5a       	subi	r24, 0xA1	; 161
    25e2:	9f 4f       	sbci	r25, 0xFF	; 255
    25e4:	e2 da       	rcall	.-2620   	; 0x1baa <ld_dword>
    25e6:	d8 01       	movw	r26, r16
    25e8:	97 96       	adiw	r26, 0x27	; 39
    25ea:	6d 93       	st	X+, r22
    25ec:	7d 93       	st	X+, r23
    25ee:	8d 93       	st	X+, r24
    25f0:	9c 93       	st	X, r25
    25f2:	9a 97       	sbiw	r26, 0x2a	; 42
    25f4:	44 0c       	add	r4, r4
    25f6:	55 1c       	adc	r5, r5
    25f8:	66 1c       	adc	r6, r6
    25fa:	77 1c       	adc	r7, r7
    25fc:	44 0c       	add	r4, r4
    25fe:	55 1c       	adc	r5, r5
    2600:	66 1c       	adc	r6, r6
    2602:	77 1c       	adc	r7, r7
    2604:	2d c0       	rjmp	.+90     	; 0x2660 <find_volume+0x3ee>
    2606:	89 28       	or	r8, r9
    2608:	09 f4       	brne	.+2      	; 0x260c <find_volume+0x39a>
    260a:	e1 c0       	rjmp	.+450    	; 0x27ce <find_volume+0x55c>
    260c:	29 8d       	ldd	r18, Y+25	; 0x19
    260e:	3a 8d       	ldd	r19, Y+26	; 0x1a
    2610:	4b 8d       	ldd	r20, Y+27	; 0x1b
    2612:	5c 8d       	ldd	r21, Y+28	; 0x1c
    2614:	82 0f       	add	r24, r18
    2616:	93 1f       	adc	r25, r19
    2618:	a4 1f       	adc	r26, r20
    261a:	b5 1f       	adc	r27, r21
    261c:	f8 01       	movw	r30, r16
    261e:	87 a3       	std	Z+39, r24	; 0x27
    2620:	90 a7       	std	Z+40, r25	; 0x28
    2622:	a1 a7       	std	Z+41, r26	; 0x29
    2624:	b2 a7       	std	Z+42, r27	; 0x2a
    2626:	f2 e0       	ldi	r31, 0x02	; 2
    2628:	bf 12       	cpse	r11, r31
    262a:	05 c0       	rjmp	.+10     	; 0x2636 <find_volume+0x3c4>
    262c:	44 0c       	add	r4, r4
    262e:	55 1c       	adc	r5, r5
    2630:	66 1c       	adc	r6, r6
    2632:	77 1c       	adc	r7, r7
    2634:	15 c0       	rjmp	.+42     	; 0x2660 <find_volume+0x3ee>
    2636:	a3 e0       	ldi	r26, 0x03	; 3
    2638:	b0 e0       	ldi	r27, 0x00	; 0
    263a:	a3 01       	movw	r20, r6
    263c:	92 01       	movw	r18, r4
    263e:	0e 94 c7 2c 	call	0x598e	; 0x598e <__muluhisi3>
    2642:	dc 01       	movw	r26, r24
    2644:	cb 01       	movw	r24, r22
    2646:	b6 95       	lsr	r27
    2648:	a7 95       	ror	r26
    264a:	97 95       	ror	r25
    264c:	87 95       	ror	r24
    264e:	21 e0       	ldi	r18, 0x01	; 1
    2650:	42 22       	and	r4, r18
    2652:	55 24       	eor	r5, r5
    2654:	66 24       	eor	r6, r6
    2656:	77 24       	eor	r7, r7
    2658:	48 0e       	add	r4, r24
    265a:	59 1e       	adc	r5, r25
    265c:	6a 1e       	adc	r6, r26
    265e:	7b 1e       	adc	r7, r27
    2660:	3f ef       	ldi	r19, 0xFF	; 255
    2662:	43 0e       	add	r4, r19
    2664:	31 e0       	ldi	r19, 0x01	; 1
    2666:	53 1e       	adc	r5, r19
    2668:	61 1c       	adc	r6, r1
    266a:	71 1c       	adc	r7, r1
    266c:	03 2e       	mov	r0, r19
    266e:	39 e0       	ldi	r19, 0x09	; 9
    2670:	76 94       	lsr	r7
    2672:	67 94       	ror	r6
    2674:	57 94       	ror	r5
    2676:	47 94       	ror	r4
    2678:	3a 95       	dec	r19
    267a:	d1 f7       	brne	.-12     	; 0x2670 <find_volume+0x3fe>
    267c:	30 2d       	mov	r19, r0
    267e:	49 89       	ldd	r20, Y+17	; 0x11
    2680:	5a 89       	ldd	r21, Y+18	; 0x12
    2682:	6b 89       	ldd	r22, Y+19	; 0x13
    2684:	7c 89       	ldd	r23, Y+20	; 0x14
    2686:	44 15       	cp	r20, r4
    2688:	55 05       	cpc	r21, r5
    268a:	66 05       	cpc	r22, r6
    268c:	77 05       	cpc	r23, r7
    268e:	08 f4       	brcc	.+2      	; 0x2692 <find_volume+0x420>
    2690:	a1 c0       	rjmp	.+322    	; 0x27d4 <find_volume+0x562>
    2692:	8f ef       	ldi	r24, 0xFF	; 255
    2694:	9f ef       	ldi	r25, 0xFF	; 255
    2696:	dc 01       	movw	r26, r24
    2698:	f8 01       	movw	r30, r16
    269a:	87 87       	std	Z+15, r24	; 0x0f
    269c:	90 8b       	std	Z+16, r25	; 0x10
    269e:	a1 8b       	std	Z+17, r26	; 0x11
    26a0:	b2 8b       	std	Z+18, r27	; 0x12
    26a2:	83 87       	std	Z+11, r24	; 0x0b
    26a4:	94 87       	std	Z+12, r25	; 0x0c
    26a6:	a5 87       	std	Z+13, r26	; 0x0d
    26a8:	b6 87       	std	Z+14, r27	; 0x0e
    26aa:	80 e8       	ldi	r24, 0x80	; 128
    26ac:	84 83       	std	Z+4, r24	; 0x04
    26ae:	f3 e0       	ldi	r31, 0x03	; 3
    26b0:	bf 12       	cpse	r11, r31
    26b2:	40 c0       	rjmp	.+128    	; 0x2734 <find_volume+0x4c2>
    26b4:	c8 01       	movw	r24, r16
    26b6:	8d 59       	subi	r24, 0x9D	; 157
    26b8:	9f 4f       	sbci	r25, 0xFF	; 255
    26ba:	6d da       	rcall	.-2854   	; 0x1b96 <ld_word>
    26bc:	01 97       	sbiw	r24, 0x01	; 1
    26be:	09 f0       	breq	.+2      	; 0x26c2 <find_volume+0x450>
    26c0:	39 c0       	rjmp	.+114    	; 0x2734 <find_volume+0x4c2>
    26c2:	b7 01       	movw	r22, r14
    26c4:	a6 01       	movw	r20, r12
    26c6:	4f 5f       	subi	r20, 0xFF	; 255
    26c8:	5f 4f       	sbci	r21, 0xFF	; 255
    26ca:	6f 4f       	sbci	r22, 0xFF	; 255
    26cc:	7f 4f       	sbci	r23, 0xFF	; 255
    26ce:	c8 01       	movw	r24, r16
    26d0:	4d dd       	rcall	.-1382   	; 0x216c <move_window>
    26d2:	89 2b       	or	r24, r25
    26d4:	79 f5       	brne	.+94     	; 0x2734 <find_volume+0x4c2>
    26d6:	d8 01       	movw	r26, r16
    26d8:	14 96       	adiw	r26, 0x04	; 4
    26da:	1c 92       	st	X, r1
    26dc:	c8 01       	movw	r24, r16
    26de:	8f 5c       	subi	r24, 0xCF	; 207
    26e0:	9d 4f       	sbci	r25, 0xFD	; 253
    26e2:	59 da       	rcall	.-2894   	; 0x1b96 <ld_word>
    26e4:	85 35       	cpi	r24, 0x55	; 85
    26e6:	9a 4a       	sbci	r25, 0xAA	; 170
    26e8:	29 f5       	brne	.+74     	; 0x2734 <find_volume+0x4c2>
    26ea:	c8 01       	movw	r24, r16
    26ec:	c3 96       	adiw	r24, 0x33	; 51
    26ee:	5d da       	rcall	.-2886   	; 0x1baa <ld_dword>
    26f0:	62 35       	cpi	r22, 0x52	; 82
    26f2:	72 45       	sbci	r23, 0x52	; 82
    26f4:	81 46       	sbci	r24, 0x61	; 97
    26f6:	91 44       	sbci	r25, 0x41	; 65
    26f8:	e9 f4       	brne	.+58     	; 0x2734 <find_volume+0x4c2>
    26fa:	c8 01       	movw	r24, r16
    26fc:	89 5e       	subi	r24, 0xE9	; 233
    26fe:	9d 4f       	sbci	r25, 0xFD	; 253
    2700:	54 da       	rcall	.-2904   	; 0x1baa <ld_dword>
    2702:	62 37       	cpi	r22, 0x72	; 114
    2704:	72 47       	sbci	r23, 0x72	; 114
    2706:	81 44       	sbci	r24, 0x41	; 65
    2708:	91 46       	sbci	r25, 0x61	; 97
    270a:	a1 f4       	brne	.+40     	; 0x2734 <find_volume+0x4c2>
    270c:	c8 01       	movw	r24, r16
    270e:	85 5e       	subi	r24, 0xE5	; 229
    2710:	9d 4f       	sbci	r25, 0xFD	; 253
    2712:	4b da       	rcall	.-2922   	; 0x1baa <ld_dword>
    2714:	d8 01       	movw	r26, r16
    2716:	1f 96       	adiw	r26, 0x0f	; 15
    2718:	6d 93       	st	X+, r22
    271a:	7d 93       	st	X+, r23
    271c:	8d 93       	st	X+, r24
    271e:	9c 93       	st	X, r25
    2720:	52 97       	sbiw	r26, 0x12	; 18
    2722:	c8 01       	movw	r24, r16
    2724:	81 5e       	subi	r24, 0xE1	; 225
    2726:	9d 4f       	sbci	r25, 0xFD	; 253
    2728:	40 da       	rcall	.-2944   	; 0x1baa <ld_dword>
    272a:	f8 01       	movw	r30, r16
    272c:	63 87       	std	Z+11, r22	; 0x0b
    272e:	74 87       	std	Z+12, r23	; 0x0c
    2730:	85 87       	std	Z+13, r24	; 0x0d
    2732:	96 87       	std	Z+14, r25	; 0x0e
    2734:	d8 01       	movw	r26, r16
    2736:	bc 92       	st	X, r11
    2738:	80 91 0d 02 	lds	r24, 0x020D	; 0x80020d <Fsid>
    273c:	90 91 0e 02 	lds	r25, 0x020E	; 0x80020e <Fsid+0x1>
    2740:	01 96       	adiw	r24, 0x01	; 1
    2742:	90 93 0e 02 	sts	0x020E, r25	; 0x80020e <Fsid+0x1>
    2746:	80 93 0d 02 	sts	0x020D, r24	; 0x80020d <Fsid>
    274a:	16 96       	adiw	r26, 0x06	; 6
    274c:	9c 93       	st	X, r25
    274e:	8e 93       	st	-X, r24
    2750:	15 97       	sbiw	r26, 0x05	; 5
    2752:	f8 01       	movw	r30, r16
    2754:	13 8a       	std	Z+19, r1	; 0x13
    2756:	14 8a       	std	Z+20, r1	; 0x14
    2758:	15 8a       	std	Z+21, r1	; 0x15
    275a:	16 8a       	std	Z+22, r1	; 0x16
    275c:	80 e0       	ldi	r24, 0x00	; 0
    275e:	90 e0       	ldi	r25, 0x00	; 0
    2760:	3b c0       	rjmp	.+118    	; 0x27d8 <find_volume+0x566>
    2762:	8b e0       	ldi	r24, 0x0B	; 11
    2764:	90 e0       	ldi	r25, 0x00	; 0
    2766:	38 c0       	rjmp	.+112    	; 0x27d8 <find_volume+0x566>
    2768:	8c e0       	ldi	r24, 0x0C	; 12
    276a:	90 e0       	ldi	r25, 0x00	; 0
    276c:	35 c0       	rjmp	.+106    	; 0x27d8 <find_volume+0x566>
    276e:	80 e0       	ldi	r24, 0x00	; 0
    2770:	90 e0       	ldi	r25, 0x00	; 0
    2772:	32 c0       	rjmp	.+100    	; 0x27d8 <find_volume+0x566>
    2774:	8a e0       	ldi	r24, 0x0A	; 10
    2776:	90 e0       	ldi	r25, 0x00	; 0
    2778:	2f c0       	rjmp	.+94     	; 0x27d8 <find_volume+0x566>
    277a:	83 e0       	ldi	r24, 0x03	; 3
    277c:	90 e0       	ldi	r25, 0x00	; 0
    277e:	2c c0       	rjmp	.+88     	; 0x27d8 <find_volume+0x566>
    2780:	8a e0       	ldi	r24, 0x0A	; 10
    2782:	90 e0       	ldi	r25, 0x00	; 0
    2784:	29 c0       	rjmp	.+82     	; 0x27d8 <find_volume+0x566>
    2786:	81 e0       	ldi	r24, 0x01	; 1
    2788:	90 e0       	ldi	r25, 0x00	; 0
    278a:	26 c0       	rjmp	.+76     	; 0x27d8 <find_volume+0x566>
    278c:	8d e0       	ldi	r24, 0x0D	; 13
    278e:	90 e0       	ldi	r25, 0x00	; 0
    2790:	23 c0       	rjmp	.+70     	; 0x27d8 <find_volume+0x566>
    2792:	8d e0       	ldi	r24, 0x0D	; 13
    2794:	90 e0       	ldi	r25, 0x00	; 0
    2796:	20 c0       	rjmp	.+64     	; 0x27d8 <find_volume+0x566>
    2798:	8d e0       	ldi	r24, 0x0D	; 13
    279a:	90 e0       	ldi	r25, 0x00	; 0
    279c:	1d c0       	rjmp	.+58     	; 0x27d8 <find_volume+0x566>
    279e:	8d e0       	ldi	r24, 0x0D	; 13
    27a0:	90 e0       	ldi	r25, 0x00	; 0
    27a2:	1a c0       	rjmp	.+52     	; 0x27d8 <find_volume+0x566>
    27a4:	8d e0       	ldi	r24, 0x0D	; 13
    27a6:	90 e0       	ldi	r25, 0x00	; 0
    27a8:	17 c0       	rjmp	.+46     	; 0x27d8 <find_volume+0x566>
    27aa:	8d e0       	ldi	r24, 0x0D	; 13
    27ac:	90 e0       	ldi	r25, 0x00	; 0
    27ae:	14 c0       	rjmp	.+40     	; 0x27d8 <find_volume+0x566>
    27b0:	8d e0       	ldi	r24, 0x0D	; 13
    27b2:	90 e0       	ldi	r25, 0x00	; 0
    27b4:	11 c0       	rjmp	.+34     	; 0x27d8 <find_volume+0x566>
    27b6:	8d e0       	ldi	r24, 0x0D	; 13
    27b8:	90 e0       	ldi	r25, 0x00	; 0
    27ba:	0e c0       	rjmp	.+28     	; 0x27d8 <find_volume+0x566>
    27bc:	8d e0       	ldi	r24, 0x0D	; 13
    27be:	90 e0       	ldi	r25, 0x00	; 0
    27c0:	0b c0       	rjmp	.+22     	; 0x27d8 <find_volume+0x566>
    27c2:	8d e0       	ldi	r24, 0x0D	; 13
    27c4:	90 e0       	ldi	r25, 0x00	; 0
    27c6:	08 c0       	rjmp	.+16     	; 0x27d8 <find_volume+0x566>
    27c8:	8d e0       	ldi	r24, 0x0D	; 13
    27ca:	90 e0       	ldi	r25, 0x00	; 0
    27cc:	05 c0       	rjmp	.+10     	; 0x27d8 <find_volume+0x566>
    27ce:	8d e0       	ldi	r24, 0x0D	; 13
    27d0:	90 e0       	ldi	r25, 0x00	; 0
    27d2:	02 c0       	rjmp	.+4      	; 0x27d8 <find_volume+0x566>
    27d4:	8d e0       	ldi	r24, 0x0D	; 13
    27d6:	90 e0       	ldi	r25, 0x00	; 0
    27d8:	a0 96       	adiw	r28, 0x20	; 32
    27da:	0f b6       	in	r0, 0x3f	; 63
    27dc:	f8 94       	cli
    27de:	de bf       	out	0x3e, r29	; 62
    27e0:	0f be       	out	0x3f, r0	; 63
    27e2:	cd bf       	out	0x3d, r28	; 61
    27e4:	df 91       	pop	r29
    27e6:	cf 91       	pop	r28
    27e8:	1f 91       	pop	r17
    27ea:	0f 91       	pop	r16
    27ec:	ff 90       	pop	r15
    27ee:	ef 90       	pop	r14
    27f0:	df 90       	pop	r13
    27f2:	cf 90       	pop	r12
    27f4:	bf 90       	pop	r11
    27f6:	af 90       	pop	r10
    27f8:	9f 90       	pop	r9
    27fa:	8f 90       	pop	r8
    27fc:	7f 90       	pop	r7
    27fe:	6f 90       	pop	r6
    2800:	5f 90       	pop	r5
    2802:	4f 90       	pop	r4
    2804:	08 95       	ret

00002806 <put_fat>:
    2806:	2f 92       	push	r2
    2808:	3f 92       	push	r3
    280a:	4f 92       	push	r4
    280c:	5f 92       	push	r5
    280e:	6f 92       	push	r6
    2810:	7f 92       	push	r7
    2812:	8f 92       	push	r8
    2814:	9f 92       	push	r9
    2816:	af 92       	push	r10
    2818:	bf 92       	push	r11
    281a:	cf 92       	push	r12
    281c:	df 92       	push	r13
    281e:	ef 92       	push	r14
    2820:	ff 92       	push	r15
    2822:	0f 93       	push	r16
    2824:	1f 93       	push	r17
    2826:	cf 93       	push	r28
    2828:	df 93       	push	r29
    282a:	00 d0       	rcall	.+0      	; 0x282c <put_fat+0x26>
    282c:	00 d0       	rcall	.+0      	; 0x282e <put_fat+0x28>
    282e:	cd b7       	in	r28, 0x3d	; 61
    2830:	de b7       	in	r29, 0x3e	; 62
    2832:	42 30       	cpi	r20, 0x02	; 2
    2834:	51 05       	cpc	r21, r1
    2836:	61 05       	cpc	r22, r1
    2838:	71 05       	cpc	r23, r1
    283a:	08 f4       	brcc	.+2      	; 0x283e <put_fat+0x38>
    283c:	ed c0       	rjmp	.+474    	; 0x2a18 <put_fat+0x212>
    283e:	fc 01       	movw	r30, r24
    2840:	c7 88       	ldd	r12, Z+23	; 0x17
    2842:	d0 8c       	ldd	r13, Z+24	; 0x18
    2844:	e1 8c       	ldd	r14, Z+25	; 0x19
    2846:	f2 8c       	ldd	r15, Z+26	; 0x1a
    2848:	4c 15       	cp	r20, r12
    284a:	5d 05       	cpc	r21, r13
    284c:	6e 05       	cpc	r22, r14
    284e:	7f 05       	cpc	r23, r15
    2850:	08 f0       	brcs	.+2      	; 0x2854 <put_fat+0x4e>
    2852:	e5 c0       	rjmp	.+458    	; 0x2a1e <put_fat+0x218>
    2854:	28 01       	movw	r4, r16
    2856:	39 01       	movw	r6, r18
    2858:	6a 01       	movw	r12, r20
    285a:	7b 01       	movw	r14, r22
    285c:	9c 83       	std	Y+4, r25	; 0x04
    285e:	8b 83       	std	Y+3, r24	; 0x03
    2860:	80 81       	ld	r24, Z
    2862:	82 30       	cpi	r24, 0x02	; 2
    2864:	09 f4       	brne	.+2      	; 0x2868 <put_fat+0x62>
    2866:	75 c0       	rjmp	.+234    	; 0x2952 <put_fat+0x14c>
    2868:	83 30       	cpi	r24, 0x03	; 3
    286a:	09 f4       	brne	.+2      	; 0x286e <put_fat+0x68>
    286c:	98 c0       	rjmp	.+304    	; 0x299e <put_fat+0x198>
    286e:	81 30       	cpi	r24, 0x01	; 1
    2870:	09 f0       	breq	.+2      	; 0x2874 <put_fat+0x6e>
    2872:	d8 c0       	rjmp	.+432    	; 0x2a24 <put_fat+0x21e>
    2874:	4a 01       	movw	r8, r20
    2876:	96 94       	lsr	r9
    2878:	87 94       	ror	r8
    287a:	84 0e       	add	r8, r20
    287c:	95 1e       	adc	r9, r21
    287e:	43 a1       	ldd	r20, Z+35	; 0x23
    2880:	54 a1       	ldd	r21, Z+36	; 0x24
    2882:	65 a1       	ldd	r22, Z+37	; 0x25
    2884:	76 a1       	ldd	r23, Z+38	; 0x26
    2886:	c4 01       	movw	r24, r8
    2888:	89 2f       	mov	r24, r25
    288a:	99 27       	eor	r25, r25
    288c:	86 95       	lsr	r24
    288e:	48 0f       	add	r20, r24
    2890:	59 1f       	adc	r21, r25
    2892:	61 1d       	adc	r22, r1
    2894:	71 1d       	adc	r23, r1
    2896:	cf 01       	movw	r24, r30
    2898:	69 dc       	rcall	.-1838   	; 0x216c <move_window>
    289a:	8c 01       	movw	r16, r24
    289c:	89 2b       	or	r24, r25
    289e:	09 f0       	breq	.+2      	; 0x28a2 <put_fat+0x9c>
    28a0:	c3 c0       	rjmp	.+390    	; 0x2a28 <put_fat+0x222>
    28a2:	2b 80       	ldd	r2, Y+3	; 0x03
    28a4:	3c 80       	ldd	r3, Y+4	; 0x04
    28a6:	f3 e3       	ldi	r31, 0x33	; 51
    28a8:	2f 0e       	add	r2, r31
    28aa:	31 1c       	adc	r3, r1
    28ac:	94 01       	movw	r18, r8
    28ae:	2f 5f       	subi	r18, 0xFF	; 255
    28b0:	3f 4f       	sbci	r19, 0xFF	; 255
    28b2:	3a 83       	std	Y+2, r19	; 0x02
    28b4:	29 83       	std	Y+1, r18	; 0x01
    28b6:	31 e0       	ldi	r19, 0x01	; 1
    28b8:	93 22       	and	r9, r19
    28ba:	f1 01       	movw	r30, r2
    28bc:	e8 0d       	add	r30, r8
    28be:	f9 1d       	adc	r31, r9
    28c0:	46 01       	movw	r8, r12
    28c2:	57 01       	movw	r10, r14
    28c4:	81 e0       	ldi	r24, 0x01	; 1
    28c6:	88 22       	and	r8, r24
    28c8:	99 24       	eor	r9, r9
    28ca:	aa 24       	eor	r10, r10
    28cc:	bb 24       	eor	r11, r11
    28ce:	c0 fe       	sbrs	r12, 0
    28d0:	08 c0       	rjmp	.+16     	; 0x28e2 <put_fat+0xdc>
    28d2:	20 81       	ld	r18, Z
    28d4:	30 e1       	ldi	r19, 0x10	; 16
    28d6:	43 9e       	mul	r4, r19
    28d8:	c0 01       	movw	r24, r0
    28da:	11 24       	eor	r1, r1
    28dc:	2f 70       	andi	r18, 0x0F	; 15
    28de:	82 2b       	or	r24, r18
    28e0:	01 c0       	rjmp	.+2      	; 0x28e4 <put_fat+0xde>
    28e2:	84 2d       	mov	r24, r4
    28e4:	80 83       	st	Z, r24
    28e6:	81 e0       	ldi	r24, 0x01	; 1
    28e8:	eb 81       	ldd	r30, Y+3	; 0x03
    28ea:	fc 81       	ldd	r31, Y+4	; 0x04
    28ec:	83 83       	std	Z+3, r24	; 0x03
    28ee:	43 a1       	ldd	r20, Z+35	; 0x23
    28f0:	54 a1       	ldd	r21, Z+36	; 0x24
    28f2:	65 a1       	ldd	r22, Z+37	; 0x25
    28f4:	76 a1       	ldd	r23, Z+38	; 0x26
    28f6:	89 81       	ldd	r24, Y+1	; 0x01
    28f8:	9a 81       	ldd	r25, Y+2	; 0x02
    28fa:	89 2f       	mov	r24, r25
    28fc:	99 27       	eor	r25, r25
    28fe:	86 95       	lsr	r24
    2900:	48 0f       	add	r20, r24
    2902:	59 1f       	adc	r21, r25
    2904:	61 1d       	adc	r22, r1
    2906:	71 1d       	adc	r23, r1
    2908:	cf 01       	movw	r24, r30
    290a:	30 dc       	rcall	.-1952   	; 0x216c <move_window>
    290c:	8c 01       	movw	r16, r24
    290e:	89 2b       	or	r24, r25
    2910:	09 f0       	breq	.+2      	; 0x2914 <put_fat+0x10e>
    2912:	8a c0       	rjmp	.+276    	; 0x2a28 <put_fat+0x222>
    2914:	89 81       	ldd	r24, Y+1	; 0x01
    2916:	9a 81       	ldd	r25, Y+2	; 0x02
    2918:	91 70       	andi	r25, 0x01	; 1
    291a:	f1 01       	movw	r30, r2
    291c:	e8 0f       	add	r30, r24
    291e:	f9 1f       	adc	r31, r25
    2920:	89 28       	or	r8, r9
    2922:	8a 28       	or	r8, r10
    2924:	8b 28       	or	r8, r11
    2926:	49 f0       	breq	.+18     	; 0x293a <put_fat+0x134>
    2928:	68 94       	set
    292a:	13 f8       	bld	r1, 3
    292c:	76 94       	lsr	r7
    292e:	67 94       	ror	r6
    2930:	57 94       	ror	r5
    2932:	47 94       	ror	r4
    2934:	16 94       	lsr	r1
    2936:	d1 f7       	brne	.-12     	; 0x292c <put_fat+0x126>
    2938:	06 c0       	rjmp	.+12     	; 0x2946 <put_fat+0x140>
    293a:	90 81       	ld	r25, Z
    293c:	90 7f       	andi	r25, 0xF0	; 240
    293e:	85 2d       	mov	r24, r5
    2940:	8f 70       	andi	r24, 0x0F	; 15
    2942:	49 2e       	mov	r4, r25
    2944:	48 2a       	or	r4, r24
    2946:	40 82       	st	Z, r4
    2948:	81 e0       	ldi	r24, 0x01	; 1
    294a:	eb 81       	ldd	r30, Y+3	; 0x03
    294c:	fc 81       	ldd	r31, Y+4	; 0x04
    294e:	83 83       	std	Z+3, r24	; 0x03
    2950:	6b c0       	rjmp	.+214    	; 0x2a28 <put_fat+0x222>
    2952:	eb 81       	ldd	r30, Y+3	; 0x03
    2954:	fc 81       	ldd	r31, Y+4	; 0x04
    2956:	43 a1       	ldd	r20, Z+35	; 0x23
    2958:	54 a1       	ldd	r21, Z+36	; 0x24
    295a:	65 a1       	ldd	r22, Z+37	; 0x25
    295c:	76 a1       	ldd	r23, Z+38	; 0x26
    295e:	bb 27       	eor	r27, r27
    2960:	af 2d       	mov	r26, r15
    2962:	9e 2d       	mov	r25, r14
    2964:	8d 2d       	mov	r24, r13
    2966:	48 0f       	add	r20, r24
    2968:	59 1f       	adc	r21, r25
    296a:	6a 1f       	adc	r22, r26
    296c:	7b 1f       	adc	r23, r27
    296e:	cf 01       	movw	r24, r30
    2970:	fd db       	rcall	.-2054   	; 0x216c <move_window>
    2972:	8c 01       	movw	r16, r24
    2974:	89 2b       	or	r24, r25
    2976:	09 f0       	breq	.+2      	; 0x297a <put_fat+0x174>
    2978:	57 c0       	rjmp	.+174    	; 0x2a28 <put_fat+0x222>
    297a:	2b 81       	ldd	r18, Y+3	; 0x03
    297c:	3c 81       	ldd	r19, Y+4	; 0x04
    297e:	2d 5c       	subi	r18, 0xCD	; 205
    2980:	3f 4f       	sbci	r19, 0xFF	; 255
    2982:	cc 0c       	add	r12, r12
    2984:	dd 1c       	adc	r13, r13
    2986:	c6 01       	movw	r24, r12
    2988:	8e 7f       	andi	r24, 0xFE	; 254
    298a:	91 70       	andi	r25, 0x01	; 1
    298c:	b2 01       	movw	r22, r4
    298e:	82 0f       	add	r24, r18
    2990:	93 1f       	adc	r25, r19
    2992:	26 d9       	rcall	.-3508   	; 0x1be0 <st_word>
    2994:	81 e0       	ldi	r24, 0x01	; 1
    2996:	eb 81       	ldd	r30, Y+3	; 0x03
    2998:	fc 81       	ldd	r31, Y+4	; 0x04
    299a:	83 83       	std	Z+3, r24	; 0x03
    299c:	45 c0       	rjmp	.+138    	; 0x2a28 <put_fat+0x222>
    299e:	eb 81       	ldd	r30, Y+3	; 0x03
    29a0:	fc 81       	ldd	r31, Y+4	; 0x04
    29a2:	43 a1       	ldd	r20, Z+35	; 0x23
    29a4:	54 a1       	ldd	r21, Z+36	; 0x24
    29a6:	65 a1       	ldd	r22, Z+37	; 0x25
    29a8:	76 a1       	ldd	r23, Z+38	; 0x26
    29aa:	d7 01       	movw	r26, r14
    29ac:	c6 01       	movw	r24, r12
    29ae:	68 94       	set
    29b0:	16 f8       	bld	r1, 6
    29b2:	b6 95       	lsr	r27
    29b4:	a7 95       	ror	r26
    29b6:	97 95       	ror	r25
    29b8:	87 95       	ror	r24
    29ba:	16 94       	lsr	r1
    29bc:	d1 f7       	brne	.-12     	; 0x29b2 <put_fat+0x1ac>
    29be:	48 0f       	add	r20, r24
    29c0:	59 1f       	adc	r21, r25
    29c2:	6a 1f       	adc	r22, r26
    29c4:	7b 1f       	adc	r23, r27
    29c6:	cf 01       	movw	r24, r30
    29c8:	d1 db       	rcall	.-2142   	; 0x216c <move_window>
    29ca:	8c 01       	movw	r16, r24
    29cc:	89 2b       	or	r24, r25
    29ce:	61 f5       	brne	.+88     	; 0x2a28 <put_fat+0x222>
    29d0:	ff e0       	ldi	r31, 0x0F	; 15
    29d2:	7f 22       	and	r7, r31
    29d4:	8b 81       	ldd	r24, Y+3	; 0x03
    29d6:	9c 81       	ldd	r25, Y+4	; 0x04
    29d8:	c3 96       	adiw	r24, 0x33	; 51
    29da:	cc 0c       	add	r12, r12
    29dc:	dd 1c       	adc	r13, r13
    29de:	cc 0c       	add	r12, r12
    29e0:	dd 1c       	adc	r13, r13
    29e2:	2c ef       	ldi	r18, 0xFC	; 252
    29e4:	c2 22       	and	r12, r18
    29e6:	21 e0       	ldi	r18, 0x01	; 1
    29e8:	d2 22       	and	r13, r18
    29ea:	c8 0e       	add	r12, r24
    29ec:	d9 1e       	adc	r13, r25
    29ee:	c6 01       	movw	r24, r12
    29f0:	dc d8       	rcall	.-3656   	; 0x1baa <ld_dword>
    29f2:	dc 01       	movw	r26, r24
    29f4:	cb 01       	movw	r24, r22
    29f6:	88 27       	eor	r24, r24
    29f8:	99 27       	eor	r25, r25
    29fa:	aa 27       	eor	r26, r26
    29fc:	b0 7f       	andi	r27, 0xF0	; 240
    29fe:	b3 01       	movw	r22, r6
    2a00:	a2 01       	movw	r20, r4
    2a02:	48 2b       	or	r20, r24
    2a04:	59 2b       	or	r21, r25
    2a06:	6a 2b       	or	r22, r26
    2a08:	7b 2b       	or	r23, r27
    2a0a:	c6 01       	movw	r24, r12
    2a0c:	ed d8       	rcall	.-3622   	; 0x1be8 <st_dword>
    2a0e:	81 e0       	ldi	r24, 0x01	; 1
    2a10:	eb 81       	ldd	r30, Y+3	; 0x03
    2a12:	fc 81       	ldd	r31, Y+4	; 0x04
    2a14:	83 83       	std	Z+3, r24	; 0x03
    2a16:	08 c0       	rjmp	.+16     	; 0x2a28 <put_fat+0x222>
    2a18:	02 e0       	ldi	r16, 0x02	; 2
    2a1a:	10 e0       	ldi	r17, 0x00	; 0
    2a1c:	05 c0       	rjmp	.+10     	; 0x2a28 <put_fat+0x222>
    2a1e:	02 e0       	ldi	r16, 0x02	; 2
    2a20:	10 e0       	ldi	r17, 0x00	; 0
    2a22:	02 c0       	rjmp	.+4      	; 0x2a28 <put_fat+0x222>
    2a24:	02 e0       	ldi	r16, 0x02	; 2
    2a26:	10 e0       	ldi	r17, 0x00	; 0
    2a28:	c8 01       	movw	r24, r16
    2a2a:	0f 90       	pop	r0
    2a2c:	0f 90       	pop	r0
    2a2e:	0f 90       	pop	r0
    2a30:	0f 90       	pop	r0
    2a32:	df 91       	pop	r29
    2a34:	cf 91       	pop	r28
    2a36:	1f 91       	pop	r17
    2a38:	0f 91       	pop	r16
    2a3a:	ff 90       	pop	r15
    2a3c:	ef 90       	pop	r14
    2a3e:	df 90       	pop	r13
    2a40:	cf 90       	pop	r12
    2a42:	bf 90       	pop	r11
    2a44:	af 90       	pop	r10
    2a46:	9f 90       	pop	r9
    2a48:	8f 90       	pop	r8
    2a4a:	7f 90       	pop	r7
    2a4c:	6f 90       	pop	r6
    2a4e:	5f 90       	pop	r5
    2a50:	4f 90       	pop	r4
    2a52:	3f 90       	pop	r3
    2a54:	2f 90       	pop	r2
    2a56:	08 95       	ret

00002a58 <get_fat>:
    2a58:	af 92       	push	r10
    2a5a:	bf 92       	push	r11
    2a5c:	cf 92       	push	r12
    2a5e:	df 92       	push	r13
    2a60:	ef 92       	push	r14
    2a62:	ff 92       	push	r15
    2a64:	0f 93       	push	r16
    2a66:	1f 93       	push	r17
    2a68:	cf 93       	push	r28
    2a6a:	df 93       	push	r29
    2a6c:	fc 01       	movw	r30, r24
    2a6e:	c0 81       	ld	r28, Z
    2a70:	d1 81       	ldd	r29, Z+1	; 0x01
    2a72:	42 30       	cpi	r20, 0x02	; 2
    2a74:	51 05       	cpc	r21, r1
    2a76:	61 05       	cpc	r22, r1
    2a78:	71 05       	cpc	r23, r1
    2a7a:	08 f4       	brcc	.+2      	; 0x2a7e <get_fat+0x26>
    2a7c:	a4 c0       	rjmp	.+328    	; 0x2bc6 <get_fat+0x16e>
    2a7e:	8f 89       	ldd	r24, Y+23	; 0x17
    2a80:	98 8d       	ldd	r25, Y+24	; 0x18
    2a82:	a9 8d       	ldd	r26, Y+25	; 0x19
    2a84:	ba 8d       	ldd	r27, Y+26	; 0x1a
    2a86:	48 17       	cp	r20, r24
    2a88:	59 07       	cpc	r21, r25
    2a8a:	6a 07       	cpc	r22, r26
    2a8c:	7b 07       	cpc	r23, r27
    2a8e:	08 f0       	brcs	.+2      	; 0x2a92 <get_fat+0x3a>
    2a90:	9f c0       	rjmp	.+318    	; 0x2bd0 <get_fat+0x178>
    2a92:	6a 01       	movw	r12, r20
    2a94:	7b 01       	movw	r14, r22
    2a96:	88 81       	ld	r24, Y
    2a98:	82 30       	cpi	r24, 0x02	; 2
    2a9a:	09 f4       	brne	.+2      	; 0x2a9e <get_fat+0x46>
    2a9c:	50 c0       	rjmp	.+160    	; 0x2b3e <get_fat+0xe6>
    2a9e:	83 30       	cpi	r24, 0x03	; 3
    2aa0:	09 f4       	brne	.+2      	; 0x2aa4 <get_fat+0x4c>
    2aa2:	6c c0       	rjmp	.+216    	; 0x2b7c <get_fat+0x124>
    2aa4:	81 30       	cpi	r24, 0x01	; 1
    2aa6:	09 f0       	breq	.+2      	; 0x2aaa <get_fat+0x52>
    2aa8:	98 c0       	rjmp	.+304    	; 0x2bda <get_fat+0x182>
    2aaa:	8a 01       	movw	r16, r20
    2aac:	16 95       	lsr	r17
    2aae:	07 95       	ror	r16
    2ab0:	04 0f       	add	r16, r20
    2ab2:	15 1f       	adc	r17, r21
    2ab4:	4b a1       	ldd	r20, Y+35	; 0x23
    2ab6:	5c a1       	ldd	r21, Y+36	; 0x24
    2ab8:	6d a1       	ldd	r22, Y+37	; 0x25
    2aba:	7e a1       	ldd	r23, Y+38	; 0x26
    2abc:	c8 01       	movw	r24, r16
    2abe:	89 2f       	mov	r24, r25
    2ac0:	99 27       	eor	r25, r25
    2ac2:	86 95       	lsr	r24
    2ac4:	48 0f       	add	r20, r24
    2ac6:	59 1f       	adc	r21, r25
    2ac8:	61 1d       	adc	r22, r1
    2aca:	71 1d       	adc	r23, r1
    2acc:	ce 01       	movw	r24, r28
    2ace:	4e db       	rcall	.-2404   	; 0x216c <move_window>
    2ad0:	89 2b       	or	r24, r25
    2ad2:	09 f0       	breq	.+2      	; 0x2ad6 <get_fat+0x7e>
    2ad4:	87 c0       	rjmp	.+270    	; 0x2be4 <get_fat+0x18c>
    2ad6:	58 01       	movw	r10, r16
    2ad8:	ff ef       	ldi	r31, 0xFF	; 255
    2ada:	af 1a       	sub	r10, r31
    2adc:	bf 0a       	sbc	r11, r31
    2ade:	11 70       	andi	r17, 0x01	; 1
    2ae0:	fe 01       	movw	r30, r28
    2ae2:	e0 0f       	add	r30, r16
    2ae4:	f1 1f       	adc	r31, r17
    2ae6:	03 a9       	ldd	r16, Z+51	; 0x33
    2ae8:	10 e0       	ldi	r17, 0x00	; 0
    2aea:	4b a1       	ldd	r20, Y+35	; 0x23
    2aec:	5c a1       	ldd	r21, Y+36	; 0x24
    2aee:	6d a1       	ldd	r22, Y+37	; 0x25
    2af0:	7e a1       	ldd	r23, Y+38	; 0x26
    2af2:	c5 01       	movw	r24, r10
    2af4:	89 2f       	mov	r24, r25
    2af6:	99 27       	eor	r25, r25
    2af8:	86 95       	lsr	r24
    2afa:	48 0f       	add	r20, r24
    2afc:	59 1f       	adc	r21, r25
    2afe:	61 1d       	adc	r22, r1
    2b00:	71 1d       	adc	r23, r1
    2b02:	ce 01       	movw	r24, r28
    2b04:	33 db       	rcall	.-2458   	; 0x216c <move_window>
    2b06:	89 2b       	or	r24, r25
    2b08:	09 f0       	breq	.+2      	; 0x2b0c <get_fat+0xb4>
    2b0a:	70 c0       	rjmp	.+224    	; 0x2bec <get_fat+0x194>
    2b0c:	81 e0       	ldi	r24, 0x01	; 1
    2b0e:	b8 22       	and	r11, r24
    2b10:	ca 0d       	add	r28, r10
    2b12:	db 1d       	adc	r29, r11
    2b14:	6b a9       	ldd	r22, Y+51	; 0x33
    2b16:	70 e0       	ldi	r23, 0x00	; 0
    2b18:	76 2f       	mov	r23, r22
    2b1a:	66 27       	eor	r22, r22
    2b1c:	60 2b       	or	r22, r16
    2b1e:	71 2b       	or	r23, r17
    2b20:	c0 fe       	sbrs	r12, 0
    2b22:	09 c0       	rjmp	.+18     	; 0x2b36 <get_fat+0xde>
    2b24:	72 95       	swap	r23
    2b26:	62 95       	swap	r22
    2b28:	6f 70       	andi	r22, 0x0F	; 15
    2b2a:	67 27       	eor	r22, r23
    2b2c:	7f 70       	andi	r23, 0x0F	; 15
    2b2e:	67 27       	eor	r22, r23
    2b30:	80 e0       	ldi	r24, 0x00	; 0
    2b32:	90 e0       	ldi	r25, 0x00	; 0
    2b34:	66 c0       	rjmp	.+204    	; 0x2c02 <get_fat+0x1aa>
    2b36:	7f 70       	andi	r23, 0x0F	; 15
    2b38:	80 e0       	ldi	r24, 0x00	; 0
    2b3a:	90 e0       	ldi	r25, 0x00	; 0
    2b3c:	62 c0       	rjmp	.+196    	; 0x2c02 <get_fat+0x1aa>
    2b3e:	4b a1       	ldd	r20, Y+35	; 0x23
    2b40:	5c a1       	ldd	r21, Y+36	; 0x24
    2b42:	6d a1       	ldd	r22, Y+37	; 0x25
    2b44:	7e a1       	ldd	r23, Y+38	; 0x26
    2b46:	bb 27       	eor	r27, r27
    2b48:	af 2d       	mov	r26, r15
    2b4a:	9e 2d       	mov	r25, r14
    2b4c:	8d 2d       	mov	r24, r13
    2b4e:	48 0f       	add	r20, r24
    2b50:	59 1f       	adc	r21, r25
    2b52:	6a 1f       	adc	r22, r26
    2b54:	7b 1f       	adc	r23, r27
    2b56:	ce 01       	movw	r24, r28
    2b58:	09 db       	rcall	.-2542   	; 0x216c <move_window>
    2b5a:	89 2b       	or	r24, r25
    2b5c:	09 f0       	breq	.+2      	; 0x2b60 <get_fat+0x108>
    2b5e:	4a c0       	rjmp	.+148    	; 0x2bf4 <get_fat+0x19c>
    2b60:	ce 01       	movw	r24, r28
    2b62:	c3 96       	adiw	r24, 0x33	; 51
    2b64:	a6 01       	movw	r20, r12
    2b66:	44 0f       	add	r20, r20
    2b68:	55 1f       	adc	r21, r21
    2b6a:	4e 7f       	andi	r20, 0xFE	; 254
    2b6c:	51 70       	andi	r21, 0x01	; 1
    2b6e:	84 0f       	add	r24, r20
    2b70:	95 1f       	adc	r25, r21
    2b72:	11 d8       	rcall	.-4062   	; 0x1b96 <ld_word>
    2b74:	bc 01       	movw	r22, r24
    2b76:	80 e0       	ldi	r24, 0x00	; 0
    2b78:	90 e0       	ldi	r25, 0x00	; 0
    2b7a:	43 c0       	rjmp	.+134    	; 0x2c02 <get_fat+0x1aa>
    2b7c:	4b a1       	ldd	r20, Y+35	; 0x23
    2b7e:	5c a1       	ldd	r21, Y+36	; 0x24
    2b80:	6d a1       	ldd	r22, Y+37	; 0x25
    2b82:	7e a1       	ldd	r23, Y+38	; 0x26
    2b84:	d7 01       	movw	r26, r14
    2b86:	c6 01       	movw	r24, r12
    2b88:	68 94       	set
    2b8a:	16 f8       	bld	r1, 6
    2b8c:	b6 95       	lsr	r27
    2b8e:	a7 95       	ror	r26
    2b90:	97 95       	ror	r25
    2b92:	87 95       	ror	r24
    2b94:	16 94       	lsr	r1
    2b96:	d1 f7       	brne	.-12     	; 0x2b8c <get_fat+0x134>
    2b98:	48 0f       	add	r20, r24
    2b9a:	59 1f       	adc	r21, r25
    2b9c:	6a 1f       	adc	r22, r26
    2b9e:	7b 1f       	adc	r23, r27
    2ba0:	ce 01       	movw	r24, r28
    2ba2:	e4 da       	rcall	.-2616   	; 0x216c <move_window>
    2ba4:	89 2b       	or	r24, r25
    2ba6:	51 f5       	brne	.+84     	; 0x2bfc <get_fat+0x1a4>
    2ba8:	e3 96       	adiw	r28, 0x33	; 51
    2baa:	a6 01       	movw	r20, r12
    2bac:	44 0f       	add	r20, r20
    2bae:	55 1f       	adc	r21, r21
    2bb0:	44 0f       	add	r20, r20
    2bb2:	55 1f       	adc	r21, r21
    2bb4:	ca 01       	movw	r24, r20
    2bb6:	8c 7f       	andi	r24, 0xFC	; 252
    2bb8:	91 70       	andi	r25, 0x01	; 1
    2bba:	8c 0f       	add	r24, r28
    2bbc:	9d 1f       	adc	r25, r29
    2bbe:	0e 94 d5 0d 	call	0x1baa	; 0x1baa <ld_dword>
    2bc2:	9f 70       	andi	r25, 0x0F	; 15
    2bc4:	1e c0       	rjmp	.+60     	; 0x2c02 <get_fat+0x1aa>
    2bc6:	61 e0       	ldi	r22, 0x01	; 1
    2bc8:	70 e0       	ldi	r23, 0x00	; 0
    2bca:	80 e0       	ldi	r24, 0x00	; 0
    2bcc:	90 e0       	ldi	r25, 0x00	; 0
    2bce:	19 c0       	rjmp	.+50     	; 0x2c02 <get_fat+0x1aa>
    2bd0:	61 e0       	ldi	r22, 0x01	; 1
    2bd2:	70 e0       	ldi	r23, 0x00	; 0
    2bd4:	80 e0       	ldi	r24, 0x00	; 0
    2bd6:	90 e0       	ldi	r25, 0x00	; 0
    2bd8:	14 c0       	rjmp	.+40     	; 0x2c02 <get_fat+0x1aa>
    2bda:	61 e0       	ldi	r22, 0x01	; 1
    2bdc:	70 e0       	ldi	r23, 0x00	; 0
    2bde:	80 e0       	ldi	r24, 0x00	; 0
    2be0:	90 e0       	ldi	r25, 0x00	; 0
    2be2:	0f c0       	rjmp	.+30     	; 0x2c02 <get_fat+0x1aa>
    2be4:	6f ef       	ldi	r22, 0xFF	; 255
    2be6:	7f ef       	ldi	r23, 0xFF	; 255
    2be8:	cb 01       	movw	r24, r22
    2bea:	0b c0       	rjmp	.+22     	; 0x2c02 <get_fat+0x1aa>
    2bec:	6f ef       	ldi	r22, 0xFF	; 255
    2bee:	7f ef       	ldi	r23, 0xFF	; 255
    2bf0:	cb 01       	movw	r24, r22
    2bf2:	07 c0       	rjmp	.+14     	; 0x2c02 <get_fat+0x1aa>
    2bf4:	6f ef       	ldi	r22, 0xFF	; 255
    2bf6:	7f ef       	ldi	r23, 0xFF	; 255
    2bf8:	cb 01       	movw	r24, r22
    2bfa:	03 c0       	rjmp	.+6      	; 0x2c02 <get_fat+0x1aa>
    2bfc:	6f ef       	ldi	r22, 0xFF	; 255
    2bfe:	7f ef       	ldi	r23, 0xFF	; 255
    2c00:	cb 01       	movw	r24, r22
    2c02:	df 91       	pop	r29
    2c04:	cf 91       	pop	r28
    2c06:	1f 91       	pop	r17
    2c08:	0f 91       	pop	r16
    2c0a:	ff 90       	pop	r15
    2c0c:	ef 90       	pop	r14
    2c0e:	df 90       	pop	r13
    2c10:	cf 90       	pop	r12
    2c12:	bf 90       	pop	r11
    2c14:	af 90       	pop	r10
    2c16:	08 95       	ret

00002c18 <dir_sdi>:
    2c18:	4f 92       	push	r4
    2c1a:	5f 92       	push	r5
    2c1c:	6f 92       	push	r6
    2c1e:	7f 92       	push	r7
    2c20:	8f 92       	push	r8
    2c22:	9f 92       	push	r9
    2c24:	af 92       	push	r10
    2c26:	bf 92       	push	r11
    2c28:	cf 92       	push	r12
    2c2a:	df 92       	push	r13
    2c2c:	ef 92       	push	r14
    2c2e:	ff 92       	push	r15
    2c30:	0f 93       	push	r16
    2c32:	1f 93       	push	r17
    2c34:	cf 93       	push	r28
    2c36:	df 93       	push	r29
    2c38:	ec 01       	movw	r28, r24
    2c3a:	6a 01       	movw	r12, r20
    2c3c:	7b 01       	movw	r14, r22
    2c3e:	08 81       	ld	r16, Y
    2c40:	19 81       	ldd	r17, Y+1	; 0x01
    2c42:	41 15       	cp	r20, r1
    2c44:	51 05       	cpc	r21, r1
    2c46:	80 e2       	ldi	r24, 0x20	; 32
    2c48:	68 07       	cpc	r22, r24
    2c4a:	71 05       	cpc	r23, r1
    2c4c:	08 f0       	brcs	.+2      	; 0x2c50 <dir_sdi+0x38>
    2c4e:	ac c0       	rjmp	.+344    	; 0x2da8 <dir_sdi+0x190>
    2c50:	db 01       	movw	r26, r22
    2c52:	ca 01       	movw	r24, r20
    2c54:	8f 71       	andi	r24, 0x1F	; 31
    2c56:	99 27       	eor	r25, r25
    2c58:	aa 27       	eor	r26, r26
    2c5a:	bb 27       	eor	r27, r27
    2c5c:	89 2b       	or	r24, r25
    2c5e:	8a 2b       	or	r24, r26
    2c60:	8b 2b       	or	r24, r27
    2c62:	09 f0       	breq	.+2      	; 0x2c66 <dir_sdi+0x4e>
    2c64:	a4 c0       	rjmp	.+328    	; 0x2dae <dir_sdi+0x196>
    2c66:	4e 87       	std	Y+14, r20	; 0x0e
    2c68:	5f 87       	std	Y+15, r21	; 0x0f
    2c6a:	68 8b       	std	Y+16, r22	; 0x10
    2c6c:	79 8b       	std	Y+17, r23	; 0x11
    2c6e:	8e 80       	ldd	r8, Y+6	; 0x06
    2c70:	9f 80       	ldd	r9, Y+7	; 0x07
    2c72:	a8 84       	ldd	r10, Y+8	; 0x08
    2c74:	b9 84       	ldd	r11, Y+9	; 0x09
    2c76:	81 14       	cp	r8, r1
    2c78:	91 04       	cpc	r9, r1
    2c7a:	a1 04       	cpc	r10, r1
    2c7c:	b1 04       	cpc	r11, r1
    2c7e:	41 f4       	brne	.+16     	; 0x2c90 <dir_sdi+0x78>
    2c80:	f8 01       	movw	r30, r16
    2c82:	80 81       	ld	r24, Z
    2c84:	83 30       	cpi	r24, 0x03	; 3
    2c86:	20 f0       	brcs	.+8      	; 0x2c90 <dir_sdi+0x78>
    2c88:	87 a0       	ldd	r8, Z+39	; 0x27
    2c8a:	90 a4       	ldd	r9, Z+40	; 0x28
    2c8c:	a1 a4       	ldd	r10, Z+41	; 0x29
    2c8e:	b2 a4       	ldd	r11, Z+42	; 0x2a
    2c90:	81 14       	cp	r8, r1
    2c92:	91 04       	cpc	r9, r1
    2c94:	a1 04       	cpc	r10, r1
    2c96:	b1 04       	cpc	r11, r1
    2c98:	f1 f4       	brne	.+60     	; 0x2cd6 <dir_sdi+0xbe>
    2c9a:	f8 01       	movw	r30, r16
    2c9c:	87 81       	ldd	r24, Z+7	; 0x07
    2c9e:	90 85       	ldd	r25, Z+8	; 0x08
    2ca0:	a0 e0       	ldi	r26, 0x00	; 0
    2ca2:	b0 e0       	ldi	r27, 0x00	; 0
    2ca4:	b7 01       	movw	r22, r14
    2ca6:	a6 01       	movw	r20, r12
    2ca8:	68 94       	set
    2caa:	14 f8       	bld	r1, 4
    2cac:	76 95       	lsr	r23
    2cae:	67 95       	ror	r22
    2cb0:	57 95       	ror	r21
    2cb2:	47 95       	ror	r20
    2cb4:	16 94       	lsr	r1
    2cb6:	d1 f7       	brne	.-12     	; 0x2cac <dir_sdi+0x94>
    2cb8:	48 17       	cp	r20, r24
    2cba:	59 07       	cpc	r21, r25
    2cbc:	6a 07       	cpc	r22, r26
    2cbe:	7b 07       	cpc	r23, r27
    2cc0:	08 f0       	brcs	.+2      	; 0x2cc4 <dir_sdi+0xac>
    2cc2:	78 c0       	rjmp	.+240    	; 0x2db4 <dir_sdi+0x19c>
    2cc4:	87 a1       	ldd	r24, Z+39	; 0x27
    2cc6:	90 a5       	ldd	r25, Z+40	; 0x28
    2cc8:	a1 a5       	ldd	r26, Z+41	; 0x29
    2cca:	b2 a5       	ldd	r27, Z+42	; 0x2a
    2ccc:	8e 8b       	std	Y+22, r24	; 0x16
    2cce:	9f 8b       	std	Y+23, r25	; 0x17
    2cd0:	a8 8f       	std	Y+24, r26	; 0x18
    2cd2:	b9 8f       	std	Y+25, r27	; 0x19
    2cd4:	3f c0       	rjmp	.+126    	; 0x2d54 <dir_sdi+0x13c>
    2cd6:	f8 01       	movw	r30, r16
    2cd8:	41 84       	ldd	r4, Z+9	; 0x09
    2cda:	52 84       	ldd	r5, Z+10	; 0x0a
    2cdc:	61 2c       	mov	r6, r1
    2cde:	71 2c       	mov	r7, r1
    2ce0:	03 2e       	mov	r0, r19
    2ce2:	39 e0       	ldi	r19, 0x09	; 9
    2ce4:	44 0c       	add	r4, r4
    2ce6:	55 1c       	adc	r5, r5
    2ce8:	66 1c       	adc	r6, r6
    2cea:	77 1c       	adc	r7, r7
    2cec:	3a 95       	dec	r19
    2cee:	d1 f7       	brne	.-12     	; 0x2ce4 <dir_sdi+0xcc>
    2cf0:	30 2d       	mov	r19, r0
    2cf2:	22 c0       	rjmp	.+68     	; 0x2d38 <dir_sdi+0x120>
    2cf4:	b5 01       	movw	r22, r10
    2cf6:	a4 01       	movw	r20, r8
    2cf8:	ce 01       	movw	r24, r28
    2cfa:	ae de       	rcall	.-676    	; 0x2a58 <get_fat>
    2cfc:	4b 01       	movw	r8, r22
    2cfe:	5c 01       	movw	r10, r24
    2d00:	6f 3f       	cpi	r22, 0xFF	; 255
    2d02:	7f 4f       	sbci	r23, 0xFF	; 255
    2d04:	8f 4f       	sbci	r24, 0xFF	; 255
    2d06:	9f 4f       	sbci	r25, 0xFF	; 255
    2d08:	09 f4       	brne	.+2      	; 0x2d0c <dir_sdi+0xf4>
    2d0a:	57 c0       	rjmp	.+174    	; 0x2dba <dir_sdi+0x1a2>
    2d0c:	82 e0       	ldi	r24, 0x02	; 2
    2d0e:	88 16       	cp	r8, r24
    2d10:	91 04       	cpc	r9, r1
    2d12:	a1 04       	cpc	r10, r1
    2d14:	b1 04       	cpc	r11, r1
    2d16:	08 f4       	brcc	.+2      	; 0x2d1a <dir_sdi+0x102>
    2d18:	53 c0       	rjmp	.+166    	; 0x2dc0 <dir_sdi+0x1a8>
    2d1a:	f8 01       	movw	r30, r16
    2d1c:	87 89       	ldd	r24, Z+23	; 0x17
    2d1e:	90 8d       	ldd	r25, Z+24	; 0x18
    2d20:	a1 8d       	ldd	r26, Z+25	; 0x19
    2d22:	b2 8d       	ldd	r27, Z+26	; 0x1a
    2d24:	88 16       	cp	r8, r24
    2d26:	99 06       	cpc	r9, r25
    2d28:	aa 06       	cpc	r10, r26
    2d2a:	bb 06       	cpc	r11, r27
    2d2c:	08 f0       	brcs	.+2      	; 0x2d30 <dir_sdi+0x118>
    2d2e:	4b c0       	rjmp	.+150    	; 0x2dc6 <dir_sdi+0x1ae>
    2d30:	c4 18       	sub	r12, r4
    2d32:	d5 08       	sbc	r13, r5
    2d34:	e6 08       	sbc	r14, r6
    2d36:	f7 08       	sbc	r15, r7
    2d38:	c4 14       	cp	r12, r4
    2d3a:	d5 04       	cpc	r13, r5
    2d3c:	e6 04       	cpc	r14, r6
    2d3e:	f7 04       	cpc	r15, r7
    2d40:	c8 f6       	brcc	.-78     	; 0x2cf4 <dir_sdi+0xdc>
    2d42:	b5 01       	movw	r22, r10
    2d44:	a4 01       	movw	r20, r8
    2d46:	c8 01       	movw	r24, r16
    2d48:	0e 94 3b 0e 	call	0x1c76	; 0x1c76 <clust2sect>
    2d4c:	6e 8b       	std	Y+22, r22	; 0x16
    2d4e:	7f 8b       	std	Y+23, r23	; 0x17
    2d50:	88 8f       	std	Y+24, r24	; 0x18
    2d52:	99 8f       	std	Y+25, r25	; 0x19
    2d54:	8a 8a       	std	Y+18, r8	; 0x12
    2d56:	9b 8a       	std	Y+19, r9	; 0x13
    2d58:	ac 8a       	std	Y+20, r10	; 0x14
    2d5a:	bd 8a       	std	Y+21, r11	; 0x15
    2d5c:	8e 89       	ldd	r24, Y+22	; 0x16
    2d5e:	9f 89       	ldd	r25, Y+23	; 0x17
    2d60:	a8 8d       	ldd	r26, Y+24	; 0x18
    2d62:	b9 8d       	ldd	r27, Y+25	; 0x19
    2d64:	00 97       	sbiw	r24, 0x00	; 0
    2d66:	a1 05       	cpc	r26, r1
    2d68:	b1 05       	cpc	r27, r1
    2d6a:	81 f1       	breq	.+96     	; 0x2dcc <dir_sdi+0x1b4>
    2d6c:	b7 01       	movw	r22, r14
    2d6e:	a6 01       	movw	r20, r12
    2d70:	03 2e       	mov	r0, r19
    2d72:	39 e0       	ldi	r19, 0x09	; 9
    2d74:	76 95       	lsr	r23
    2d76:	67 95       	ror	r22
    2d78:	57 95       	ror	r21
    2d7a:	47 95       	ror	r20
    2d7c:	3a 95       	dec	r19
    2d7e:	d1 f7       	brne	.-12     	; 0x2d74 <dir_sdi+0x15c>
    2d80:	30 2d       	mov	r19, r0
    2d82:	84 0f       	add	r24, r20
    2d84:	95 1f       	adc	r25, r21
    2d86:	a6 1f       	adc	r26, r22
    2d88:	b7 1f       	adc	r27, r23
    2d8a:	8e 8b       	std	Y+22, r24	; 0x16
    2d8c:	9f 8b       	std	Y+23, r25	; 0x17
    2d8e:	a8 8f       	std	Y+24, r26	; 0x18
    2d90:	b9 8f       	std	Y+25, r27	; 0x19
    2d92:	0d 5c       	subi	r16, 0xCD	; 205
    2d94:	1f 4f       	sbci	r17, 0xFF	; 255
    2d96:	f1 e0       	ldi	r31, 0x01	; 1
    2d98:	df 22       	and	r13, r31
    2d9a:	c0 0e       	add	r12, r16
    2d9c:	d1 1e       	adc	r13, r17
    2d9e:	db 8e       	std	Y+27, r13	; 0x1b
    2da0:	ca 8e       	std	Y+26, r12	; 0x1a
    2da2:	80 e0       	ldi	r24, 0x00	; 0
    2da4:	90 e0       	ldi	r25, 0x00	; 0
    2da6:	14 c0       	rjmp	.+40     	; 0x2dd0 <dir_sdi+0x1b8>
    2da8:	82 e0       	ldi	r24, 0x02	; 2
    2daa:	90 e0       	ldi	r25, 0x00	; 0
    2dac:	11 c0       	rjmp	.+34     	; 0x2dd0 <dir_sdi+0x1b8>
    2dae:	82 e0       	ldi	r24, 0x02	; 2
    2db0:	90 e0       	ldi	r25, 0x00	; 0
    2db2:	0e c0       	rjmp	.+28     	; 0x2dd0 <dir_sdi+0x1b8>
    2db4:	82 e0       	ldi	r24, 0x02	; 2
    2db6:	90 e0       	ldi	r25, 0x00	; 0
    2db8:	0b c0       	rjmp	.+22     	; 0x2dd0 <dir_sdi+0x1b8>
    2dba:	81 e0       	ldi	r24, 0x01	; 1
    2dbc:	90 e0       	ldi	r25, 0x00	; 0
    2dbe:	08 c0       	rjmp	.+16     	; 0x2dd0 <dir_sdi+0x1b8>
    2dc0:	82 e0       	ldi	r24, 0x02	; 2
    2dc2:	90 e0       	ldi	r25, 0x00	; 0
    2dc4:	05 c0       	rjmp	.+10     	; 0x2dd0 <dir_sdi+0x1b8>
    2dc6:	82 e0       	ldi	r24, 0x02	; 2
    2dc8:	90 e0       	ldi	r25, 0x00	; 0
    2dca:	02 c0       	rjmp	.+4      	; 0x2dd0 <dir_sdi+0x1b8>
    2dcc:	82 e0       	ldi	r24, 0x02	; 2
    2dce:	90 e0       	ldi	r25, 0x00	; 0
    2dd0:	df 91       	pop	r29
    2dd2:	cf 91       	pop	r28
    2dd4:	1f 91       	pop	r17
    2dd6:	0f 91       	pop	r16
    2dd8:	ff 90       	pop	r15
    2dda:	ef 90       	pop	r14
    2ddc:	df 90       	pop	r13
    2dde:	cf 90       	pop	r12
    2de0:	bf 90       	pop	r11
    2de2:	af 90       	pop	r10
    2de4:	9f 90       	pop	r9
    2de6:	8f 90       	pop	r8
    2de8:	7f 90       	pop	r7
    2dea:	6f 90       	pop	r6
    2dec:	5f 90       	pop	r5
    2dee:	4f 90       	pop	r4
    2df0:	08 95       	ret

00002df2 <create_chain>:
    2df2:	4f 92       	push	r4
    2df4:	5f 92       	push	r5
    2df6:	6f 92       	push	r6
    2df8:	7f 92       	push	r7
    2dfa:	8f 92       	push	r8
    2dfc:	9f 92       	push	r9
    2dfe:	af 92       	push	r10
    2e00:	bf 92       	push	r11
    2e02:	cf 92       	push	r12
    2e04:	df 92       	push	r13
    2e06:	ef 92       	push	r14
    2e08:	ff 92       	push	r15
    2e0a:	0f 93       	push	r16
    2e0c:	1f 93       	push	r17
    2e0e:	cf 93       	push	r28
    2e10:	df 93       	push	r29
    2e12:	8c 01       	movw	r16, r24
    2e14:	2a 01       	movw	r4, r20
    2e16:	3b 01       	movw	r6, r22
    2e18:	fc 01       	movw	r30, r24
    2e1a:	c0 81       	ld	r28, Z
    2e1c:	d1 81       	ldd	r29, Z+1	; 0x01
    2e1e:	41 15       	cp	r20, r1
    2e20:	51 05       	cpc	r21, r1
    2e22:	61 05       	cpc	r22, r1
    2e24:	71 05       	cpc	r23, r1
    2e26:	99 f4       	brne	.+38     	; 0x2e4e <create_chain+0x5c>
    2e28:	8b 84       	ldd	r8, Y+11	; 0x0b
    2e2a:	9c 84       	ldd	r9, Y+12	; 0x0c
    2e2c:	ad 84       	ldd	r10, Y+13	; 0x0d
    2e2e:	be 84       	ldd	r11, Y+14	; 0x0e
    2e30:	81 14       	cp	r8, r1
    2e32:	91 04       	cpc	r9, r1
    2e34:	a1 04       	cpc	r10, r1
    2e36:	b1 04       	cpc	r11, r1
    2e38:	29 f1       	breq	.+74     	; 0x2e84 <create_chain+0x92>
    2e3a:	8f 89       	ldd	r24, Y+23	; 0x17
    2e3c:	98 8d       	ldd	r25, Y+24	; 0x18
    2e3e:	a9 8d       	ldd	r26, Y+25	; 0x19
    2e40:	ba 8d       	ldd	r27, Y+26	; 0x1a
    2e42:	88 16       	cp	r8, r24
    2e44:	99 06       	cpc	r9, r25
    2e46:	aa 06       	cpc	r10, r26
    2e48:	bb 06       	cpc	r11, r27
    2e4a:	08 f5       	brcc	.+66     	; 0x2e8e <create_chain+0x9c>
    2e4c:	24 c0       	rjmp	.+72     	; 0x2e96 <create_chain+0xa4>
    2e4e:	04 de       	rcall	.-1016   	; 0x2a58 <get_fat>
    2e50:	62 30       	cpi	r22, 0x02	; 2
    2e52:	71 05       	cpc	r23, r1
    2e54:	81 05       	cpc	r24, r1
    2e56:	91 05       	cpc	r25, r1
    2e58:	08 f4       	brcc	.+2      	; 0x2e5c <create_chain+0x6a>
    2e5a:	96 c0       	rjmp	.+300    	; 0x2f88 <create_chain+0x196>
    2e5c:	6f 3f       	cpi	r22, 0xFF	; 255
    2e5e:	ff ef       	ldi	r31, 0xFF	; 255
    2e60:	7f 07       	cpc	r23, r31
    2e62:	8f 07       	cpc	r24, r31
    2e64:	9f 07       	cpc	r25, r31
    2e66:	09 f4       	brne	.+2      	; 0x2e6a <create_chain+0x78>
    2e68:	94 c0       	rjmp	.+296    	; 0x2f92 <create_chain+0x1a0>
    2e6a:	cf 88       	ldd	r12, Y+23	; 0x17
    2e6c:	d8 8c       	ldd	r13, Y+24	; 0x18
    2e6e:	e9 8c       	ldd	r14, Y+25	; 0x19
    2e70:	fa 8c       	ldd	r15, Y+26	; 0x1a
    2e72:	6c 15       	cp	r22, r12
    2e74:	7d 05       	cpc	r23, r13
    2e76:	8e 05       	cpc	r24, r14
    2e78:	9f 05       	cpc	r25, r15
    2e7a:	08 f4       	brcc	.+2      	; 0x2e7e <create_chain+0x8c>
    2e7c:	8e c0       	rjmp	.+284    	; 0x2f9a <create_chain+0x1a8>
    2e7e:	53 01       	movw	r10, r6
    2e80:	42 01       	movw	r8, r4
    2e82:	09 c0       	rjmp	.+18     	; 0x2e96 <create_chain+0xa4>
    2e84:	81 2c       	mov	r8, r1
    2e86:	91 2c       	mov	r9, r1
    2e88:	54 01       	movw	r10, r8
    2e8a:	83 94       	inc	r8
    2e8c:	04 c0       	rjmp	.+8      	; 0x2e96 <create_chain+0xa4>
    2e8e:	81 2c       	mov	r8, r1
    2e90:	91 2c       	mov	r9, r1
    2e92:	54 01       	movw	r10, r8
    2e94:	83 94       	inc	r8
    2e96:	75 01       	movw	r14, r10
    2e98:	64 01       	movw	r12, r8
    2e9a:	2f ef       	ldi	r18, 0xFF	; 255
    2e9c:	c2 1a       	sub	r12, r18
    2e9e:	d2 0a       	sbc	r13, r18
    2ea0:	e2 0a       	sbc	r14, r18
    2ea2:	f2 0a       	sbc	r15, r18
    2ea4:	8f 89       	ldd	r24, Y+23	; 0x17
    2ea6:	98 8d       	ldd	r25, Y+24	; 0x18
    2ea8:	a9 8d       	ldd	r26, Y+25	; 0x19
    2eaa:	ba 8d       	ldd	r27, Y+26	; 0x1a
    2eac:	c8 16       	cp	r12, r24
    2eae:	d9 06       	cpc	r13, r25
    2eb0:	ea 06       	cpc	r14, r26
    2eb2:	fb 06       	cpc	r15, r27
    2eb4:	60 f0       	brcs	.+24     	; 0x2ece <create_chain+0xdc>
    2eb6:	82 e0       	ldi	r24, 0x02	; 2
    2eb8:	88 16       	cp	r8, r24
    2eba:	91 04       	cpc	r9, r1
    2ebc:	a1 04       	cpc	r10, r1
    2ebe:	b1 04       	cpc	r11, r1
    2ec0:	08 f4       	brcc	.+2      	; 0x2ec4 <create_chain+0xd2>
    2ec2:	6f c0       	rjmp	.+222    	; 0x2fa2 <create_chain+0x1b0>
    2ec4:	c1 2c       	mov	r12, r1
    2ec6:	d1 2c       	mov	r13, r1
    2ec8:	76 01       	movw	r14, r12
    2eca:	68 94       	set
    2ecc:	c1 f8       	bld	r12, 1
    2ece:	b7 01       	movw	r22, r14
    2ed0:	a6 01       	movw	r20, r12
    2ed2:	c8 01       	movw	r24, r16
    2ed4:	c1 dd       	rcall	.-1150   	; 0x2a58 <get_fat>
    2ed6:	61 15       	cp	r22, r1
    2ed8:	71 05       	cpc	r23, r1
    2eda:	81 05       	cpc	r24, r1
    2edc:	91 05       	cpc	r25, r1
    2ede:	99 f0       	breq	.+38     	; 0x2f06 <create_chain+0x114>
    2ee0:	61 30       	cpi	r22, 0x01	; 1
    2ee2:	71 05       	cpc	r23, r1
    2ee4:	81 05       	cpc	r24, r1
    2ee6:	91 05       	cpc	r25, r1
    2ee8:	09 f4       	brne	.+2      	; 0x2eec <create_chain+0xfa>
    2eea:	60 c0       	rjmp	.+192    	; 0x2fac <create_chain+0x1ba>
    2eec:	6f 3f       	cpi	r22, 0xFF	; 255
    2eee:	ef ef       	ldi	r30, 0xFF	; 255
    2ef0:	7e 07       	cpc	r23, r30
    2ef2:	8e 07       	cpc	r24, r30
    2ef4:	9e 07       	cpc	r25, r30
    2ef6:	09 f4       	brne	.+2      	; 0x2efa <create_chain+0x108>
    2ef8:	5d c0       	rjmp	.+186    	; 0x2fb4 <create_chain+0x1c2>
    2efa:	c8 14       	cp	r12, r8
    2efc:	d9 04       	cpc	r13, r9
    2efe:	ea 04       	cpc	r14, r10
    2f00:	fb 04       	cpc	r15, r11
    2f02:	59 f6       	brne	.-106    	; 0x2e9a <create_chain+0xa8>
    2f04:	5b c0       	rjmp	.+182    	; 0x2fbc <create_chain+0x1ca>
    2f06:	0f ef       	ldi	r16, 0xFF	; 255
    2f08:	1f ef       	ldi	r17, 0xFF	; 255
    2f0a:	98 01       	movw	r18, r16
    2f0c:	b7 01       	movw	r22, r14
    2f0e:	a6 01       	movw	r20, r12
    2f10:	ce 01       	movw	r24, r28
    2f12:	79 dc       	rcall	.-1806   	; 0x2806 <put_fat>
    2f14:	00 97       	sbiw	r24, 0x00	; 0
    2f16:	59 f4       	brne	.+22     	; 0x2f2e <create_chain+0x13c>
    2f18:	41 14       	cp	r4, r1
    2f1a:	51 04       	cpc	r5, r1
    2f1c:	61 04       	cpc	r6, r1
    2f1e:	71 04       	cpc	r7, r1
    2f20:	31 f0       	breq	.+12     	; 0x2f2e <create_chain+0x13c>
    2f22:	97 01       	movw	r18, r14
    2f24:	86 01       	movw	r16, r12
    2f26:	b3 01       	movw	r22, r6
    2f28:	a2 01       	movw	r20, r4
    2f2a:	ce 01       	movw	r24, r28
    2f2c:	6c dc       	rcall	.-1832   	; 0x2806 <put_fat>
    2f2e:	00 97       	sbiw	r24, 0x00	; 0
    2f30:	21 f5       	brne	.+72     	; 0x2f7a <create_chain+0x188>
    2f32:	cb 86       	std	Y+11, r12	; 0x0b
    2f34:	dc 86       	std	Y+12, r13	; 0x0c
    2f36:	ed 86       	std	Y+13, r14	; 0x0d
    2f38:	fe 86       	std	Y+14, r15	; 0x0e
    2f3a:	8f 85       	ldd	r24, Y+15	; 0x0f
    2f3c:	98 89       	ldd	r25, Y+16	; 0x10
    2f3e:	a9 89       	ldd	r26, Y+17	; 0x11
    2f40:	ba 89       	ldd	r27, Y+18	; 0x12
    2f42:	4f 89       	ldd	r20, Y+23	; 0x17
    2f44:	58 8d       	ldd	r21, Y+24	; 0x18
    2f46:	69 8d       	ldd	r22, Y+25	; 0x19
    2f48:	7a 8d       	ldd	r23, Y+26	; 0x1a
    2f4a:	42 50       	subi	r20, 0x02	; 2
    2f4c:	51 09       	sbc	r21, r1
    2f4e:	61 09       	sbc	r22, r1
    2f50:	71 09       	sbc	r23, r1
    2f52:	48 17       	cp	r20, r24
    2f54:	59 07       	cpc	r21, r25
    2f56:	6a 07       	cpc	r22, r26
    2f58:	7b 07       	cpc	r23, r27
    2f5a:	38 f0       	brcs	.+14     	; 0x2f6a <create_chain+0x178>
    2f5c:	01 97       	sbiw	r24, 0x01	; 1
    2f5e:	a1 09       	sbc	r26, r1
    2f60:	b1 09       	sbc	r27, r1
    2f62:	8f 87       	std	Y+15, r24	; 0x0f
    2f64:	98 8b       	std	Y+16, r25	; 0x10
    2f66:	a9 8b       	std	Y+17, r26	; 0x11
    2f68:	ba 8b       	std	Y+18, r27	; 0x12
    2f6a:	8c 81       	ldd	r24, Y+4	; 0x04
    2f6c:	81 60       	ori	r24, 0x01	; 1
    2f6e:	8c 83       	std	Y+4, r24	; 0x04
    2f70:	4c 2d       	mov	r20, r12
    2f72:	3d 2d       	mov	r19, r13
    2f74:	2e 2d       	mov	r18, r14
    2f76:	9f 2d       	mov	r25, r15
    2f78:	2a c0       	rjmp	.+84     	; 0x2fce <create_chain+0x1dc>
    2f7a:	01 97       	sbiw	r24, 0x01	; 1
    2f7c:	21 f5       	brne	.+72     	; 0x2fc6 <create_chain+0x1d4>
    2f7e:	4f ef       	ldi	r20, 0xFF	; 255
    2f80:	3f ef       	ldi	r19, 0xFF	; 255
    2f82:	2f ef       	ldi	r18, 0xFF	; 255
    2f84:	9f ef       	ldi	r25, 0xFF	; 255
    2f86:	23 c0       	rjmp	.+70     	; 0x2fce <create_chain+0x1dc>
    2f88:	41 e0       	ldi	r20, 0x01	; 1
    2f8a:	30 e0       	ldi	r19, 0x00	; 0
    2f8c:	20 e0       	ldi	r18, 0x00	; 0
    2f8e:	90 e0       	ldi	r25, 0x00	; 0
    2f90:	1e c0       	rjmp	.+60     	; 0x2fce <create_chain+0x1dc>
    2f92:	46 2f       	mov	r20, r22
    2f94:	37 2f       	mov	r19, r23
    2f96:	28 2f       	mov	r18, r24
    2f98:	1a c0       	rjmp	.+52     	; 0x2fce <create_chain+0x1dc>
    2f9a:	46 2f       	mov	r20, r22
    2f9c:	37 2f       	mov	r19, r23
    2f9e:	28 2f       	mov	r18, r24
    2fa0:	16 c0       	rjmp	.+44     	; 0x2fce <create_chain+0x1dc>
    2fa2:	40 e0       	ldi	r20, 0x00	; 0
    2fa4:	30 e0       	ldi	r19, 0x00	; 0
    2fa6:	20 e0       	ldi	r18, 0x00	; 0
    2fa8:	90 e0       	ldi	r25, 0x00	; 0
    2faa:	11 c0       	rjmp	.+34     	; 0x2fce <create_chain+0x1dc>
    2fac:	46 2f       	mov	r20, r22
    2fae:	37 2f       	mov	r19, r23
    2fb0:	28 2f       	mov	r18, r24
    2fb2:	0d c0       	rjmp	.+26     	; 0x2fce <create_chain+0x1dc>
    2fb4:	46 2f       	mov	r20, r22
    2fb6:	37 2f       	mov	r19, r23
    2fb8:	28 2f       	mov	r18, r24
    2fba:	09 c0       	rjmp	.+18     	; 0x2fce <create_chain+0x1dc>
    2fbc:	40 e0       	ldi	r20, 0x00	; 0
    2fbe:	30 e0       	ldi	r19, 0x00	; 0
    2fc0:	20 e0       	ldi	r18, 0x00	; 0
    2fc2:	90 e0       	ldi	r25, 0x00	; 0
    2fc4:	04 c0       	rjmp	.+8      	; 0x2fce <create_chain+0x1dc>
    2fc6:	41 e0       	ldi	r20, 0x01	; 1
    2fc8:	30 e0       	ldi	r19, 0x00	; 0
    2fca:	20 e0       	ldi	r18, 0x00	; 0
    2fcc:	90 e0       	ldi	r25, 0x00	; 0
    2fce:	64 2f       	mov	r22, r20
    2fd0:	73 2f       	mov	r23, r19
    2fd2:	82 2f       	mov	r24, r18
    2fd4:	df 91       	pop	r29
    2fd6:	cf 91       	pop	r28
    2fd8:	1f 91       	pop	r17
    2fda:	0f 91       	pop	r16
    2fdc:	ff 90       	pop	r15
    2fde:	ef 90       	pop	r14
    2fe0:	df 90       	pop	r13
    2fe2:	cf 90       	pop	r12
    2fe4:	bf 90       	pop	r11
    2fe6:	af 90       	pop	r10
    2fe8:	9f 90       	pop	r9
    2fea:	8f 90       	pop	r8
    2fec:	7f 90       	pop	r7
    2fee:	6f 90       	pop	r6
    2ff0:	5f 90       	pop	r5
    2ff2:	4f 90       	pop	r4
    2ff4:	08 95       	ret

00002ff6 <remove_chain>:
    2ff6:	4f 92       	push	r4
    2ff8:	5f 92       	push	r5
    2ffa:	6f 92       	push	r6
    2ffc:	7f 92       	push	r7
    2ffe:	af 92       	push	r10
    3000:	bf 92       	push	r11
    3002:	cf 92       	push	r12
    3004:	df 92       	push	r13
    3006:	ef 92       	push	r14
    3008:	ff 92       	push	r15
    300a:	0f 93       	push	r16
    300c:	1f 93       	push	r17
    300e:	cf 93       	push	r28
    3010:	df 93       	push	r29
    3012:	5c 01       	movw	r10, r24
    3014:	6a 01       	movw	r12, r20
    3016:	7b 01       	movw	r14, r22
    3018:	b9 01       	movw	r22, r18
    301a:	a8 01       	movw	r20, r16
    301c:	fc 01       	movw	r30, r24
    301e:	c0 81       	ld	r28, Z
    3020:	d1 81       	ldd	r29, Z+1	; 0x01
    3022:	f2 e0       	ldi	r31, 0x02	; 2
    3024:	cf 16       	cp	r12, r31
    3026:	d1 04       	cpc	r13, r1
    3028:	e1 04       	cpc	r14, r1
    302a:	f1 04       	cpc	r15, r1
    302c:	08 f4       	brcc	.+2      	; 0x3030 <remove_chain+0x3a>
    302e:	61 c0       	rjmp	.+194    	; 0x30f2 <remove_chain+0xfc>
    3030:	8f 89       	ldd	r24, Y+23	; 0x17
    3032:	98 8d       	ldd	r25, Y+24	; 0x18
    3034:	a9 8d       	ldd	r26, Y+25	; 0x19
    3036:	ba 8d       	ldd	r27, Y+26	; 0x1a
    3038:	c8 16       	cp	r12, r24
    303a:	d9 06       	cpc	r13, r25
    303c:	ea 06       	cpc	r14, r26
    303e:	fb 06       	cpc	r15, r27
    3040:	08 f0       	brcs	.+2      	; 0x3044 <remove_chain+0x4e>
    3042:	5a c0       	rjmp	.+180    	; 0x30f8 <remove_chain+0x102>
    3044:	01 2b       	or	r16, r17
    3046:	02 2b       	or	r16, r18
    3048:	03 2b       	or	r16, r19
    304a:	41 f0       	breq	.+16     	; 0x305c <remove_chain+0x66>
    304c:	0f ef       	ldi	r16, 0xFF	; 255
    304e:	1f ef       	ldi	r17, 0xFF	; 255
    3050:	98 01       	movw	r18, r16
    3052:	ce 01       	movw	r24, r28
    3054:	d8 db       	rcall	.-2128   	; 0x2806 <put_fat>
    3056:	00 97       	sbiw	r24, 0x00	; 0
    3058:	09 f0       	breq	.+2      	; 0x305c <remove_chain+0x66>
    305a:	59 c0       	rjmp	.+178    	; 0x310e <remove_chain+0x118>
    305c:	b7 01       	movw	r22, r14
    305e:	a6 01       	movw	r20, r12
    3060:	c5 01       	movw	r24, r10
    3062:	fa dc       	rcall	.-1548   	; 0x2a58 <get_fat>
    3064:	2b 01       	movw	r4, r22
    3066:	3c 01       	movw	r6, r24
    3068:	61 15       	cp	r22, r1
    306a:	71 05       	cpc	r23, r1
    306c:	81 05       	cpc	r24, r1
    306e:	91 05       	cpc	r25, r1
    3070:	09 f4       	brne	.+2      	; 0x3074 <remove_chain+0x7e>
    3072:	45 c0       	rjmp	.+138    	; 0x30fe <remove_chain+0x108>
    3074:	61 30       	cpi	r22, 0x01	; 1
    3076:	71 05       	cpc	r23, r1
    3078:	81 05       	cpc	r24, r1
    307a:	91 05       	cpc	r25, r1
    307c:	09 f4       	brne	.+2      	; 0x3080 <remove_chain+0x8a>
    307e:	42 c0       	rjmp	.+132    	; 0x3104 <remove_chain+0x10e>
    3080:	8f ef       	ldi	r24, 0xFF	; 255
    3082:	48 16       	cp	r4, r24
    3084:	58 06       	cpc	r5, r24
    3086:	68 06       	cpc	r6, r24
    3088:	78 06       	cpc	r7, r24
    308a:	09 f4       	brne	.+2      	; 0x308e <remove_chain+0x98>
    308c:	3e c0       	rjmp	.+124    	; 0x310a <remove_chain+0x114>
    308e:	00 e0       	ldi	r16, 0x00	; 0
    3090:	10 e0       	ldi	r17, 0x00	; 0
    3092:	98 01       	movw	r18, r16
    3094:	b7 01       	movw	r22, r14
    3096:	a6 01       	movw	r20, r12
    3098:	ce 01       	movw	r24, r28
    309a:	b5 db       	rcall	.-2198   	; 0x2806 <put_fat>
    309c:	00 97       	sbiw	r24, 0x00	; 0
    309e:	b9 f5       	brne	.+110    	; 0x310e <remove_chain+0x118>
    30a0:	8f 85       	ldd	r24, Y+15	; 0x0f
    30a2:	98 89       	ldd	r25, Y+16	; 0x10
    30a4:	a9 89       	ldd	r26, Y+17	; 0x11
    30a6:	ba 89       	ldd	r27, Y+18	; 0x12
    30a8:	4f 89       	ldd	r20, Y+23	; 0x17
    30aa:	58 8d       	ldd	r21, Y+24	; 0x18
    30ac:	69 8d       	ldd	r22, Y+25	; 0x19
    30ae:	7a 8d       	ldd	r23, Y+26	; 0x1a
    30b0:	6a 01       	movw	r12, r20
    30b2:	7b 01       	movw	r14, r22
    30b4:	e2 e0       	ldi	r30, 0x02	; 2
    30b6:	ce 1a       	sub	r12, r30
    30b8:	d1 08       	sbc	r13, r1
    30ba:	e1 08       	sbc	r14, r1
    30bc:	f1 08       	sbc	r15, r1
    30be:	8c 15       	cp	r24, r12
    30c0:	9d 05       	cpc	r25, r13
    30c2:	ae 05       	cpc	r26, r14
    30c4:	bf 05       	cpc	r27, r15
    30c6:	50 f4       	brcc	.+20     	; 0x30dc <remove_chain+0xe6>
    30c8:	01 96       	adiw	r24, 0x01	; 1
    30ca:	a1 1d       	adc	r26, r1
    30cc:	b1 1d       	adc	r27, r1
    30ce:	8f 87       	std	Y+15, r24	; 0x0f
    30d0:	98 8b       	std	Y+16, r25	; 0x10
    30d2:	a9 8b       	std	Y+17, r26	; 0x11
    30d4:	ba 8b       	std	Y+18, r27	; 0x12
    30d6:	8c 81       	ldd	r24, Y+4	; 0x04
    30d8:	81 60       	ori	r24, 0x01	; 1
    30da:	8c 83       	std	Y+4, r24	; 0x04
    30dc:	73 01       	movw	r14, r6
    30de:	62 01       	movw	r12, r4
    30e0:	44 16       	cp	r4, r20
    30e2:	55 06       	cpc	r5, r21
    30e4:	66 06       	cpc	r6, r22
    30e6:	77 06       	cpc	r7, r23
    30e8:	08 f4       	brcc	.+2      	; 0x30ec <remove_chain+0xf6>
    30ea:	b8 cf       	rjmp	.-144    	; 0x305c <remove_chain+0x66>
    30ec:	80 e0       	ldi	r24, 0x00	; 0
    30ee:	90 e0       	ldi	r25, 0x00	; 0
    30f0:	0e c0       	rjmp	.+28     	; 0x310e <remove_chain+0x118>
    30f2:	82 e0       	ldi	r24, 0x02	; 2
    30f4:	90 e0       	ldi	r25, 0x00	; 0
    30f6:	0b c0       	rjmp	.+22     	; 0x310e <remove_chain+0x118>
    30f8:	82 e0       	ldi	r24, 0x02	; 2
    30fa:	90 e0       	ldi	r25, 0x00	; 0
    30fc:	08 c0       	rjmp	.+16     	; 0x310e <remove_chain+0x118>
    30fe:	80 e0       	ldi	r24, 0x00	; 0
    3100:	90 e0       	ldi	r25, 0x00	; 0
    3102:	05 c0       	rjmp	.+10     	; 0x310e <remove_chain+0x118>
    3104:	82 e0       	ldi	r24, 0x02	; 2
    3106:	90 e0       	ldi	r25, 0x00	; 0
    3108:	02 c0       	rjmp	.+4      	; 0x310e <remove_chain+0x118>
    310a:	81 e0       	ldi	r24, 0x01	; 1
    310c:	90 e0       	ldi	r25, 0x00	; 0
    310e:	df 91       	pop	r29
    3110:	cf 91       	pop	r28
    3112:	1f 91       	pop	r17
    3114:	0f 91       	pop	r16
    3116:	ff 90       	pop	r15
    3118:	ef 90       	pop	r14
    311a:	df 90       	pop	r13
    311c:	cf 90       	pop	r12
    311e:	bf 90       	pop	r11
    3120:	af 90       	pop	r10
    3122:	7f 90       	pop	r7
    3124:	6f 90       	pop	r6
    3126:	5f 90       	pop	r5
    3128:	4f 90       	pop	r4
    312a:	08 95       	ret

0000312c <dir_next>:
static
FRESULT dir_next (	/* FR_OK(0):succeeded, FR_NO_FILE:End of table, FR_DENIED:Could not stretch */
	DIR* dp,		/* Pointer to the directory object */
	int stretch		/* 0: Do not stretch table, 1: Stretch table if needed */
)
{
    312c:	4f 92       	push	r4
    312e:	5f 92       	push	r5
    3130:	6f 92       	push	r6
    3132:	7f 92       	push	r7
    3134:	af 92       	push	r10
    3136:	bf 92       	push	r11
    3138:	cf 92       	push	r12
    313a:	df 92       	push	r13
    313c:	ef 92       	push	r14
    313e:	ff 92       	push	r15
    3140:	0f 93       	push	r16
    3142:	1f 93       	push	r17
    3144:	cf 93       	push	r28
    3146:	df 93       	push	r29
    3148:	ec 01       	movw	r28, r24
	DWORD ofs, clst;
	FATFS *fs = dp->obj.fs;
    314a:	08 81       	ld	r16, Y
    314c:	19 81       	ldd	r17, Y+1	; 0x01
#if !_FS_READONLY
	UINT n;
#endif

	ofs = dp->dptr + SZDIRE;	/* Next entry */
    314e:	ce 84       	ldd	r12, Y+14	; 0x0e
    3150:	df 84       	ldd	r13, Y+15	; 0x0f
    3152:	e8 88       	ldd	r14, Y+16	; 0x10
    3154:	f9 88       	ldd	r15, Y+17	; 0x11
    3156:	20 e2       	ldi	r18, 0x20	; 32
    3158:	c2 0e       	add	r12, r18
    315a:	d1 1c       	adc	r13, r1
    315c:	e1 1c       	adc	r14, r1
    315e:	f1 1c       	adc	r15, r1
	if (!dp->sect || ofs >= (DWORD)((_FS_EXFAT && fs->fs_type == FS_EXFAT) ? MAX_DIR_EX : MAX_DIR)) return FR_NO_FILE;	/* Report EOT when offset has reached max value */
    3160:	8e 89       	ldd	r24, Y+22	; 0x16
    3162:	9f 89       	ldd	r25, Y+23	; 0x17
    3164:	a8 8d       	ldd	r26, Y+24	; 0x18
    3166:	b9 8d       	ldd	r27, Y+25	; 0x19
    3168:	00 97       	sbiw	r24, 0x00	; 0
    316a:	a1 05       	cpc	r26, r1
    316c:	b1 05       	cpc	r27, r1
    316e:	09 f4       	brne	.+2      	; 0x3172 <dir_next+0x46>
    3170:	f8 c0       	rjmp	.+496    	; 0x3362 <dir_next+0x236>
    3172:	c1 14       	cp	r12, r1
    3174:	d1 04       	cpc	r13, r1
    3176:	e0 e2       	ldi	r30, 0x20	; 32
    3178:	ee 06       	cpc	r14, r30
    317a:	f1 04       	cpc	r15, r1
    317c:	08 f0       	brcs	.+2      	; 0x3180 <dir_next+0x54>
    317e:	f4 c0       	rjmp	.+488    	; 0x3368 <dir_next+0x23c>
    3180:	5b 01       	movw	r10, r22

	if (ofs % SS(fs) == 0) {	/* Sector changed? */
    3182:	b7 01       	movw	r22, r14
    3184:	a6 01       	movw	r20, r12
    3186:	51 70       	andi	r21, 0x01	; 1
    3188:	66 27       	eor	r22, r22
    318a:	77 27       	eor	r23, r23
    318c:	45 2b       	or	r20, r21
    318e:	46 2b       	or	r20, r22
    3190:	47 2b       	or	r20, r23
    3192:	09 f0       	breq	.+2      	; 0x3196 <dir_next+0x6a>
    3194:	d7 c0       	rjmp	.+430    	; 0x3344 <dir_next+0x218>
		dp->sect++;				/* Next sector */
    3196:	01 96       	adiw	r24, 0x01	; 1
    3198:	a1 1d       	adc	r26, r1
    319a:	b1 1d       	adc	r27, r1
    319c:	8e 8b       	std	Y+22, r24	; 0x16
    319e:	9f 8b       	std	Y+23, r25	; 0x17
    31a0:	a8 8f       	std	Y+24, r26	; 0x18
    31a2:	b9 8f       	std	Y+25, r27	; 0x19

		if (!dp->clust) {		/* Static table */
    31a4:	4a 89       	ldd	r20, Y+18	; 0x12
    31a6:	5b 89       	ldd	r21, Y+19	; 0x13
    31a8:	6c 89       	ldd	r22, Y+20	; 0x14
    31aa:	7d 89       	ldd	r23, Y+21	; 0x15
    31ac:	41 15       	cp	r20, r1
    31ae:	51 05       	cpc	r21, r1
    31b0:	61 05       	cpc	r22, r1
    31b2:	71 05       	cpc	r23, r1
    31b4:	e1 f4       	brne	.+56     	; 0x31ee <dir_next+0xc2>
			if (ofs / SZDIRE >= fs->n_rootdir) {	/* Report EOT if it reached end of static table */
    31b6:	f8 01       	movw	r30, r16
    31b8:	87 81       	ldd	r24, Z+7	; 0x07
    31ba:	90 85       	ldd	r25, Z+8	; 0x08
    31bc:	a0 e0       	ldi	r26, 0x00	; 0
    31be:	b0 e0       	ldi	r27, 0x00	; 0
    31c0:	b7 01       	movw	r22, r14
    31c2:	a6 01       	movw	r20, r12
    31c4:	68 94       	set
    31c6:	14 f8       	bld	r1, 4
    31c8:	76 95       	lsr	r23
    31ca:	67 95       	ror	r22
    31cc:	57 95       	ror	r21
    31ce:	47 95       	ror	r20
    31d0:	16 94       	lsr	r1
    31d2:	d1 f7       	brne	.-12     	; 0x31c8 <dir_next+0x9c>
    31d4:	48 17       	cp	r20, r24
    31d6:	59 07       	cpc	r21, r25
    31d8:	6a 07       	cpc	r22, r26
    31da:	7b 07       	cpc	r23, r27
    31dc:	08 f4       	brcc	.+2      	; 0x31e0 <dir_next+0xb4>
    31de:	b2 c0       	rjmp	.+356    	; 0x3344 <dir_next+0x218>
				dp->sect = 0; return FR_NO_FILE;
    31e0:	1e 8a       	std	Y+22, r1	; 0x16
    31e2:	1f 8a       	std	Y+23, r1	; 0x17
    31e4:	18 8e       	std	Y+24, r1	; 0x18
    31e6:	19 8e       	std	Y+25, r1	; 0x19
    31e8:	84 e0       	ldi	r24, 0x04	; 4
    31ea:	90 e0       	ldi	r25, 0x00	; 0
    31ec:	d4 c0       	rjmp	.+424    	; 0x3396 <dir_next+0x26a>
			}
		}
		else {					/* Dynamic table */
			if ((ofs / SS(fs) & (fs->csize - 1)) == 0) {		/* Cluster changed? */
    31ee:	f8 01       	movw	r30, r16
    31f0:	81 85       	ldd	r24, Z+9	; 0x09
    31f2:	92 85       	ldd	r25, Z+10	; 0x0a
    31f4:	01 97       	sbiw	r24, 0x01	; 1
    31f6:	2c 01       	movw	r4, r24
    31f8:	61 2c       	mov	r6, r1
    31fa:	71 2c       	mov	r7, r1
    31fc:	d7 01       	movw	r26, r14
    31fe:	c6 01       	movw	r24, r12
    3200:	07 2e       	mov	r0, r23
    3202:	79 e0       	ldi	r23, 0x09	; 9
    3204:	b6 95       	lsr	r27
    3206:	a7 95       	ror	r26
    3208:	97 95       	ror	r25
    320a:	87 95       	ror	r24
    320c:	7a 95       	dec	r23
    320e:	d1 f7       	brne	.-12     	; 0x3204 <dir_next+0xd8>
    3210:	70 2d       	mov	r23, r0
    3212:	84 21       	and	r24, r4
    3214:	95 21       	and	r25, r5
    3216:	a6 21       	and	r26, r6
    3218:	b7 21       	and	r27, r7
    321a:	89 2b       	or	r24, r25
    321c:	8a 2b       	or	r24, r26
    321e:	8b 2b       	or	r24, r27
    3220:	09 f0       	breq	.+2      	; 0x3224 <dir_next+0xf8>
    3222:	90 c0       	rjmp	.+288    	; 0x3344 <dir_next+0x218>
				clst = get_fat(&dp->obj, dp->clust);			/* Get next cluster */
    3224:	ce 01       	movw	r24, r28
    3226:	18 dc       	rcall	.-2000   	; 0x2a58 <get_fat>
    3228:	2b 01       	movw	r4, r22
    322a:	3c 01       	movw	r6, r24
				if (clst <= 1) return FR_INT_ERR;				/* Internal error */
    322c:	62 30       	cpi	r22, 0x02	; 2
    322e:	71 05       	cpc	r23, r1
    3230:	81 05       	cpc	r24, r1
    3232:	91 05       	cpc	r25, r1
    3234:	08 f4       	brcc	.+2      	; 0x3238 <dir_next+0x10c>
    3236:	9b c0       	rjmp	.+310    	; 0x336e <dir_next+0x242>
				if (clst == 0xFFFFFFFF) return FR_DISK_ERR;		/* Disk error */
    3238:	6f 3f       	cpi	r22, 0xFF	; 255
    323a:	7f 4f       	sbci	r23, 0xFF	; 255
    323c:	8f 4f       	sbci	r24, 0xFF	; 255
    323e:	9f 4f       	sbci	r25, 0xFF	; 255
    3240:	09 f4       	brne	.+2      	; 0x3244 <dir_next+0x118>
    3242:	98 c0       	rjmp	.+304    	; 0x3374 <dir_next+0x248>
				if (clst >= fs->n_fatent) {						/* Reached end of dynamic table */
    3244:	f8 01       	movw	r30, r16
    3246:	87 89       	ldd	r24, Z+23	; 0x17
    3248:	90 8d       	ldd	r25, Z+24	; 0x18
    324a:	a1 8d       	ldd	r26, Z+25	; 0x19
    324c:	b2 8d       	ldd	r27, Z+26	; 0x1a
    324e:	48 16       	cp	r4, r24
    3250:	59 06       	cpc	r5, r25
    3252:	6a 06       	cpc	r6, r26
    3254:	7b 06       	cpc	r7, r27
    3256:	08 f4       	brcc	.+2      	; 0x325a <dir_next+0x12e>
    3258:	68 c0       	rjmp	.+208    	; 0x332a <dir_next+0x1fe>
#if !_FS_READONLY
					if (!stretch) {								/* If no stretch, report EOT */
    325a:	ab 28       	or	r10, r11
    325c:	39 f4       	brne	.+14     	; 0x326c <dir_next+0x140>
						dp->sect = 0; return FR_NO_FILE;
    325e:	1e 8a       	std	Y+22, r1	; 0x16
    3260:	1f 8a       	std	Y+23, r1	; 0x17
    3262:	18 8e       	std	Y+24, r1	; 0x18
    3264:	19 8e       	std	Y+25, r1	; 0x19
    3266:	84 e0       	ldi	r24, 0x04	; 4
    3268:	90 e0       	ldi	r25, 0x00	; 0
    326a:	95 c0       	rjmp	.+298    	; 0x3396 <dir_next+0x26a>
					}
					clst = create_chain(&dp->obj, dp->clust);	/* Allocate a cluster */
    326c:	4a 89       	ldd	r20, Y+18	; 0x12
    326e:	5b 89       	ldd	r21, Y+19	; 0x13
    3270:	6c 89       	ldd	r22, Y+20	; 0x14
    3272:	7d 89       	ldd	r23, Y+21	; 0x15
    3274:	ce 01       	movw	r24, r28
    3276:	bd dd       	rcall	.-1158   	; 0x2df2 <create_chain>
    3278:	2b 01       	movw	r4, r22
    327a:	3c 01       	movw	r6, r24
					if (clst == 0) return FR_DENIED;			/* No free cluster */
    327c:	61 15       	cp	r22, r1
    327e:	71 05       	cpc	r23, r1
    3280:	81 05       	cpc	r24, r1
    3282:	91 05       	cpc	r25, r1
    3284:	09 f4       	brne	.+2      	; 0x3288 <dir_next+0x15c>
    3286:	79 c0       	rjmp	.+242    	; 0x337a <dir_next+0x24e>
					if (clst == 1) return FR_INT_ERR;			/* Internal error */
    3288:	61 30       	cpi	r22, 0x01	; 1
    328a:	71 05       	cpc	r23, r1
    328c:	81 05       	cpc	r24, r1
    328e:	91 05       	cpc	r25, r1
    3290:	09 f4       	brne	.+2      	; 0x3294 <dir_next+0x168>
    3292:	76 c0       	rjmp	.+236    	; 0x3380 <dir_next+0x254>
					if (clst == 0xFFFFFFFF) return FR_DISK_ERR;	/* Disk error */
    3294:	6f 3f       	cpi	r22, 0xFF	; 255
    3296:	7f 4f       	sbci	r23, 0xFF	; 255
    3298:	8f 4f       	sbci	r24, 0xFF	; 255
    329a:	9f 4f       	sbci	r25, 0xFF	; 255
    329c:	09 f4       	brne	.+2      	; 0x32a0 <dir_next+0x174>
    329e:	73 c0       	rjmp	.+230    	; 0x3386 <dir_next+0x25a>
					/* Clean-up the stretched table */
					if (_FS_EXFAT) dp->obj.stat |= 4;			/* The directory needs to be updated */
					if (sync_window(fs) != FR_OK) return FR_DISK_ERR;	/* Flush disk access window */
    32a0:	c8 01       	movw	r24, r16
    32a2:	0e 94 4e 10 	call	0x209c	; 0x209c <sync_window>
    32a6:	89 2b       	or	r24, r25
    32a8:	09 f0       	breq	.+2      	; 0x32ac <dir_next+0x180>
    32aa:	70 c0       	rjmp	.+224    	; 0x338c <dir_next+0x260>
					mem_set(fs->win, 0, SS(fs));				/* Clear window buffer */
    32ac:	40 e0       	ldi	r20, 0x00	; 0
    32ae:	52 e0       	ldi	r21, 0x02	; 2
    32b0:	60 e0       	ldi	r22, 0x00	; 0
    32b2:	70 e0       	ldi	r23, 0x00	; 0
    32b4:	c8 01       	movw	r24, r16
    32b6:	c3 96       	adiw	r24, 0x33	; 51
    32b8:	0e 94 09 0e 	call	0x1c12	; 0x1c12 <mem_set>
					for (n = 0, fs->winsect = clust2sect(fs, clst); n < fs->csize; n++, fs->winsect++) {	/* Fill the new cluster with 0 */
    32bc:	b3 01       	movw	r22, r6
    32be:	a2 01       	movw	r20, r4
    32c0:	c8 01       	movw	r24, r16
    32c2:	0e 94 3b 0e 	call	0x1c76	; 0x1c76 <clust2sect>
    32c6:	f8 01       	movw	r30, r16
    32c8:	67 a7       	std	Z+47, r22	; 0x2f
    32ca:	70 ab       	std	Z+48, r23	; 0x30
    32cc:	81 ab       	std	Z+49, r24	; 0x31
    32ce:	92 ab       	std	Z+50, r25	; 0x32
    32d0:	a1 2c       	mov	r10, r1
    32d2:	b1 2c       	mov	r11, r1
    32d4:	18 c0       	rjmp	.+48     	; 0x3306 <dir_next+0x1da>
						fs->wflag = 1;
    32d6:	81 e0       	ldi	r24, 0x01	; 1
    32d8:	f8 01       	movw	r30, r16
    32da:	83 83       	std	Z+3, r24	; 0x03
						if (sync_window(fs) != FR_OK) return FR_DISK_ERR;
    32dc:	c8 01       	movw	r24, r16
    32de:	0e 94 4e 10 	call	0x209c	; 0x209c <sync_window>
    32e2:	89 2b       	or	r24, r25
    32e4:	09 f0       	breq	.+2      	; 0x32e8 <dir_next+0x1bc>
    32e6:	55 c0       	rjmp	.+170    	; 0x3392 <dir_next+0x266>
					if (clst == 0xFFFFFFFF) return FR_DISK_ERR;	/* Disk error */
					/* Clean-up the stretched table */
					if (_FS_EXFAT) dp->obj.stat |= 4;			/* The directory needs to be updated */
					if (sync_window(fs) != FR_OK) return FR_DISK_ERR;	/* Flush disk access window */
					mem_set(fs->win, 0, SS(fs));				/* Clear window buffer */
					for (n = 0, fs->winsect = clust2sect(fs, clst); n < fs->csize; n++, fs->winsect++) {	/* Fill the new cluster with 0 */
    32e8:	ff ef       	ldi	r31, 0xFF	; 255
    32ea:	af 1a       	sub	r10, r31
    32ec:	bf 0a       	sbc	r11, r31
    32ee:	f8 01       	movw	r30, r16
    32f0:	87 a5       	ldd	r24, Z+47	; 0x2f
    32f2:	90 a9       	ldd	r25, Z+48	; 0x30
    32f4:	a1 a9       	ldd	r26, Z+49	; 0x31
    32f6:	b2 a9       	ldd	r27, Z+50	; 0x32
    32f8:	01 96       	adiw	r24, 0x01	; 1
    32fa:	a1 1d       	adc	r26, r1
    32fc:	b1 1d       	adc	r27, r1
    32fe:	87 a7       	std	Z+47, r24	; 0x2f
    3300:	90 ab       	std	Z+48, r25	; 0x30
    3302:	a1 ab       	std	Z+49, r26	; 0x31
    3304:	b2 ab       	std	Z+50, r27	; 0x32
    3306:	f8 01       	movw	r30, r16
    3308:	81 85       	ldd	r24, Z+9	; 0x09
    330a:	92 85       	ldd	r25, Z+10	; 0x0a
    330c:	a8 16       	cp	r10, r24
    330e:	b9 06       	cpc	r11, r25
    3310:	10 f3       	brcs	.-60     	; 0x32d6 <dir_next+0x1aa>
						fs->wflag = 1;
						if (sync_window(fs) != FR_OK) return FR_DISK_ERR;
					}
					fs->winsect -= n;							/* Restore window offset */
    3312:	87 a5       	ldd	r24, Z+47	; 0x2f
    3314:	90 a9       	ldd	r25, Z+48	; 0x30
    3316:	a1 a9       	ldd	r26, Z+49	; 0x31
    3318:	b2 a9       	ldd	r27, Z+50	; 0x32
    331a:	8a 19       	sub	r24, r10
    331c:	9b 09       	sbc	r25, r11
    331e:	a1 09       	sbc	r26, r1
    3320:	b1 09       	sbc	r27, r1
    3322:	87 a7       	std	Z+47, r24	; 0x2f
    3324:	90 ab       	std	Z+48, r25	; 0x30
    3326:	a1 ab       	std	Z+49, r26	; 0x31
    3328:	b2 ab       	std	Z+50, r27	; 0x32
#else
					if (!stretch) dp->sect = 0;					/* (this line is to suppress compiler warning) */
					dp->sect = 0; return FR_NO_FILE;			/* Report EOT */
#endif
				}
				dp->clust = clst;		/* Initialize data for new cluster */
    332a:	4a 8a       	std	Y+18, r4	; 0x12
    332c:	5b 8a       	std	Y+19, r5	; 0x13
    332e:	6c 8a       	std	Y+20, r6	; 0x14
    3330:	7d 8a       	std	Y+21, r7	; 0x15
				dp->sect = clust2sect(fs, clst);
    3332:	b3 01       	movw	r22, r6
    3334:	a2 01       	movw	r20, r4
    3336:	c8 01       	movw	r24, r16
    3338:	0e 94 3b 0e 	call	0x1c76	; 0x1c76 <clust2sect>
    333c:	6e 8b       	std	Y+22, r22	; 0x16
    333e:	7f 8b       	std	Y+23, r23	; 0x17
    3340:	88 8f       	std	Y+24, r24	; 0x18
    3342:	99 8f       	std	Y+25, r25	; 0x19
			}
		}
	}
	dp->dptr = ofs;						/* Current entry */
    3344:	ce 86       	std	Y+14, r12	; 0x0e
    3346:	df 86       	std	Y+15, r13	; 0x0f
    3348:	e8 8a       	std	Y+16, r14	; 0x10
    334a:	f9 8a       	std	Y+17, r15	; 0x11
	dp->dir = fs->win + ofs % SS(fs);	/* Pointer to the entry in the win[] */
    334c:	0d 5c       	subi	r16, 0xCD	; 205
    334e:	1f 4f       	sbci	r17, 0xFF	; 255
    3350:	f1 e0       	ldi	r31, 0x01	; 1
    3352:	df 22       	and	r13, r31
    3354:	c0 0e       	add	r12, r16
    3356:	d1 1e       	adc	r13, r17
    3358:	db 8e       	std	Y+27, r13	; 0x1b
    335a:	ca 8e       	std	Y+26, r12	; 0x1a

	return FR_OK;
    335c:	80 e0       	ldi	r24, 0x00	; 0
    335e:	90 e0       	ldi	r25, 0x00	; 0
    3360:	1a c0       	rjmp	.+52     	; 0x3396 <dir_next+0x26a>
#if !_FS_READONLY
	UINT n;
#endif

	ofs = dp->dptr + SZDIRE;	/* Next entry */
	if (!dp->sect || ofs >= (DWORD)((_FS_EXFAT && fs->fs_type == FS_EXFAT) ? MAX_DIR_EX : MAX_DIR)) return FR_NO_FILE;	/* Report EOT when offset has reached max value */
    3362:	84 e0       	ldi	r24, 0x04	; 4
    3364:	90 e0       	ldi	r25, 0x00	; 0
    3366:	17 c0       	rjmp	.+46     	; 0x3396 <dir_next+0x26a>
    3368:	84 e0       	ldi	r24, 0x04	; 4
    336a:	90 e0       	ldi	r25, 0x00	; 0
    336c:	14 c0       	rjmp	.+40     	; 0x3396 <dir_next+0x26a>
			}
		}
		else {					/* Dynamic table */
			if ((ofs / SS(fs) & (fs->csize - 1)) == 0) {		/* Cluster changed? */
				clst = get_fat(&dp->obj, dp->clust);			/* Get next cluster */
				if (clst <= 1) return FR_INT_ERR;				/* Internal error */
    336e:	82 e0       	ldi	r24, 0x02	; 2
    3370:	90 e0       	ldi	r25, 0x00	; 0
    3372:	11 c0       	rjmp	.+34     	; 0x3396 <dir_next+0x26a>
				if (clst == 0xFFFFFFFF) return FR_DISK_ERR;		/* Disk error */
    3374:	81 e0       	ldi	r24, 0x01	; 1
    3376:	90 e0       	ldi	r25, 0x00	; 0
    3378:	0e c0       	rjmp	.+28     	; 0x3396 <dir_next+0x26a>
#if !_FS_READONLY
					if (!stretch) {								/* If no stretch, report EOT */
						dp->sect = 0; return FR_NO_FILE;
					}
					clst = create_chain(&dp->obj, dp->clust);	/* Allocate a cluster */
					if (clst == 0) return FR_DENIED;			/* No free cluster */
    337a:	87 e0       	ldi	r24, 0x07	; 7
    337c:	90 e0       	ldi	r25, 0x00	; 0
    337e:	0b c0       	rjmp	.+22     	; 0x3396 <dir_next+0x26a>
					if (clst == 1) return FR_INT_ERR;			/* Internal error */
    3380:	82 e0       	ldi	r24, 0x02	; 2
    3382:	90 e0       	ldi	r25, 0x00	; 0
    3384:	08 c0       	rjmp	.+16     	; 0x3396 <dir_next+0x26a>
					if (clst == 0xFFFFFFFF) return FR_DISK_ERR;	/* Disk error */
    3386:	81 e0       	ldi	r24, 0x01	; 1
    3388:	90 e0       	ldi	r25, 0x00	; 0
    338a:	05 c0       	rjmp	.+10     	; 0x3396 <dir_next+0x26a>
					/* Clean-up the stretched table */
					if (_FS_EXFAT) dp->obj.stat |= 4;			/* The directory needs to be updated */
					if (sync_window(fs) != FR_OK) return FR_DISK_ERR;	/* Flush disk access window */
    338c:	81 e0       	ldi	r24, 0x01	; 1
    338e:	90 e0       	ldi	r25, 0x00	; 0
    3390:	02 c0       	rjmp	.+4      	; 0x3396 <dir_next+0x26a>
					mem_set(fs->win, 0, SS(fs));				/* Clear window buffer */
					for (n = 0, fs->winsect = clust2sect(fs, clst); n < fs->csize; n++, fs->winsect++) {	/* Fill the new cluster with 0 */
						fs->wflag = 1;
						if (sync_window(fs) != FR_OK) return FR_DISK_ERR;
    3392:	81 e0       	ldi	r24, 0x01	; 1
    3394:	90 e0       	ldi	r25, 0x00	; 0
	}
	dp->dptr = ofs;						/* Current entry */
	dp->dir = fs->win + ofs % SS(fs);	/* Pointer to the entry in the win[] */

	return FR_OK;
}
    3396:	df 91       	pop	r29
    3398:	cf 91       	pop	r28
    339a:	1f 91       	pop	r17
    339c:	0f 91       	pop	r16
    339e:	ff 90       	pop	r15
    33a0:	ef 90       	pop	r14
    33a2:	df 90       	pop	r13
    33a4:	cf 90       	pop	r12
    33a6:	bf 90       	pop	r11
    33a8:	af 90       	pop	r10
    33aa:	7f 90       	pop	r7
    33ac:	6f 90       	pop	r6
    33ae:	5f 90       	pop	r5
    33b0:	4f 90       	pop	r4
    33b2:	08 95       	ret

000033b4 <dir_find>:

static
FRESULT dir_find (	/* FR_OK(0):succeeded, !=0:error */
	DIR* dp			/* Pointer to the directory object with the file name */
)
{
    33b4:	ef 92       	push	r14
    33b6:	ff 92       	push	r15
    33b8:	0f 93       	push	r16
    33ba:	1f 93       	push	r17
    33bc:	cf 93       	push	r28
    33be:	df 93       	push	r29
    33c0:	ec 01       	movw	r28, r24
	FRESULT res;
	FATFS *fs = dp->obj.fs;
    33c2:	e8 80       	ld	r14, Y
    33c4:	f9 80       	ldd	r15, Y+1	; 0x01
	BYTE c;
#if _USE_LFN != 0
	BYTE a, ord, sum;
#endif

	res = dir_sdi(dp, 0);			/* Rewind directory object */
    33c6:	40 e0       	ldi	r20, 0x00	; 0
    33c8:	50 e0       	ldi	r21, 0x00	; 0
    33ca:	ba 01       	movw	r22, r20
    33cc:	25 dc       	rcall	.-1974   	; 0x2c18 <dir_sdi>
	if (res != FR_OK) return res;
    33ce:	00 97       	sbiw	r24, 0x00	; 0
    33d0:	69 f5       	brne	.+90     	; 0x342c <dir_find+0x78>
	/* On the FAT12/16/32 volume */
#if _USE_LFN != 0
	ord = sum = 0xFF; dp->blk_ofs = 0xFFFFFFFF;	/* Reset LFN sequence */
#endif
	do {
		res = move_window(fs, dp->sect);
    33d2:	4e 89       	ldd	r20, Y+22	; 0x16
    33d4:	5f 89       	ldd	r21, Y+23	; 0x17
    33d6:	68 8d       	ldd	r22, Y+24	; 0x18
    33d8:	79 8d       	ldd	r23, Y+25	; 0x19
    33da:	c7 01       	movw	r24, r14
    33dc:	0e 94 b6 10 	call	0x216c	; 0x216c <move_window>
    33e0:	8c 01       	movw	r16, r24
		if (res != FR_OK) break;
    33e2:	00 97       	sbiw	r24, 0x00	; 0
    33e4:	e1 f4       	brne	.+56     	; 0x341e <dir_find+0x6a>
		c = dp->dir[DIR_Name];
    33e6:	ea 8d       	ldd	r30, Y+26	; 0x1a
    33e8:	fb 8d       	ldd	r31, Y+27	; 0x1b
    33ea:	80 81       	ld	r24, Z
		if (c == 0) { res = FR_NO_FILE; break; }	/* Reached to end of table */
    33ec:	88 23       	and	r24, r24
    33ee:	c9 f0       	breq	.+50     	; 0x3422 <dir_find+0x6e>
				if (!(dp->fn[NSFLAG] & NS_LOSS) && !mem_cmp(dp->dir, dp->fn, 11)) break;	/* SFN matched? */
				ord = 0xFF; dp->blk_ofs = 0xFFFFFFFF;	/* Reset LFN sequence */
			}
		}
#else		/* Non LFN configuration */
		dp->obj.attr = dp->dir[DIR_Attr] & AM_MASK;
    33f0:	83 85       	ldd	r24, Z+11	; 0x0b
    33f2:	8f 73       	andi	r24, 0x3F	; 63
    33f4:	8c 83       	std	Y+4, r24	; 0x04
		if (!(dp->dir[DIR_Attr] & AM_VOL) && !mem_cmp(dp->dir, dp->fn, 11)) break;	/* Is it a valid entry? */
    33f6:	83 85       	ldd	r24, Z+11	; 0x0b
    33f8:	83 fd       	sbrc	r24, 3
    33fa:	0a c0       	rjmp	.+20     	; 0x3410 <dir_find+0x5c>
    33fc:	4b e0       	ldi	r20, 0x0B	; 11
    33fe:	50 e0       	ldi	r21, 0x00	; 0
    3400:	be 01       	movw	r22, r28
    3402:	64 5e       	subi	r22, 0xE4	; 228
    3404:	7f 4f       	sbci	r23, 0xFF	; 255
    3406:	cf 01       	movw	r24, r30
    3408:	0e 94 12 0e 	call	0x1c24	; 0x1c24 <mem_cmp>
    340c:	89 2b       	or	r24, r25
    340e:	61 f0       	breq	.+24     	; 0x3428 <dir_find+0x74>
#endif
		res = dir_next(dp, 0);	/* Next entry */
    3410:	60 e0       	ldi	r22, 0x00	; 0
    3412:	70 e0       	ldi	r23, 0x00	; 0
    3414:	ce 01       	movw	r24, r28
    3416:	8a de       	rcall	.-748    	; 0x312c <dir_next>
	} while (res == FR_OK);
    3418:	00 97       	sbiw	r24, 0x00	; 0
    341a:	d9 f2       	breq	.-74     	; 0x33d2 <dir_find+0x1e>
    341c:	07 c0       	rjmp	.+14     	; 0x342c <dir_find+0x78>
	/* On the FAT12/16/32 volume */
#if _USE_LFN != 0
	ord = sum = 0xFF; dp->blk_ofs = 0xFFFFFFFF;	/* Reset LFN sequence */
#endif
	do {
		res = move_window(fs, dp->sect);
    341e:	91 2f       	mov	r25, r17
    3420:	05 c0       	rjmp	.+10     	; 0x342c <dir_find+0x78>
		if (res != FR_OK) break;
		c = dp->dir[DIR_Name];
		if (c == 0) { res = FR_NO_FILE; break; }	/* Reached to end of table */
    3422:	84 e0       	ldi	r24, 0x04	; 4
    3424:	90 e0       	ldi	r25, 0x00	; 0
    3426:	02 c0       	rjmp	.+4      	; 0x342c <dir_find+0x78>
	/* On the FAT12/16/32 volume */
#if _USE_LFN != 0
	ord = sum = 0xFF; dp->blk_ofs = 0xFFFFFFFF;	/* Reset LFN sequence */
#endif
	do {
		res = move_window(fs, dp->sect);
    3428:	80 2f       	mov	r24, r16
    342a:	91 2f       	mov	r25, r17
#endif
		res = dir_next(dp, 0);	/* Next entry */
	} while (res == FR_OK);

	return res;
}
    342c:	df 91       	pop	r29
    342e:	cf 91       	pop	r28
    3430:	1f 91       	pop	r17
    3432:	0f 91       	pop	r16
    3434:	ff 90       	pop	r15
    3436:	ef 90       	pop	r14
    3438:	08 95       	ret

0000343a <follow_path>:
static
FRESULT follow_path (	/* FR_OK(0): successful, !=0: error code */
	DIR* dp,			/* Directory object to return last directory and found object */
	const TCHAR* path	/* Full-path string to find a file or directory */
)
{
    343a:	cf 92       	push	r12
    343c:	df 92       	push	r13
    343e:	ef 92       	push	r14
    3440:	ff 92       	push	r15
    3442:	0f 93       	push	r16
    3444:	1f 93       	push	r17
    3446:	cf 93       	push	r28
    3448:	df 93       	push	r29
    344a:	00 d0       	rcall	.+0      	; 0x344c <follow_path+0x12>
    344c:	cd b7       	in	r28, 0x3d	; 61
    344e:	de b7       	in	r29, 0x3e	; 62
    3450:	8c 01       	movw	r16, r24
    3452:	fb 01       	movw	r30, r22
    3454:	7a 83       	std	Y+2, r23	; 0x02
    3456:	69 83       	std	Y+1, r22	; 0x01
	FRESULT res;
	BYTE ns;
	_FDID *obj = &dp->obj;
	FATFS *fs = obj->fs;
    3458:	dc 01       	movw	r26, r24
    345a:	ed 90       	ld	r14, X+
    345c:	fc 90       	ld	r15, X


#if _FS_RPATH != 0
	if (*path != '/' && *path != '\\') {	/* Without heading separator */
    345e:	80 81       	ld	r24, Z
    3460:	8f 32       	cpi	r24, 0x2F	; 47
    3462:	81 f0       	breq	.+32     	; 0x3484 <follow_path+0x4a>
    3464:	8c 35       	cpi	r24, 0x5C	; 92
    3466:	71 f0       	breq	.+28     	; 0x3484 <follow_path+0x4a>
		obj->sclust = fs->cdir;				/* Start from current directory */
    3468:	f7 01       	movw	r30, r14
    346a:	83 89       	ldd	r24, Z+19	; 0x13
    346c:	94 89       	ldd	r25, Z+20	; 0x14
    346e:	a5 89       	ldd	r26, Z+21	; 0x15
    3470:	b6 89       	ldd	r27, Z+22	; 0x16
    3472:	f8 01       	movw	r30, r16
    3474:	86 83       	std	Z+6, r24	; 0x06
    3476:	97 83       	std	Z+7, r25	; 0x07
    3478:	a0 87       	std	Z+8, r26	; 0x08
    347a:	b1 87       	std	Z+9, r27	; 0x09
    347c:	11 c0       	rjmp	.+34     	; 0x34a0 <follow_path+0x66>
	} else
#endif
	{										/* With heading separator */
		while (*path == '/' || *path == '\\') path++;	/* Strip heading separator */
    347e:	31 96       	adiw	r30, 0x01	; 1
    3480:	fa 83       	std	Y+2, r31	; 0x02
    3482:	e9 83       	std	Y+1, r30	; 0x01
    3484:	e9 81       	ldd	r30, Y+1	; 0x01
    3486:	fa 81       	ldd	r31, Y+2	; 0x02
    3488:	80 81       	ld	r24, Z
    348a:	8f 32       	cpi	r24, 0x2F	; 47
    348c:	c1 f3       	breq	.-16     	; 0x347e <follow_path+0x44>
    348e:	8c 35       	cpi	r24, 0x5C	; 92
    3490:	b1 f3       	breq	.-20     	; 0x347e <follow_path+0x44>
		obj->sclust = 0;					/* Start from root directory */
    3492:	d8 01       	movw	r26, r16
    3494:	16 96       	adiw	r26, 0x06	; 6
    3496:	1d 92       	st	X+, r1
    3498:	1d 92       	st	X+, r1
    349a:	1d 92       	st	X+, r1
    349c:	1c 92       	st	X, r1
    349e:	19 97       	sbiw	r26, 0x09	; 9
		obj->stat = fs->dirbuf[XDIR_GenFlags] & 2;
	}
#endif
#endif

	if ((UINT)*path < ' ') {				/* Null path name is the origin directory itself */
    34a0:	e9 81       	ldd	r30, Y+1	; 0x01
    34a2:	fa 81       	ldd	r31, Y+2	; 0x02
    34a4:	80 81       	ld	r24, Z
    34a6:	80 32       	cpi	r24, 0x20	; 32
    34a8:	50 f4       	brcc	.+20     	; 0x34be <follow_path+0x84>
		dp->fn[NSFLAG] = NS_NONAME;
    34aa:	80 e8       	ldi	r24, 0x80	; 128
    34ac:	f8 01       	movw	r30, r16
    34ae:	87 a3       	std	Z+39, r24	; 0x27
		res = dir_sdi(dp, 0);
    34b0:	40 e0       	ldi	r20, 0x00	; 0
    34b2:	50 e0       	ldi	r21, 0x00	; 0
    34b4:	ba 01       	movw	r22, r20
    34b6:	c8 01       	movw	r24, r16
    34b8:	af db       	rcall	.-2210   	; 0x2c18 <dir_sdi>
    34ba:	6c 01       	movw	r12, r24
    34bc:	4b c0       	rjmp	.+150    	; 0x3554 <follow_path+0x11a>

	} else {								/* Follow path */
		for (;;) {
			res = create_name(dp, &path);	/* Get a segment name of the path */
    34be:	be 01       	movw	r22, r28
    34c0:	6f 5f       	subi	r22, 0xFF	; 255
    34c2:	7f 4f       	sbci	r23, 0xFF	; 255
    34c4:	c8 01       	movw	r24, r16
    34c6:	0e 94 07 0f 	call	0x1e0e	; 0x1e0e <create_name>
    34ca:	6c 01       	movw	r12, r24
			if (res != FR_OK) break;
    34cc:	89 2b       	or	r24, r25
    34ce:	09 f0       	breq	.+2      	; 0x34d2 <follow_path+0x98>
			res = dir_find(dp);				/* Find an object with the segment name */
    34d0:	41 c0       	rjmp	.+130    	; 0x3554 <follow_path+0x11a>
    34d2:	c8 01       	movw	r24, r16
			ns = dp->fn[NSFLAG];
    34d4:	6f df       	rcall	.-290    	; 0x33b4 <dir_find>
    34d6:	d8 01       	movw	r26, r16
    34d8:	97 96       	adiw	r26, 0x27	; 39
    34da:	2c 91       	ld	r18, X
			if (res != FR_OK) {				/* Failed to find the object */
    34dc:	97 97       	sbiw	r26, 0x27	; 39
    34de:	00 97       	sbiw	r24, 0x00	; 0
				if (res == FR_NO_FILE) {	/* Object is not found */
    34e0:	79 f0       	breq	.+30     	; 0x3500 <follow_path+0xc6>
    34e2:	84 30       	cpi	r24, 0x04	; 4
    34e4:	91 05       	cpc	r25, r1
					if (_FS_RPATH && (ns & NS_DOT)) {	/* If dot entry is not exist, stay there */
    34e6:	39 f5       	brne	.+78     	; 0x3536 <follow_path+0xfc>
    34e8:	25 ff       	sbrs	r18, 5
						if (!(ns & NS_LAST)) continue;	/* Continue to follow if not last segment */
    34ea:	06 c0       	rjmp	.+12     	; 0x34f8 <follow_path+0xbe>
    34ec:	22 ff       	sbrs	r18, 2
						dp->fn[NSFLAG] = NS_NONAME;
    34ee:	e7 cf       	rjmp	.-50     	; 0x34be <follow_path+0x84>
    34f0:	80 e8       	ldi	r24, 0x80	; 128
    34f2:	97 96       	adiw	r26, 0x27	; 39
    34f4:	8c 93       	st	X, r24
						res = FR_OK;
					} else {							/* Could not find the object */
						if (!(ns & NS_LAST)) res = FR_NO_PATH;	/* Adjust error code if not last segment */
    34f6:	2e c0       	rjmp	.+92     	; 0x3554 <follow_path+0x11a>
    34f8:	22 ff       	sbrs	r18, 2

	} else {								/* Follow path */
		for (;;) {
			res = create_name(dp, &path);	/* Get a segment name of the path */
			if (res != FR_OK) break;
			res = dir_find(dp);				/* Find an object with the segment name */
    34fa:	1f c0       	rjmp	.+62     	; 0x353a <follow_path+0x100>
    34fc:	6c 01       	movw	r12, r24
						if (!(ns & NS_LAST)) res = FR_NO_PATH;	/* Adjust error code if not last segment */
					}
				}
				break;
			}
			if (ns & NS_LAST) break;			/* Last segment matched. Function completed. */
    34fe:	2a c0       	rjmp	.+84     	; 0x3554 <follow_path+0x11a>
    3500:	22 fd       	sbrc	r18, 2
			/* Get into the sub-directory */
			if (!(obj->attr & AM_DIR)) {		/* It is not a sub-directory and cannot follow */
    3502:	21 c0       	rjmp	.+66     	; 0x3546 <follow_path+0x10c>
    3504:	f8 01       	movw	r30, r16
    3506:	84 81       	ldd	r24, Z+4	; 0x04
    3508:	84 ff       	sbrs	r24, 4
				obj->stat = fs->dirbuf[XDIR_GenFlags] & 2;
				obj->objsize = ld_qword(fs->dirbuf + XDIR_FileSize);
			} else
#endif
			{
				obj->sclust = ld_clust(fs, fs->win + dp->dptr % SS(fs));	/* Open next directory */
    350a:	1f c0       	rjmp	.+62     	; 0x354a <follow_path+0x110>
    350c:	86 85       	ldd	r24, Z+14	; 0x0e
    350e:	97 85       	ldd	r25, Z+15	; 0x0f
    3510:	a0 89       	ldd	r26, Z+16	; 0x10
    3512:	b1 89       	ldd	r27, Z+17	; 0x11
    3514:	91 70       	andi	r25, 0x01	; 1
    3516:	b7 01       	movw	r22, r14
    3518:	6d 5c       	subi	r22, 0xCD	; 205
    351a:	7f 4f       	sbci	r23, 0xFF	; 255
    351c:	68 0f       	add	r22, r24
    351e:	79 1f       	adc	r23, r25
    3520:	c7 01       	movw	r24, r14
    3522:	0e 94 63 0e 	call	0x1cc6	; 0x1cc6 <ld_clust>
    3526:	d8 01       	movw	r26, r16
    3528:	16 96       	adiw	r26, 0x06	; 6
    352a:	6d 93       	st	X+, r22
    352c:	7d 93       	st	X+, r23
    352e:	8d 93       	st	X+, r24
    3530:	9c 93       	st	X, r25
    3532:	19 97       	sbiw	r26, 0x09	; 9

	} else {								/* Follow path */
		for (;;) {
			res = create_name(dp, &path);	/* Get a segment name of the path */
			if (res != FR_OK) break;
			res = dir_find(dp);				/* Find an object with the segment name */
    3534:	c4 cf       	rjmp	.-120    	; 0x34be <follow_path+0x84>
    3536:	6c 01       	movw	r12, r24
					if (_FS_RPATH && (ns & NS_DOT)) {	/* If dot entry is not exist, stay there */
						if (!(ns & NS_LAST)) continue;	/* Continue to follow if not last segment */
						dp->fn[NSFLAG] = NS_NONAME;
						res = FR_OK;
					} else {							/* Could not find the object */
						if (!(ns & NS_LAST)) res = FR_NO_PATH;	/* Adjust error code if not last segment */
    3538:	0d c0       	rjmp	.+26     	; 0x3554 <follow_path+0x11a>
    353a:	0f 2e       	mov	r0, r31
    353c:	f5 e0       	ldi	r31, 0x05	; 5
    353e:	cf 2e       	mov	r12, r31
    3540:	d1 2c       	mov	r13, r1
    3542:	f0 2d       	mov	r31, r0

	} else {								/* Follow path */
		for (;;) {
			res = create_name(dp, &path);	/* Get a segment name of the path */
			if (res != FR_OK) break;
			res = dir_find(dp);				/* Find an object with the segment name */
    3544:	07 c0       	rjmp	.+14     	; 0x3554 <follow_path+0x11a>
    3546:	6c 01       	movw	r12, r24
				break;
			}
			if (ns & NS_LAST) break;			/* Last segment matched. Function completed. */
			/* Get into the sub-directory */
			if (!(obj->attr & AM_DIR)) {		/* It is not a sub-directory and cannot follow */
				res = FR_NO_PATH; break;
    3548:	05 c0       	rjmp	.+10     	; 0x3554 <follow_path+0x11a>
    354a:	0f 2e       	mov	r0, r31
    354c:	f5 e0       	ldi	r31, 0x05	; 5
    354e:	cf 2e       	mov	r12, r31
    3550:	d1 2c       	mov	r13, r1
			}
		}
	}

	return res;
}
    3552:	f0 2d       	mov	r31, r0
    3554:	c6 01       	movw	r24, r12
    3556:	0f 90       	pop	r0
    3558:	0f 90       	pop	r0
    355a:	df 91       	pop	r29
    355c:	cf 91       	pop	r28
    355e:	1f 91       	pop	r17
    3560:	0f 91       	pop	r16
    3562:	ff 90       	pop	r15
    3564:	ef 90       	pop	r14
    3566:	df 90       	pop	r13
    3568:	cf 90       	pop	r12
    356a:	08 95       	ret

0000356c <dir_alloc>:
static
FRESULT dir_alloc (	/* FR_OK(0):succeeded, !=0:error */
	DIR* dp,		/* Pointer to the directory object */
	UINT nent		/* Number of contiguous entries to allocate */
)
{
    356c:	cf 92       	push	r12
    356e:	df 92       	push	r13
    3570:	ef 92       	push	r14
    3572:	ff 92       	push	r15
    3574:	0f 93       	push	r16
    3576:	1f 93       	push	r17
    3578:	cf 93       	push	r28
    357a:	df 93       	push	r29
    357c:	ec 01       	movw	r28, r24
    357e:	6b 01       	movw	r12, r22
	FRESULT res;
	UINT n;
	FATFS *fs = dp->obj.fs;
    3580:	e8 80       	ld	r14, Y
    3582:	f9 80       	ldd	r15, Y+1	; 0x01


	res = dir_sdi(dp, 0);
    3584:	40 e0       	ldi	r20, 0x00	; 0
    3586:	50 e0       	ldi	r21, 0x00	; 0
    3588:	ba 01       	movw	r22, r20
    358a:	46 db       	rcall	.-2420   	; 0x2c18 <dir_sdi>
	if (res == FR_OK) {
    358c:	00 97       	sbiw	r24, 0x00	; 0
    358e:	01 f5       	brne	.+64     	; 0x35d0 <dir_alloc+0x64>
    3590:	00 e0       	ldi	r16, 0x00	; 0
    3592:	10 e0       	ldi	r17, 0x00	; 0
		n = 0;
		do {
			res = move_window(fs, dp->sect);
    3594:	4e 89       	ldd	r20, Y+22	; 0x16
    3596:	5f 89       	ldd	r21, Y+23	; 0x17
    3598:	68 8d       	ldd	r22, Y+24	; 0x18
    359a:	79 8d       	ldd	r23, Y+25	; 0x19
    359c:	c7 01       	movw	r24, r14
    359e:	0e 94 b6 10 	call	0x216c	; 0x216c <move_window>
			if (res != FR_OK) break;
    35a2:	00 97       	sbiw	r24, 0x00	; 0
    35a4:	a9 f4       	brne	.+42     	; 0x35d0 <dir_alloc+0x64>
#if _FS_EXFAT
			if ((fs->fs_type == FS_EXFAT) ? (int)((dp->dir[XDIR_Type] & 0x80) == 0) : (int)(dp->dir[DIR_Name] == DDEM || dp->dir[DIR_Name] == 0)) {
#else
			if (dp->dir[DIR_Name] == DDEM || dp->dir[DIR_Name] == 0) {
    35a6:	ea 8d       	ldd	r30, Y+26	; 0x1a
    35a8:	fb 8d       	ldd	r31, Y+27	; 0x1b
    35aa:	20 81       	ld	r18, Z
    35ac:	25 3e       	cpi	r18, 0xE5	; 229
    35ae:	11 f0       	breq	.+4      	; 0x35b4 <dir_alloc+0x48>
    35b0:	21 11       	cpse	r18, r1
    35b2:	06 c0       	rjmp	.+12     	; 0x35c0 <dir_alloc+0x54>
#endif
				if (++n == nent) break;	/* A block of contiguous free entries is found */
    35b4:	0f 5f       	subi	r16, 0xFF	; 255
    35b6:	1f 4f       	sbci	r17, 0xFF	; 255
    35b8:	0c 15       	cp	r16, r12
    35ba:	1d 05       	cpc	r17, r13
    35bc:	19 f4       	brne	.+6      	; 0x35c4 <dir_alloc+0x58>
    35be:	08 c0       	rjmp	.+16     	; 0x35d0 <dir_alloc+0x64>
			} else {
				n = 0;					/* Not a blank entry. Restart to search */
    35c0:	00 e0       	ldi	r16, 0x00	; 0
    35c2:	10 e0       	ldi	r17, 0x00	; 0
			}
			res = dir_next(dp, 1);
    35c4:	61 e0       	ldi	r22, 0x01	; 1
    35c6:	70 e0       	ldi	r23, 0x00	; 0
    35c8:	ce 01       	movw	r24, r28
    35ca:	b0 dd       	rcall	.-1184   	; 0x312c <dir_next>
		} while (res == FR_OK);	/* Next entry with table stretch enabled */
    35cc:	00 97       	sbiw	r24, 0x00	; 0
    35ce:	11 f3       	breq	.-60     	; 0x3594 <dir_alloc+0x28>
	}

	if (res == FR_NO_FILE) res = FR_DENIED;	/* No directory entry to allocate */
    35d0:	84 30       	cpi	r24, 0x04	; 4
    35d2:	91 05       	cpc	r25, r1
    35d4:	11 f4       	brne	.+4      	; 0x35da <dir_alloc+0x6e>
    35d6:	87 e0       	ldi	r24, 0x07	; 7
    35d8:	90 e0       	ldi	r25, 0x00	; 0
	return res;
}
    35da:	df 91       	pop	r29
    35dc:	cf 91       	pop	r28
    35de:	1f 91       	pop	r17
    35e0:	0f 91       	pop	r16
    35e2:	ff 90       	pop	r15
    35e4:	ef 90       	pop	r14
    35e6:	df 90       	pop	r13
    35e8:	cf 90       	pop	r12
    35ea:	08 95       	ret

000035ec <dir_register>:

static
FRESULT dir_register (	/* FR_OK:succeeded, FR_DENIED:no free entry or too many SFN collision, FR_DISK_ERR:disk error */
	DIR* dp				/* Target directory with object name to be created */
)
{
    35ec:	ef 92       	push	r14
    35ee:	ff 92       	push	r15
    35f0:	0f 93       	push	r16
    35f2:	1f 93       	push	r17
    35f4:	cf 93       	push	r28
    35f6:	df 93       	push	r29
    35f8:	ec 01       	movw	r28, r24
	FRESULT res;
	FATFS *fs = dp->obj.fs;
    35fa:	e8 80       	ld	r14, Y
    35fc:	f9 80       	ldd	r15, Y+1	; 0x01
			} while (res == FR_OK && --nent);
		}
	}

#else	/* Non LFN configuration */
	res = dir_alloc(dp, 1);		/* Allocate an entry for SFN */
    35fe:	61 e0       	ldi	r22, 0x01	; 1
    3600:	70 e0       	ldi	r23, 0x00	; 0
    3602:	b4 df       	rcall	.-152    	; 0x356c <dir_alloc>
    3604:	8c 01       	movw	r16, r24

#endif

	/* Set SFN entry */
	if (res == FR_OK) {
    3606:	89 2b       	or	r24, r25
    3608:	f1 f4       	brne	.+60     	; 0x3646 <dir_register+0x5a>
		res = move_window(fs, dp->sect);
    360a:	4e 89       	ldd	r20, Y+22	; 0x16
    360c:	5f 89       	ldd	r21, Y+23	; 0x17
    360e:	68 8d       	ldd	r22, Y+24	; 0x18
    3610:	79 8d       	ldd	r23, Y+25	; 0x19
    3612:	c7 01       	movw	r24, r14
    3614:	0e 94 b6 10 	call	0x216c	; 0x216c <move_window>
    3618:	8c 01       	movw	r16, r24
		if (res == FR_OK) {
    361a:	89 2b       	or	r24, r25
    361c:	a1 f4       	brne	.+40     	; 0x3646 <dir_register+0x5a>
			mem_set(dp->dir, 0, SZDIRE);	/* Clean the entry */
    361e:	40 e2       	ldi	r20, 0x20	; 32
    3620:	50 e0       	ldi	r21, 0x00	; 0
    3622:	60 e0       	ldi	r22, 0x00	; 0
    3624:	70 e0       	ldi	r23, 0x00	; 0
    3626:	8a 8d       	ldd	r24, Y+26	; 0x1a
    3628:	9b 8d       	ldd	r25, Y+27	; 0x1b
    362a:	0e 94 09 0e 	call	0x1c12	; 0x1c12 <mem_set>
			mem_cpy(dp->dir + DIR_Name, dp->fn, 11);	/* Put SFN */
    362e:	be 01       	movw	r22, r28
    3630:	64 5e       	subi	r22, 0xE4	; 228
    3632:	7f 4f       	sbci	r23, 0xFF	; 255
    3634:	4b e0       	ldi	r20, 0x0B	; 11
    3636:	50 e0       	ldi	r21, 0x00	; 0
    3638:	8a 8d       	ldd	r24, Y+26	; 0x1a
    363a:	9b 8d       	ldd	r25, Y+27	; 0x1b
    363c:	0e 94 fa 0d 	call	0x1bf4	; 0x1bf4 <mem_cpy>
#if _USE_LFN != 0
			dp->dir[DIR_NTres] = dp->fn[NSFLAG] & (NS_BODY | NS_EXT);	/* Put NT flag */
#endif
			fs->wflag = 1;
    3640:	81 e0       	ldi	r24, 0x01	; 1
    3642:	f7 01       	movw	r30, r14
    3644:	83 83       	std	Z+3, r24	; 0x03
		}
	}

	return res;
}
    3646:	c8 01       	movw	r24, r16
    3648:	df 91       	pop	r29
    364a:	cf 91       	pop	r28
    364c:	1f 91       	pop	r17
    364e:	0f 91       	pop	r16
    3650:	ff 90       	pop	r15
    3652:	ef 90       	pop	r14
    3654:	08 95       	ret

00003656 <dir_read>:
static
FRESULT dir_read (
	DIR* dp,		/* Pointer to the directory object */
	int vol			/* Filtered by 0:file/directory or 1:volume label */
)
{
    3656:	ef 92       	push	r14
    3658:	ff 92       	push	r15
    365a:	0f 93       	push	r16
    365c:	1f 93       	push	r17
    365e:	cf 93       	push	r28
    3660:	df 93       	push	r29
    3662:	ec 01       	movw	r28, r24
    3664:	7b 01       	movw	r14, r22
	FRESULT res = FR_NO_FILE;
	FATFS *fs = dp->obj.fs;
    3666:	08 81       	ld	r16, Y
    3668:	19 81       	ldd	r17, Y+1	; 0x01
FRESULT dir_read (
	DIR* dp,		/* Pointer to the directory object */
	int vol			/* Filtered by 0:file/directory or 1:volume label */
)
{
	FRESULT res = FR_NO_FILE;
    366a:	84 e0       	ldi	r24, 0x04	; 4
    366c:	90 e0       	ldi	r25, 0x00	; 0
	BYTE a, c;
#if _USE_LFN != 0
	BYTE ord = 0xFF, sum = 0xFF;
#endif

	while (dp->sect) {
    366e:	25 c0       	rjmp	.+74     	; 0x36ba <dir_read+0x64>
		res = move_window(fs, dp->sect);
    3670:	c8 01       	movw	r24, r16
    3672:	0e 94 b6 10 	call	0x216c	; 0x216c <move_window>
		if (res != FR_OK) break;
    3676:	00 97       	sbiw	r24, 0x00	; 0
    3678:	61 f5       	brne	.+88     	; 0x36d2 <dir_read+0x7c>
		c = dp->dir[DIR_Name];	/* Test for the entry type */
    367a:	ea 8d       	ldd	r30, Y+26	; 0x1a
    367c:	fb 8d       	ldd	r31, Y+27	; 0x1b
    367e:	30 81       	ld	r19, Z
		if (c == 0) {
    3680:	33 23       	and	r19, r19
    3682:	29 f1       	breq	.+74     	; 0x36ce <dir_read+0x78>
				}
			}
		} else
#endif
		{	/* On the FAT12/16/32 volume */
			dp->obj.attr = a = dp->dir[DIR_Attr] & AM_MASK;	/* Get attribute */
    3684:	23 85       	ldd	r18, Z+11	; 0x0b
    3686:	2f 73       	andi	r18, 0x3F	; 63
    3688:	2c 83       	std	Y+4, r18	; 0x04
					}
					break;
				}
			}
#else		/* Non LFN configuration */
			if (c != DDEM && c != '.' && a != AM_LFN && (int)((a & ~AM_ARC) == AM_VOL) == vol) {	/* Is it a valid entry? */
    368a:	35 3e       	cpi	r19, 0xE5	; 229
    368c:	81 f0       	breq	.+32     	; 0x36ae <dir_read+0x58>
    368e:	3e 32       	cpi	r19, 0x2E	; 46
    3690:	71 f0       	breq	.+28     	; 0x36ae <dir_read+0x58>
    3692:	2f 30       	cpi	r18, 0x0F	; 15
    3694:	61 f0       	breq	.+24     	; 0x36ae <dir_read+0x58>
    3696:	30 e0       	ldi	r19, 0x00	; 0
    3698:	2f 7d       	andi	r18, 0xDF	; 223
    369a:	41 e0       	ldi	r20, 0x01	; 1
    369c:	50 e0       	ldi	r21, 0x00	; 0
    369e:	28 30       	cpi	r18, 0x08	; 8
    36a0:	31 05       	cpc	r19, r1
    36a2:	11 f0       	breq	.+4      	; 0x36a8 <dir_read+0x52>
    36a4:	40 e0       	ldi	r20, 0x00	; 0
    36a6:	50 e0       	ldi	r21, 0x00	; 0
    36a8:	4e 15       	cp	r20, r14
    36aa:	5f 05       	cpc	r21, r15
    36ac:	91 f0       	breq	.+36     	; 0x36d2 <dir_read+0x7c>
				break;
			}
#endif
		}
		res = dir_next(dp, 0);		/* Next entry */
    36ae:	60 e0       	ldi	r22, 0x00	; 0
    36b0:	70 e0       	ldi	r23, 0x00	; 0
    36b2:	ce 01       	movw	r24, r28
    36b4:	3b dd       	rcall	.-1418   	; 0x312c <dir_next>
		if (res != FR_OK) break;
    36b6:	00 97       	sbiw	r24, 0x00	; 0
    36b8:	61 f4       	brne	.+24     	; 0x36d2 <dir_read+0x7c>
	BYTE a, c;
#if _USE_LFN != 0
	BYTE ord = 0xFF, sum = 0xFF;
#endif

	while (dp->sect) {
    36ba:	4e 89       	ldd	r20, Y+22	; 0x16
    36bc:	5f 89       	ldd	r21, Y+23	; 0x17
    36be:	68 8d       	ldd	r22, Y+24	; 0x18
    36c0:	79 8d       	ldd	r23, Y+25	; 0x19
    36c2:	41 15       	cp	r20, r1
    36c4:	51 05       	cpc	r21, r1
    36c6:	61 05       	cpc	r22, r1
    36c8:	71 05       	cpc	r23, r1
    36ca:	91 f6       	brne	.-92     	; 0x3670 <dir_read+0x1a>
    36cc:	02 c0       	rjmp	.+4      	; 0x36d2 <dir_read+0x7c>
		res = move_window(fs, dp->sect);
		if (res != FR_OK) break;
		c = dp->dir[DIR_Name];	/* Test for the entry type */
		if (c == 0) {
			res = FR_NO_FILE; break; /* Reached to end of the directory */
    36ce:	84 e0       	ldi	r24, 0x04	; 4
    36d0:	90 e0       	ldi	r25, 0x00	; 0
		}
		res = dir_next(dp, 0);		/* Next entry */
		if (res != FR_OK) break;
	}

	if (res != FR_OK) dp->sect = 0;		/* Terminate the read operation on error or EOT */
    36d2:	00 97       	sbiw	r24, 0x00	; 0
    36d4:	21 f0       	breq	.+8      	; 0x36de <dir_read+0x88>
    36d6:	1e 8a       	std	Y+22, r1	; 0x16
    36d8:	1f 8a       	std	Y+23, r1	; 0x17
    36da:	18 8e       	std	Y+24, r1	; 0x18
    36dc:	19 8e       	std	Y+25, r1	; 0x19
	return res;
}
    36de:	df 91       	pop	r29
    36e0:	cf 91       	pop	r28
    36e2:	1f 91       	pop	r17
    36e4:	0f 91       	pop	r16
    36e6:	ff 90       	pop	r15
    36e8:	ef 90       	pop	r14
    36ea:	08 95       	ret

000036ec <sync_fs>:

static
FRESULT sync_fs (	/* FR_OK:succeeded, !=0:error */
	FATFS* fs		/* File system object */
)
{
    36ec:	cf 92       	push	r12
    36ee:	df 92       	push	r13
    36f0:	ef 92       	push	r14
    36f2:	ff 92       	push	r15
    36f4:	0f 93       	push	r16
    36f6:	1f 93       	push	r17
    36f8:	cf 93       	push	r28
    36fa:	df 93       	push	r29
    36fc:	ec 01       	movw	r28, r24
	FRESULT res;


	res = sync_window(fs);
    36fe:	0e 94 4e 10 	call	0x209c	; 0x209c <sync_window>
    3702:	7c 01       	movw	r14, r24
	if (res == FR_OK) {
    3704:	89 2b       	or	r24, r25
    3706:	09 f0       	breq	.+2      	; 0x370a <sync_fs+0x1e>
    3708:	5c c0       	rjmp	.+184    	; 0x37c2 <sync_fs+0xd6>
		/* Update FSInfo sector if needed */
		if (fs->fs_type == FS_FAT32 && fs->fsi_flag == 1) {
    370a:	88 81       	ld	r24, Y
    370c:	83 30       	cpi	r24, 0x03	; 3
    370e:	09 f0       	breq	.+2      	; 0x3712 <sync_fs+0x26>
    3710:	4d c0       	rjmp	.+154    	; 0x37ac <sync_fs+0xc0>
    3712:	8c 81       	ldd	r24, Y+4	; 0x04
    3714:	81 30       	cpi	r24, 0x01	; 1
    3716:	09 f0       	breq	.+2      	; 0x371a <sync_fs+0x2e>
    3718:	49 c0       	rjmp	.+146    	; 0x37ac <sync_fs+0xc0>
			/* Create FSInfo structure */
			mem_set(fs->win, 0, SS(fs));
    371a:	40 e0       	ldi	r20, 0x00	; 0
    371c:	52 e0       	ldi	r21, 0x02	; 2
    371e:	60 e0       	ldi	r22, 0x00	; 0
    3720:	70 e0       	ldi	r23, 0x00	; 0
    3722:	6e 01       	movw	r12, r28
    3724:	83 e3       	ldi	r24, 0x33	; 51
    3726:	c8 0e       	add	r12, r24
    3728:	d1 1c       	adc	r13, r1
    372a:	c6 01       	movw	r24, r12
    372c:	0e 94 09 0e 	call	0x1c12	; 0x1c12 <mem_set>
			st_word(fs->win + BS_55AA, 0xAA55);
    3730:	65 e5       	ldi	r22, 0x55	; 85
    3732:	7a ea       	ldi	r23, 0xAA	; 170
    3734:	ce 01       	movw	r24, r28
    3736:	8f 5c       	subi	r24, 0xCF	; 207
    3738:	9d 4f       	sbci	r25, 0xFD	; 253
    373a:	0e 94 f0 0d 	call	0x1be0	; 0x1be0 <st_word>
			st_dword(fs->win + FSI_LeadSig, 0x41615252);
    373e:	42 e5       	ldi	r20, 0x52	; 82
    3740:	52 e5       	ldi	r21, 0x52	; 82
    3742:	61 e6       	ldi	r22, 0x61	; 97
    3744:	71 e4       	ldi	r23, 0x41	; 65
    3746:	c6 01       	movw	r24, r12
    3748:	0e 94 f4 0d 	call	0x1be8	; 0x1be8 <st_dword>
			st_dword(fs->win + FSI_StrucSig, 0x61417272);
    374c:	42 e7       	ldi	r20, 0x72	; 114
    374e:	52 e7       	ldi	r21, 0x72	; 114
    3750:	61 e4       	ldi	r22, 0x41	; 65
    3752:	71 e6       	ldi	r23, 0x61	; 97
    3754:	ce 01       	movw	r24, r28
    3756:	89 5e       	subi	r24, 0xE9	; 233
    3758:	9d 4f       	sbci	r25, 0xFD	; 253
    375a:	0e 94 f4 0d 	call	0x1be8	; 0x1be8 <st_dword>
			st_dword(fs->win + FSI_Free_Count, fs->free_clst);
    375e:	4f 85       	ldd	r20, Y+15	; 0x0f
    3760:	58 89       	ldd	r21, Y+16	; 0x10
    3762:	69 89       	ldd	r22, Y+17	; 0x11
    3764:	7a 89       	ldd	r23, Y+18	; 0x12
    3766:	ce 01       	movw	r24, r28
    3768:	85 5e       	subi	r24, 0xE5	; 229
    376a:	9d 4f       	sbci	r25, 0xFD	; 253
    376c:	0e 94 f4 0d 	call	0x1be8	; 0x1be8 <st_dword>
			st_dword(fs->win + FSI_Nxt_Free, fs->last_clst);
    3770:	4b 85       	ldd	r20, Y+11	; 0x0b
    3772:	5c 85       	ldd	r21, Y+12	; 0x0c
    3774:	6d 85       	ldd	r22, Y+13	; 0x0d
    3776:	7e 85       	ldd	r23, Y+14	; 0x0e
    3778:	ce 01       	movw	r24, r28
    377a:	81 5e       	subi	r24, 0xE1	; 225
    377c:	9d 4f       	sbci	r25, 0xFD	; 253
    377e:	0e 94 f4 0d 	call	0x1be8	; 0x1be8 <st_dword>
			/* Write it into the FSInfo sector */
			fs->winsect = fs->volbase + 1;
    3782:	8f 8d       	ldd	r24, Y+31	; 0x1f
    3784:	98 a1       	ldd	r25, Y+32	; 0x20
    3786:	a9 a1       	ldd	r26, Y+33	; 0x21
    3788:	ba a1       	ldd	r27, Y+34	; 0x22
    378a:	9c 01       	movw	r18, r24
    378c:	ad 01       	movw	r20, r26
    378e:	2f 5f       	subi	r18, 0xFF	; 255
    3790:	3f 4f       	sbci	r19, 0xFF	; 255
    3792:	4f 4f       	sbci	r20, 0xFF	; 255
    3794:	5f 4f       	sbci	r21, 0xFF	; 255
    3796:	2f a7       	std	Y+47, r18	; 0x2f
    3798:	38 ab       	std	Y+48, r19	; 0x30
    379a:	49 ab       	std	Y+49, r20	; 0x31
    379c:	5a ab       	std	Y+50, r21	; 0x32
			disk_write(fs->drv, fs->win, fs->winsect, 1);
    379e:	01 e0       	ldi	r16, 0x01	; 1
    37a0:	10 e0       	ldi	r17, 0x00	; 0
    37a2:	b6 01       	movw	r22, r12
    37a4:	89 81       	ldd	r24, Y+1	; 0x01
    37a6:	0e 94 ad 0d 	call	0x1b5a	; 0x1b5a <disk_write>
			fs->fsi_flag = 0;
    37aa:	1c 82       	std	Y+4, r1	; 0x04
		}
		/* Make sure that no pending write process in the physical drive */
		if (disk_ioctl(fs->drv, CTRL_SYNC, 0) != RES_OK) res = FR_DISK_ERR;
    37ac:	40 e0       	ldi	r20, 0x00	; 0
    37ae:	50 e0       	ldi	r21, 0x00	; 0
    37b0:	60 e0       	ldi	r22, 0x00	; 0
    37b2:	89 81       	ldd	r24, Y+1	; 0x01
    37b4:	0e 94 be 0d 	call	0x1b7c	; 0x1b7c <disk_ioctl>
    37b8:	89 2b       	or	r24, r25
    37ba:	19 f0       	breq	.+6      	; 0x37c2 <sync_fs+0xd6>
    37bc:	ee 24       	eor	r14, r14
    37be:	e3 94       	inc	r14
    37c0:	f1 2c       	mov	r15, r1
	}

	return res;
}
    37c2:	c7 01       	movw	r24, r14
    37c4:	df 91       	pop	r29
    37c6:	cf 91       	pop	r28
    37c8:	1f 91       	pop	r17
    37ca:	0f 91       	pop	r16
    37cc:	ff 90       	pop	r15
    37ce:	ef 90       	pop	r14
    37d0:	df 90       	pop	r13
    37d2:	cf 90       	pop	r12
    37d4:	08 95       	ret

000037d6 <f_mount>:
FRESULT f_mount (
	FATFS* fs,			/* Pointer to the file system object (NULL:unmount)*/
	const TCHAR* path,	/* Logical drive number to be mounted/unmounted */
	BYTE opt			/* Mode option 0:Do not mount (delayed mount), 1:Mount immediately */
)
{
    37d6:	1f 93       	push	r17
    37d8:	cf 93       	push	r28
    37da:	df 93       	push	r29
    37dc:	00 d0       	rcall	.+0      	; 0x37de <f_mount+0x8>
    37de:	00 d0       	rcall	.+0      	; 0x37e0 <f_mount+0xa>
    37e0:	00 d0       	rcall	.+0      	; 0x37e2 <f_mount+0xc>
    37e2:	cd b7       	in	r28, 0x3d	; 61
    37e4:	de b7       	in	r29, 0x3e	; 62
    37e6:	9c 83       	std	Y+4, r25	; 0x04
    37e8:	8b 83       	std	Y+3, r24	; 0x03
    37ea:	7e 83       	std	Y+6, r23	; 0x06
    37ec:	6d 83       	std	Y+5, r22	; 0x05
    37ee:	14 2f       	mov	r17, r20
	FATFS *cfs;
	int vol;
	FRESULT res;
	const TCHAR *rp = path;
    37f0:	7a 83       	std	Y+2, r23	; 0x02
    37f2:	69 83       	std	Y+1, r22	; 0x01


	/* Get logical drive number */
	vol = get_ldnumber(&rp);
    37f4:	ce 01       	movw	r24, r28
    37f6:	01 96       	adiw	r24, 0x01	; 1
    37f8:	0e 94 eb 0f 	call	0x1fd6	; 0x1fd6 <get_ldnumber>
	if (vol < 0) return FR_INVALID_DRIVE;
    37fc:	99 23       	and	r25, r25
    37fe:	34 f1       	brlt	.+76     	; 0x384c <f_mount+0x76>
	cfs = FatFs[vol];					/* Pointer to fs object */
    3800:	fc 01       	movw	r30, r24
    3802:	ee 0f       	add	r30, r30
    3804:	ff 1f       	adc	r31, r31
    3806:	e1 5f       	subi	r30, 0xF1	; 241
    3808:	fd 4f       	sbci	r31, 0xFD	; 253
    380a:	01 90       	ld	r0, Z+
    380c:	f0 81       	ld	r31, Z
    380e:	e0 2d       	mov	r30, r0

	if (cfs) {
    3810:	30 97       	sbiw	r30, 0x00	; 0
    3812:	09 f0       	breq	.+2      	; 0x3816 <f_mount+0x40>
		clear_lock(cfs);
#endif
#if _FS_REENTRANT						/* Discard sync object of the current volume */
		if (!ff_del_syncobj(cfs->sobj)) return FR_INT_ERR;
#endif
		cfs->fs_type = 0;				/* Clear old fs object */
    3814:	10 82       	st	Z, r1
	}

	if (fs) {
    3816:	eb 81       	ldd	r30, Y+3	; 0x03
    3818:	fc 81       	ldd	r31, Y+4	; 0x04
    381a:	30 97       	sbiw	r30, 0x00	; 0
    381c:	09 f0       	breq	.+2      	; 0x3820 <f_mount+0x4a>
		fs->fs_type = 0;				/* Clear new fs object */
    381e:	10 82       	st	Z, r1
#if _FS_REENTRANT						/* Create sync object for the new volume */
		if (!ff_cre_syncobj((BYTE)vol, &fs->sobj)) return FR_INT_ERR;
#endif
	}
	FatFs[vol] = fs;					/* Register new fs object */
    3820:	2b 81       	ldd	r18, Y+3	; 0x03
    3822:	3c 81       	ldd	r19, Y+4	; 0x04
    3824:	88 0f       	add	r24, r24
    3826:	99 1f       	adc	r25, r25
    3828:	fc 01       	movw	r30, r24
    382a:	e1 5f       	subi	r30, 0xF1	; 241
    382c:	fd 4f       	sbci	r31, 0xFD	; 253
    382e:	31 83       	std	Z+1, r19	; 0x01
    3830:	20 83       	st	Z, r18

	if (!fs || opt != 1) return FR_OK;	/* Do not mount now, it will be mounted later */
    3832:	23 2b       	or	r18, r19
    3834:	71 f0       	breq	.+28     	; 0x3852 <f_mount+0x7c>
    3836:	11 30       	cpi	r17, 0x01	; 1
    3838:	79 f4       	brne	.+30     	; 0x3858 <f_mount+0x82>

	res = find_volume(&path, &fs, 0);	/* Force mounted the volume */
    383a:	40 e0       	ldi	r20, 0x00	; 0
    383c:	be 01       	movw	r22, r28
    383e:	6d 5f       	subi	r22, 0xFD	; 253
    3840:	7f 4f       	sbci	r23, 0xFF	; 255
    3842:	ce 01       	movw	r24, r28
    3844:	05 96       	adiw	r24, 0x05	; 5
    3846:	0e 94 39 11 	call	0x2272	; 0x2272 <find_volume>
	LEAVE_FF(fs, res);
    384a:	08 c0       	rjmp	.+16     	; 0x385c <f_mount+0x86>
	const TCHAR *rp = path;


	/* Get logical drive number */
	vol = get_ldnumber(&rp);
	if (vol < 0) return FR_INVALID_DRIVE;
    384c:	8b e0       	ldi	r24, 0x0B	; 11
    384e:	90 e0       	ldi	r25, 0x00	; 0
    3850:	05 c0       	rjmp	.+10     	; 0x385c <f_mount+0x86>
		if (!ff_cre_syncobj((BYTE)vol, &fs->sobj)) return FR_INT_ERR;
#endif
	}
	FatFs[vol] = fs;					/* Register new fs object */

	if (!fs || opt != 1) return FR_OK;	/* Do not mount now, it will be mounted later */
    3852:	80 e0       	ldi	r24, 0x00	; 0
    3854:	90 e0       	ldi	r25, 0x00	; 0
    3856:	02 c0       	rjmp	.+4      	; 0x385c <f_mount+0x86>
    3858:	80 e0       	ldi	r24, 0x00	; 0
    385a:	90 e0       	ldi	r25, 0x00	; 0

	res = find_volume(&path, &fs, 0);	/* Force mounted the volume */
	LEAVE_FF(fs, res);
}
    385c:	26 96       	adiw	r28, 0x06	; 6
    385e:	0f b6       	in	r0, 0x3f	; 63
    3860:	f8 94       	cli
    3862:	de bf       	out	0x3e, r29	; 62
    3864:	0f be       	out	0x3f, r0	; 63
    3866:	cd bf       	out	0x3d, r28	; 61
    3868:	df 91       	pop	r29
    386a:	cf 91       	pop	r28
    386c:	1f 91       	pop	r17
    386e:	08 95       	ret

00003870 <f_open>:
FRESULT f_open (
	FIL* fp,			/* Pointer to the blank file object */
	const TCHAR* path,	/* Pointer to the file name */
	BYTE mode			/* Access mode and file open mode flags */
)
{
    3870:	2f 92       	push	r2
    3872:	3f 92       	push	r3
    3874:	4f 92       	push	r4
    3876:	5f 92       	push	r5
    3878:	6f 92       	push	r6
    387a:	7f 92       	push	r7
    387c:	8f 92       	push	r8
    387e:	9f 92       	push	r9
    3880:	af 92       	push	r10
    3882:	bf 92       	push	r11
    3884:	cf 92       	push	r12
    3886:	df 92       	push	r13
    3888:	ef 92       	push	r14
    388a:	ff 92       	push	r15
    388c:	0f 93       	push	r16
    388e:	1f 93       	push	r17
    3890:	cf 93       	push	r28
    3892:	df 93       	push	r29
    3894:	cd b7       	in	r28, 0x3d	; 61
    3896:	de b7       	in	r29, 0x3e	; 62
    3898:	ac 97       	sbiw	r28, 0x2c	; 44
    389a:	0f b6       	in	r0, 0x3f	; 63
    389c:	f8 94       	cli
    389e:	de bf       	out	0x3e, r29	; 62
    38a0:	0f be       	out	0x3f, r0	; 63
    38a2:	cd bf       	out	0x3d, r28	; 61
    38a4:	7c a7       	std	Y+44, r23	; 0x2c
    38a6:	6b a7       	std	Y+43, r22	; 0x2b
	FSIZE_t ofs;
#endif
	DEF_NAMBUF


	if (!fp) return FR_INVALID_OBJECT;
    38a8:	00 97       	sbiw	r24, 0x00	; 0
    38aa:	09 f4       	brne	.+2      	; 0x38ae <f_open+0x3e>
    38ac:	6f c1       	rjmp	.+734    	; 0x3b8c <f_open+0x31c>
    38ae:	f4 2e       	mov	r15, r20
    38b0:	1c 01       	movw	r2, r24

	/* Get logical drive */
	mode &= _FS_READONLY ? FA_READ : FA_READ | FA_WRITE | FA_CREATE_ALWAYS | FA_CREATE_NEW | FA_OPEN_ALWAYS | FA_OPEN_APPEND | FA_SEEKEND;
    38b2:	84 2f       	mov	r24, r20
    38b4:	8f 73       	andi	r24, 0x3F	; 63
    38b6:	78 2e       	mov	r7, r24
	res = find_volume(&path, &fs, mode);
    38b8:	48 2f       	mov	r20, r24
    38ba:	be 01       	movw	r22, r28
    38bc:	67 5d       	subi	r22, 0xD7	; 215
    38be:	7f 4f       	sbci	r23, 0xFF	; 255
    38c0:	ce 01       	movw	r24, r28
    38c2:	8b 96       	adiw	r24, 0x2b	; 43
    38c4:	0e 94 39 11 	call	0x2272	; 0x2272 <find_volume>
    38c8:	8c 01       	movw	r16, r24
	if (res == FR_OK) {
    38ca:	89 2b       	or	r24, r25
    38cc:	09 f0       	breq	.+2      	; 0x38d0 <f_open+0x60>
    38ce:	55 c1       	rjmp	.+682    	; 0x3b7a <f_open+0x30a>
		dj.obj.fs = fs;
    38d0:	89 a5       	ldd	r24, Y+41	; 0x29
    38d2:	9a a5       	ldd	r25, Y+42	; 0x2a
    38d4:	9a 83       	std	Y+2, r25	; 0x02
    38d6:	89 83       	std	Y+1, r24	; 0x01
		INIT_NAMBUF(fs);
		res = follow_path(&dj, path);	/* Follow the file path */
    38d8:	6b a5       	ldd	r22, Y+43	; 0x2b
    38da:	7c a5       	ldd	r23, Y+44	; 0x2c
    38dc:	ce 01       	movw	r24, r28
    38de:	01 96       	adiw	r24, 0x01	; 1
    38e0:	ac dd       	rcall	.-1192   	; 0x343a <follow_path>
    38e2:	8c 01       	movw	r16, r24
#if !_FS_READONLY	/* R/W configuration */
		if (res == FR_OK) {
    38e4:	89 2b       	or	r24, r25
    38e6:	29 f4       	brne	.+10     	; 0x38f2 <f_open+0x82>
			if (dj.fn[NSFLAG] & NS_NONAME) {	/* Origin directory itself? */
    38e8:	88 a5       	ldd	r24, Y+40	; 0x28
    38ea:	88 23       	and	r24, r24
    38ec:	14 f4       	brge	.+4      	; 0x38f2 <f_open+0x82>
				res = FR_INVALID_NAME;
    38ee:	06 e0       	ldi	r16, 0x06	; 6
    38f0:	10 e0       	ldi	r17, 0x00	; 0
				res = chk_lock(&dj, (mode & ~FA_READ) ? 1 : 0);
			}
#endif
		}
		/* Create or Open a file */
		if (mode & (FA_CREATE_ALWAYS | FA_OPEN_ALWAYS | FA_CREATE_NEW)) {
    38f2:	8f 2d       	mov	r24, r15
    38f4:	8c 71       	andi	r24, 0x1C	; 28
    38f6:	09 f4       	brne	.+2      	; 0x38fa <f_open+0x8a>
    38f8:	79 c0       	rjmp	.+242    	; 0x39ec <f_open+0x17c>
			if (res != FR_OK) {					/* No file, create new */
    38fa:	01 15       	cp	r16, r1
    38fc:	11 05       	cpc	r17, r1
    38fe:	59 f0       	breq	.+22     	; 0x3916 <f_open+0xa6>
				if (res == FR_NO_FILE) {		/* There is no file to open, create a new entry */
    3900:	04 30       	cpi	r16, 0x04	; 4
    3902:	11 05       	cpc	r17, r1
    3904:	21 f4       	brne	.+8      	; 0x390e <f_open+0x9e>
#if _FS_LOCK != 0
					res = enq_lock() ? dir_register(&dj) : FR_TOO_MANY_OPEN_FILES;
#else
					res = dir_register(&dj);
    3906:	ce 01       	movw	r24, r28
    3908:	01 96       	adiw	r24, 0x01	; 1
    390a:	70 de       	rcall	.-800    	; 0x35ec <dir_register>
    390c:	8c 01       	movw	r16, r24
#endif
				}
				mode |= FA_CREATE_ALWAYS;		/* File is created */
    390e:	e7 2d       	mov	r30, r7
    3910:	e8 60       	ori	r30, 0x08	; 8
    3912:	7e 2e       	mov	r7, r30
    3914:	0b c0       	rjmp	.+22     	; 0x392c <f_open+0xbc>
			}
			else {								/* Any object is already existing */
				if (dj.obj.attr & (AM_RDO | AM_DIR)) {	/* Cannot overwrite it (R/O or DIR) */
    3916:	8d 81       	ldd	r24, Y+5	; 0x05
    3918:	81 71       	andi	r24, 0x11	; 17
    391a:	19 f4       	brne	.+6      	; 0x3922 <f_open+0xb2>
					res = FR_DENIED;
				} else {
					if (mode & FA_CREATE_NEW) res = FR_EXIST;	/* Cannot create as new file */
    391c:	f2 fc       	sbrc	r15, 2
    391e:	04 c0       	rjmp	.+8      	; 0x3928 <f_open+0xb8>
    3920:	05 c0       	rjmp	.+10     	; 0x392c <f_open+0xbc>
				}
				mode |= FA_CREATE_ALWAYS;		/* File is created */
			}
			else {								/* Any object is already existing */
				if (dj.obj.attr & (AM_RDO | AM_DIR)) {	/* Cannot overwrite it (R/O or DIR) */
					res = FR_DENIED;
    3922:	07 e0       	ldi	r16, 0x07	; 7
    3924:	10 e0       	ldi	r17, 0x00	; 0
    3926:	02 c0       	rjmp	.+4      	; 0x392c <f_open+0xbc>
				} else {
					if (mode & FA_CREATE_NEW) res = FR_EXIST;	/* Cannot create as new file */
    3928:	08 e0       	ldi	r16, 0x08	; 8
    392a:	10 e0       	ldi	r17, 0x00	; 0
				}
			}
			if (res == FR_OK && (mode & FA_CREATE_ALWAYS)) {	/* Truncate it if overwrite mode */
    392c:	01 15       	cp	r16, r1
    392e:	11 05       	cpc	r17, r1
    3930:	09 f0       	breq	.+2      	; 0x3934 <f_open+0xc4>
    3932:	6c c0       	rjmp	.+216    	; 0x3a0c <f_open+0x19c>
    3934:	73 fe       	sbrs	r7, 3
    3936:	6a c0       	rjmp	.+212    	; 0x3a0c <f_open+0x19c>
					}
				} else
#endif
				{
					/* Clean directory info */
					st_dword(dj.dir + DIR_CrtTime, dw);	/* Set created time */
    3938:	8b 8d       	ldd	r24, Y+27	; 0x1b
    393a:	9c 8d       	ldd	r25, Y+28	; 0x1c
    393c:	40 e0       	ldi	r20, 0x00	; 0
    393e:	50 e0       	ldi	r21, 0x00	; 0
    3940:	61 e2       	ldi	r22, 0x21	; 33
    3942:	70 e0       	ldi	r23, 0x00	; 0
    3944:	0e 96       	adiw	r24, 0x0e	; 14
    3946:	0e 94 f4 0d 	call	0x1be8	; 0x1be8 <st_dword>
					st_dword(dj.dir + DIR_ModTime, dw);	/* Set modified time */
    394a:	8b 8d       	ldd	r24, Y+27	; 0x1b
    394c:	9c 8d       	ldd	r25, Y+28	; 0x1c
    394e:	40 e0       	ldi	r20, 0x00	; 0
    3950:	50 e0       	ldi	r21, 0x00	; 0
    3952:	61 e2       	ldi	r22, 0x21	; 33
    3954:	70 e0       	ldi	r23, 0x00	; 0
    3956:	46 96       	adiw	r24, 0x16	; 22
    3958:	0e 94 f4 0d 	call	0x1be8	; 0x1be8 <st_dword>
					dj.dir[DIR_Attr] = AM_ARC;			/* Reset attribute */
    395c:	eb 8d       	ldd	r30, Y+27	; 0x1b
    395e:	fc 8d       	ldd	r31, Y+28	; 0x1c
    3960:	80 e2       	ldi	r24, 0x20	; 32
    3962:	83 87       	std	Z+11, r24	; 0x0b
					cl = ld_clust(fs, dj.dir);			/* Get cluster chain */
    3964:	cb 8c       	ldd	r12, Y+27	; 0x1b
    3966:	dc 8c       	ldd	r13, Y+28	; 0x1c
    3968:	e9 a4       	ldd	r14, Y+41	; 0x29
    396a:	fa a4       	ldd	r15, Y+42	; 0x2a
    396c:	b6 01       	movw	r22, r12
    396e:	c7 01       	movw	r24, r14
    3970:	0e 94 63 0e 	call	0x1cc6	; 0x1cc6 <ld_clust>
    3974:	4b 01       	movw	r8, r22
    3976:	5c 01       	movw	r10, r24
					st_clust(fs, dj.dir, 0);			/* Reset file allocation info */
    3978:	20 e0       	ldi	r18, 0x00	; 0
    397a:	30 e0       	ldi	r19, 0x00	; 0
    397c:	a9 01       	movw	r20, r18
    397e:	b6 01       	movw	r22, r12
    3980:	c7 01       	movw	r24, r14
    3982:	0e 94 8e 0e 	call	0x1d1c	; 0x1d1c <st_clust>
					st_dword(dj.dir + DIR_FileSize, 0);
    3986:	8b 8d       	ldd	r24, Y+27	; 0x1b
    3988:	9c 8d       	ldd	r25, Y+28	; 0x1c
    398a:	40 e0       	ldi	r20, 0x00	; 0
    398c:	50 e0       	ldi	r21, 0x00	; 0
    398e:	ba 01       	movw	r22, r20
    3990:	4c 96       	adiw	r24, 0x1c	; 28
    3992:	0e 94 f4 0d 	call	0x1be8	; 0x1be8 <st_dword>
					fs->wflag = 1;
    3996:	e9 a5       	ldd	r30, Y+41	; 0x29
    3998:	fa a5       	ldd	r31, Y+42	; 0x2a
    399a:	81 e0       	ldi	r24, 0x01	; 1
    399c:	83 83       	std	Z+3, r24	; 0x03

					if (cl) {							/* Remove the cluster chain if exist */
    399e:	81 14       	cp	r8, r1
    39a0:	91 04       	cpc	r9, r1
    39a2:	a1 04       	cpc	r10, r1
    39a4:	b1 04       	cpc	r11, r1
    39a6:	91 f1       	breq	.+100    	; 0x3a0c <f_open+0x19c>
						dw = fs->winsect;
    39a8:	c7 a4       	ldd	r12, Z+47	; 0x2f
    39aa:	d0 a8       	ldd	r13, Z+48	; 0x30
    39ac:	e1 a8       	ldd	r14, Z+49	; 0x31
    39ae:	f2 a8       	ldd	r15, Z+50	; 0x32
						res = remove_chain(&dj.obj, cl, 0);
    39b0:	00 e0       	ldi	r16, 0x00	; 0
    39b2:	10 e0       	ldi	r17, 0x00	; 0
    39b4:	98 01       	movw	r18, r16
    39b6:	b5 01       	movw	r22, r10
    39b8:	a4 01       	movw	r20, r8
    39ba:	ce 01       	movw	r24, r28
    39bc:	01 96       	adiw	r24, 0x01	; 1
    39be:	1b db       	rcall	.-2506   	; 0x2ff6 <remove_chain>
    39c0:	8c 01       	movw	r16, r24
						if (res == FR_OK) {
    39c2:	89 2b       	or	r24, r25
    39c4:	19 f5       	brne	.+70     	; 0x3a0c <f_open+0x19c>
							res = move_window(fs, dw);
    39c6:	b7 01       	movw	r22, r14
    39c8:	a6 01       	movw	r20, r12
    39ca:	89 a5       	ldd	r24, Y+41	; 0x29
    39cc:	9a a5       	ldd	r25, Y+42	; 0x2a
    39ce:	0e 94 b6 10 	call	0x216c	; 0x216c <move_window>
    39d2:	8c 01       	movw	r16, r24
							fs->last_clst = cl - 1;		/* Reuse the cluster hole */
    39d4:	e9 a5       	ldd	r30, Y+41	; 0x29
    39d6:	fa a5       	ldd	r31, Y+42	; 0x2a
    39d8:	81 e0       	ldi	r24, 0x01	; 1
    39da:	88 1a       	sub	r8, r24
    39dc:	91 08       	sbc	r9, r1
    39de:	a1 08       	sbc	r10, r1
    39e0:	b1 08       	sbc	r11, r1
    39e2:	83 86       	std	Z+11, r8	; 0x0b
    39e4:	94 86       	std	Z+12, r9	; 0x0c
    39e6:	a5 86       	std	Z+13, r10	; 0x0d
    39e8:	b6 86       	std	Z+14, r11	; 0x0e
    39ea:	10 c0       	rjmp	.+32     	; 0x3a0c <f_open+0x19c>
					}
				}
			}
		}
		else {	/* Open an existing file */
			if (res == FR_OK) {					/* Following succeeded */
    39ec:	01 15       	cp	r16, r1
    39ee:	11 05       	cpc	r17, r1
    39f0:	69 f4       	brne	.+26     	; 0x3a0c <f_open+0x19c>
				if (dj.obj.attr & AM_DIR) {		/* It is a directory */
    39f2:	8d 81       	ldd	r24, Y+5	; 0x05
    39f4:	84 fd       	sbrc	r24, 4
    39f6:	05 c0       	rjmp	.+10     	; 0x3a02 <f_open+0x192>
					res = FR_NO_FILE;
				} else {
					if ((mode & FA_WRITE) && (dj.obj.attr & AM_RDO)) { /* R/O violation */
    39f8:	f1 fe       	sbrs	r15, 1
    39fa:	08 c0       	rjmp	.+16     	; 0x3a0c <f_open+0x19c>
    39fc:	80 fd       	sbrc	r24, 0
    39fe:	04 c0       	rjmp	.+8      	; 0x3a08 <f_open+0x198>
    3a00:	05 c0       	rjmp	.+10     	; 0x3a0c <f_open+0x19c>
			}
		}
		else {	/* Open an existing file */
			if (res == FR_OK) {					/* Following succeeded */
				if (dj.obj.attr & AM_DIR) {		/* It is a directory */
					res = FR_NO_FILE;
    3a02:	04 e0       	ldi	r16, 0x04	; 4
    3a04:	10 e0       	ldi	r17, 0x00	; 0
    3a06:	02 c0       	rjmp	.+4      	; 0x3a0c <f_open+0x19c>
				} else {
					if ((mode & FA_WRITE) && (dj.obj.attr & AM_RDO)) { /* R/O violation */
						res = FR_DENIED;
    3a08:	07 e0       	ldi	r16, 0x07	; 7
    3a0a:	10 e0       	ldi	r17, 0x00	; 0
					}
				}
			}
		}
		if (res == FR_OK) {
    3a0c:	01 15       	cp	r16, r1
    3a0e:	11 05       	cpc	r17, r1
    3a10:	a1 f4       	brne	.+40     	; 0x3a3a <f_open+0x1ca>
			if (mode & FA_CREATE_ALWAYS)		/* Set file change flag if created or overwritten */
    3a12:	73 fe       	sbrs	r7, 3
    3a14:	03 c0       	rjmp	.+6      	; 0x3a1c <f_open+0x1ac>
				mode |= FA_MODIFIED;
    3a16:	e7 2d       	mov	r30, r7
    3a18:	e0 64       	ori	r30, 0x40	; 64
    3a1a:	7e 2e       	mov	r7, r30
			fp->dir_sect = fs->winsect;			/* Pointer to the directory entry */
    3a1c:	e9 a5       	ldd	r30, Y+41	; 0x29
    3a1e:	fa a5       	ldd	r31, Y+42	; 0x2a
    3a20:	87 a5       	ldd	r24, Z+47	; 0x2f
    3a22:	90 a9       	ldd	r25, Z+48	; 0x30
    3a24:	a1 a9       	ldd	r26, Z+49	; 0x31
    3a26:	b2 a9       	ldd	r27, Z+50	; 0x32
    3a28:	f1 01       	movw	r30, r2
    3a2a:	84 8f       	std	Z+28, r24	; 0x1c
    3a2c:	95 8f       	std	Z+29, r25	; 0x1d
    3a2e:	a6 8f       	std	Z+30, r26	; 0x1e
    3a30:	b7 8f       	std	Z+31, r27	; 0x1f
			fp->dir_ptr = dj.dir;
    3a32:	8b 8d       	ldd	r24, Y+27	; 0x1b
    3a34:	9c 8d       	ldd	r25, Y+28	; 0x1c
    3a36:	91 a3       	std	Z+33, r25	; 0x21
    3a38:	80 a3       	std	Z+32, r24	; 0x20
				}
			}
		}
#endif

		if (res == FR_OK) {
    3a3a:	01 15       	cp	r16, r1
    3a3c:	11 05       	cpc	r17, r1
    3a3e:	09 f0       	breq	.+2      	; 0x3a42 <f_open+0x1d2>
    3a40:	9c c0       	rjmp	.+312    	; 0x3b7a <f_open+0x30a>
				fp->obj.stat = fs->dirbuf[XDIR_GenFlags] & 2;
				fp->obj.n_frag = 0;
			} else
#endif
			{
				fp->obj.sclust = ld_clust(fs, dj.dir);					/* Get object allocation info */
    3a42:	ab 8c       	ldd	r10, Y+27	; 0x1b
    3a44:	bc 8c       	ldd	r11, Y+28	; 0x1c
    3a46:	49 a4       	ldd	r4, Y+41	; 0x29
    3a48:	5a a4       	ldd	r5, Y+42	; 0x2a
    3a4a:	b5 01       	movw	r22, r10
    3a4c:	c2 01       	movw	r24, r4
    3a4e:	0e 94 63 0e 	call	0x1cc6	; 0x1cc6 <ld_clust>
    3a52:	6b 01       	movw	r12, r22
    3a54:	7c 01       	movw	r14, r24
    3a56:	f1 01       	movw	r30, r2
    3a58:	66 83       	std	Z+6, r22	; 0x06
    3a5a:	77 83       	std	Z+7, r23	; 0x07
    3a5c:	80 87       	std	Z+8, r24	; 0x08
    3a5e:	91 87       	std	Z+9, r25	; 0x09
				fp->obj.objsize = ld_dword(dj.dir + DIR_FileSize);
    3a60:	c5 01       	movw	r24, r10
    3a62:	4c 96       	adiw	r24, 0x1c	; 28
    3a64:	0e 94 d5 0d 	call	0x1baa	; 0x1baa <ld_dword>
    3a68:	4b 01       	movw	r8, r22
    3a6a:	5c 01       	movw	r10, r24
    3a6c:	f1 01       	movw	r30, r2
    3a6e:	62 87       	std	Z+10, r22	; 0x0a
    3a70:	73 87       	std	Z+11, r23	; 0x0b
    3a72:	84 87       	std	Z+12, r24	; 0x0c
    3a74:	95 87       	std	Z+13, r25	; 0x0d
			}
#if _USE_FASTSEEK
			fp->cltbl = 0;			/* Disable fast seek mode */
#endif
			fp->obj.fs = fs;	 	/* Validate the file object */
    3a76:	51 82       	std	Z+1, r5	; 0x01
    3a78:	40 82       	st	Z, r4
			fp->obj.id = fs->id;
    3a7a:	f2 01       	movw	r30, r4
    3a7c:	85 81       	ldd	r24, Z+5	; 0x05
    3a7e:	96 81       	ldd	r25, Z+6	; 0x06
    3a80:	f1 01       	movw	r30, r2
    3a82:	93 83       	std	Z+3, r25	; 0x03
    3a84:	82 83       	std	Z+2, r24	; 0x02
			fp->flag = mode;		/* Set file access mode */
    3a86:	76 86       	std	Z+14, r7	; 0x0e
			fp->err = 0;			/* Clear error flag */
    3a88:	17 86       	std	Z+15, r1	; 0x0f
			fp->sect = 0;			/* Invalidate current data sector */
    3a8a:	10 8e       	std	Z+24, r1	; 0x18
    3a8c:	11 8e       	std	Z+25, r1	; 0x19
    3a8e:	12 8e       	std	Z+26, r1	; 0x1a
    3a90:	13 8e       	std	Z+27, r1	; 0x1b
			fp->fptr = 0;			/* Set file pointer top of the file */
    3a92:	10 8a       	std	Z+16, r1	; 0x10
    3a94:	11 8a       	std	Z+17, r1	; 0x11
    3a96:	12 8a       	std	Z+18, r1	; 0x12
    3a98:	13 8a       	std	Z+19, r1	; 0x13
#if !_FS_READONLY
#if !_FS_TINY
			mem_set(fp->buf, 0, _MAX_SS);	/* Clear sector buffer */
#endif
			if ((mode & FA_SEEKEND) && fp->obj.objsize > 0) {	/* Seek to end of file if FA_OPEN_APPEND is specified */
    3a9a:	75 fe       	sbrs	r7, 5
    3a9c:	6e c0       	rjmp	.+220    	; 0x3b7a <f_open+0x30a>
    3a9e:	81 14       	cp	r8, r1
    3aa0:	91 04       	cpc	r9, r1
    3aa2:	a1 04       	cpc	r10, r1
    3aa4:	b1 04       	cpc	r11, r1
    3aa6:	09 f4       	brne	.+2      	; 0x3aaa <f_open+0x23a>
    3aa8:	68 c0       	rjmp	.+208    	; 0x3b7a <f_open+0x30a>
				fp->fptr = fp->obj.objsize;			/* Offset to seek */
    3aaa:	80 8a       	std	Z+16, r8	; 0x10
    3aac:	91 8a       	std	Z+17, r9	; 0x11
    3aae:	a2 8a       	std	Z+18, r10	; 0x12
    3ab0:	b3 8a       	std	Z+19, r11	; 0x13
				bcs = (DWORD)fs->csize * SS(fs);	/* Cluster size in byte */
    3ab2:	f2 01       	movw	r30, r4
    3ab4:	41 84       	ldd	r4, Z+9	; 0x09
    3ab6:	52 84       	ldd	r5, Z+10	; 0x0a
    3ab8:	61 2c       	mov	r6, r1
    3aba:	71 2c       	mov	r7, r1
    3abc:	03 2e       	mov	r0, r19
    3abe:	39 e0       	ldi	r19, 0x09	; 9
    3ac0:	44 0c       	add	r4, r4
    3ac2:	55 1c       	adc	r5, r5
    3ac4:	66 1c       	adc	r6, r6
    3ac6:	77 1c       	adc	r7, r7
    3ac8:	3a 95       	dec	r19
    3aca:	d1 f7       	brne	.-12     	; 0x3ac0 <f_open+0x250>
    3acc:	30 2d       	mov	r19, r0
				clst = fp->obj.sclust;				/* Follow the cluster chain */
				for (ofs = fp->obj.objsize; res == FR_OK && ofs > bcs; ofs -= bcs) {
    3ace:	1a c0       	rjmp	.+52     	; 0x3b04 <f_open+0x294>
					clst = get_fat(&fp->obj, clst);
    3ad0:	b7 01       	movw	r22, r14
    3ad2:	a6 01       	movw	r20, r12
    3ad4:	c1 01       	movw	r24, r2
    3ad6:	0e 94 2c 15 	call	0x2a58	; 0x2a58 <get_fat>
    3ada:	6b 01       	movw	r12, r22
    3adc:	7c 01       	movw	r14, r24
					if (clst <= 1) res = FR_INT_ERR;
    3ade:	62 30       	cpi	r22, 0x02	; 2
    3ae0:	71 05       	cpc	r23, r1
    3ae2:	81 05       	cpc	r24, r1
    3ae4:	91 05       	cpc	r25, r1
    3ae6:	10 f4       	brcc	.+4      	; 0x3aec <f_open+0x27c>
    3ae8:	02 e0       	ldi	r16, 0x02	; 2
    3aea:	10 e0       	ldi	r17, 0x00	; 0
					if (clst == 0xFFFFFFFF) res = FR_DISK_ERR;
    3aec:	8f ef       	ldi	r24, 0xFF	; 255
    3aee:	c8 16       	cp	r12, r24
    3af0:	d8 06       	cpc	r13, r24
    3af2:	e8 06       	cpc	r14, r24
    3af4:	f8 06       	cpc	r15, r24
    3af6:	11 f4       	brne	.+4      	; 0x3afc <f_open+0x28c>
    3af8:	01 e0       	ldi	r16, 0x01	; 1
    3afa:	10 e0       	ldi	r17, 0x00	; 0
#endif
			if ((mode & FA_SEEKEND) && fp->obj.objsize > 0) {	/* Seek to end of file if FA_OPEN_APPEND is specified */
				fp->fptr = fp->obj.objsize;			/* Offset to seek */
				bcs = (DWORD)fs->csize * SS(fs);	/* Cluster size in byte */
				clst = fp->obj.sclust;				/* Follow the cluster chain */
				for (ofs = fp->obj.objsize; res == FR_OK && ofs > bcs; ofs -= bcs) {
    3afc:	84 18       	sub	r8, r4
    3afe:	95 08       	sbc	r9, r5
    3b00:	a6 08       	sbc	r10, r6
    3b02:	b7 08       	sbc	r11, r7
    3b04:	01 15       	cp	r16, r1
    3b06:	11 05       	cpc	r17, r1
    3b08:	29 f4       	brne	.+10     	; 0x3b14 <f_open+0x2a4>
    3b0a:	48 14       	cp	r4, r8
    3b0c:	59 04       	cpc	r5, r9
    3b0e:	6a 04       	cpc	r6, r10
    3b10:	7b 04       	cpc	r7, r11
    3b12:	f0 f2       	brcs	.-68     	; 0x3ad0 <f_open+0x260>
					clst = get_fat(&fp->obj, clst);
					if (clst <= 1) res = FR_INT_ERR;
					if (clst == 0xFFFFFFFF) res = FR_DISK_ERR;
				}
				fp->clust = clst;
    3b14:	f1 01       	movw	r30, r2
    3b16:	c4 8a       	std	Z+20, r12	; 0x14
    3b18:	d5 8a       	std	Z+21, r13	; 0x15
    3b1a:	e6 8a       	std	Z+22, r14	; 0x16
    3b1c:	f7 8a       	std	Z+23, r15	; 0x17
				if (res == FR_OK && ofs % SS(fs)) {	/* Fill sector buffer if not on the sector boundary */
    3b1e:	01 15       	cp	r16, r1
    3b20:	11 05       	cpc	r17, r1
    3b22:	59 f5       	brne	.+86     	; 0x3b7a <f_open+0x30a>
    3b24:	d5 01       	movw	r26, r10
    3b26:	c4 01       	movw	r24, r8
    3b28:	91 70       	andi	r25, 0x01	; 1
    3b2a:	aa 27       	eor	r26, r26
    3b2c:	bb 27       	eor	r27, r27
    3b2e:	89 2b       	or	r24, r25
    3b30:	8a 2b       	or	r24, r26
    3b32:	8b 2b       	or	r24, r27
    3b34:	11 f1       	breq	.+68     	; 0x3b7a <f_open+0x30a>
					if ((sc = clust2sect(fs, clst)) == 0) {
    3b36:	b7 01       	movw	r22, r14
    3b38:	a6 01       	movw	r20, r12
    3b3a:	89 a5       	ldd	r24, Y+41	; 0x29
    3b3c:	9a a5       	ldd	r25, Y+42	; 0x2a
    3b3e:	0e 94 3b 0e 	call	0x1c76	; 0x1c76 <clust2sect>
    3b42:	61 15       	cp	r22, r1
    3b44:	71 05       	cpc	r23, r1
    3b46:	81 05       	cpc	r24, r1
    3b48:	91 05       	cpc	r25, r1
    3b4a:	a9 f0       	breq	.+42     	; 0x3b76 <f_open+0x306>
						res = FR_INT_ERR;
					} else {
						fp->sect = sc + (DWORD)(ofs / SS(fs));
    3b4c:	07 2e       	mov	r0, r23
    3b4e:	79 e0       	ldi	r23, 0x09	; 9
    3b50:	b6 94       	lsr	r11
    3b52:	a7 94       	ror	r10
    3b54:	97 94       	ror	r9
    3b56:	87 94       	ror	r8
    3b58:	7a 95       	dec	r23
    3b5a:	d1 f7       	brne	.-12     	; 0x3b50 <f_open+0x2e0>
    3b5c:	70 2d       	mov	r23, r0
    3b5e:	dc 01       	movw	r26, r24
    3b60:	cb 01       	movw	r24, r22
    3b62:	88 0d       	add	r24, r8
    3b64:	99 1d       	adc	r25, r9
    3b66:	aa 1d       	adc	r26, r10
    3b68:	bb 1d       	adc	r27, r11
    3b6a:	f1 01       	movw	r30, r2
    3b6c:	80 8f       	std	Z+24, r24	; 0x18
    3b6e:	91 8f       	std	Z+25, r25	; 0x19
    3b70:	a2 8f       	std	Z+26, r26	; 0x1a
    3b72:	b3 8f       	std	Z+27, r27	; 0x1b
    3b74:	02 c0       	rjmp	.+4      	; 0x3b7a <f_open+0x30a>
					if (clst == 0xFFFFFFFF) res = FR_DISK_ERR;
				}
				fp->clust = clst;
				if (res == FR_OK && ofs % SS(fs)) {	/* Fill sector buffer if not on the sector boundary */
					if ((sc = clust2sect(fs, clst)) == 0) {
						res = FR_INT_ERR;
    3b76:	02 e0       	ldi	r16, 0x02	; 2
    3b78:	10 e0       	ldi	r17, 0x00	; 0
		}

		FREE_NAMBUF();
	}

	if (res != FR_OK) fp->obj.fs = 0;	/* Invalidate file object on error */
    3b7a:	01 15       	cp	r16, r1
    3b7c:	11 05       	cpc	r17, r1
    3b7e:	49 f0       	breq	.+18     	; 0x3b92 <f_open+0x322>
    3b80:	f1 01       	movw	r30, r2
    3b82:	11 82       	std	Z+1, r1	; 0x01
    3b84:	10 82       	st	Z, r1

	LEAVE_FF(fs, res);
    3b86:	80 2f       	mov	r24, r16
    3b88:	91 2f       	mov	r25, r17
    3b8a:	05 c0       	rjmp	.+10     	; 0x3b96 <f_open+0x326>
	FSIZE_t ofs;
#endif
	DEF_NAMBUF


	if (!fp) return FR_INVALID_OBJECT;
    3b8c:	89 e0       	ldi	r24, 0x09	; 9
    3b8e:	90 e0       	ldi	r25, 0x00	; 0
    3b90:	02 c0       	rjmp	.+4      	; 0x3b96 <f_open+0x326>
		FREE_NAMBUF();
	}

	if (res != FR_OK) fp->obj.fs = 0;	/* Invalidate file object on error */

	LEAVE_FF(fs, res);
    3b92:	80 2f       	mov	r24, r16
    3b94:	91 2f       	mov	r25, r17
}
    3b96:	ac 96       	adiw	r28, 0x2c	; 44
    3b98:	0f b6       	in	r0, 0x3f	; 63
    3b9a:	f8 94       	cli
    3b9c:	de bf       	out	0x3e, r29	; 62
    3b9e:	0f be       	out	0x3f, r0	; 63
    3ba0:	cd bf       	out	0x3d, r28	; 61
    3ba2:	df 91       	pop	r29
    3ba4:	cf 91       	pop	r28
    3ba6:	1f 91       	pop	r17
    3ba8:	0f 91       	pop	r16
    3baa:	ff 90       	pop	r15
    3bac:	ef 90       	pop	r14
    3bae:	df 90       	pop	r13
    3bb0:	cf 90       	pop	r12
    3bb2:	bf 90       	pop	r11
    3bb4:	af 90       	pop	r10
    3bb6:	9f 90       	pop	r9
    3bb8:	8f 90       	pop	r8
    3bba:	7f 90       	pop	r7
    3bbc:	6f 90       	pop	r6
    3bbe:	5f 90       	pop	r5
    3bc0:	4f 90       	pop	r4
    3bc2:	3f 90       	pop	r3
    3bc4:	2f 90       	pop	r2
    3bc6:	08 95       	ret

00003bc8 <f_read>:
	FIL* fp, 	/* Pointer to the file object */
	void* buff,	/* Pointer to data buffer */
	UINT btr,	/* Number of bytes to read */
	UINT* br	/* Pointer to number of bytes read */
)
{
    3bc8:	2f 92       	push	r2
    3bca:	3f 92       	push	r3
    3bcc:	4f 92       	push	r4
    3bce:	5f 92       	push	r5
    3bd0:	6f 92       	push	r6
    3bd2:	7f 92       	push	r7
    3bd4:	8f 92       	push	r8
    3bd6:	9f 92       	push	r9
    3bd8:	af 92       	push	r10
    3bda:	bf 92       	push	r11
    3bdc:	cf 92       	push	r12
    3bde:	df 92       	push	r13
    3be0:	ef 92       	push	r14
    3be2:	ff 92       	push	r15
    3be4:	0f 93       	push	r16
    3be6:	1f 93       	push	r17
    3be8:	cf 93       	push	r28
    3bea:	df 93       	push	r29
    3bec:	cd b7       	in	r28, 0x3d	; 61
    3bee:	de b7       	in	r29, 0x3e	; 62
    3bf0:	28 97       	sbiw	r28, 0x08	; 8
    3bf2:	0f b6       	in	r0, 0x3f	; 63
    3bf4:	f8 94       	cli
    3bf6:	de bf       	out	0x3e, r29	; 62
    3bf8:	0f be       	out	0x3f, r0	; 63
    3bfa:	cd bf       	out	0x3d, r28	; 61
    3bfc:	7c 01       	movw	r14, r24
    3bfe:	3b 01       	movw	r6, r22
    3c00:	5a 01       	movw	r10, r20
    3c02:	49 01       	movw	r8, r18
	FSIZE_t remain;
	UINT rcnt, cc, csect;
	BYTE *rbuff = (BYTE*)buff;


	*br = 0;	/* Clear read byte counter */
    3c04:	f9 01       	movw	r30, r18
    3c06:	11 82       	std	Z+1, r1	; 0x01
    3c08:	10 82       	st	Z, r1
	res = validate(&fp->obj, &fs);				/* Check validity of the file object */
    3c0a:	8d 83       	std	Y+5, r24	; 0x05
    3c0c:	fe 82       	std	Y+6, r15	; 0x06
    3c0e:	be 01       	movw	r22, r28
    3c10:	6f 5f       	subi	r22, 0xFF	; 255
    3c12:	7f 4f       	sbci	r23, 0xFF	; 255
    3c14:	0e 94 22 10 	call	0x2044	; 0x2044 <validate>
	if (res != FR_OK || (res = (FRESULT)fp->err) != FR_OK) LEAVE_FF(fs, res);	/* Check validity */
    3c18:	00 97       	sbiw	r24, 0x00	; 0
    3c1a:	09 f0       	breq	.+2      	; 0x3c1e <f_read+0x56>
    3c1c:	35 c1       	rjmp	.+618    	; 0x3e88 <f_read+0x2c0>
    3c1e:	f7 01       	movw	r30, r14
    3c20:	27 85       	ldd	r18, Z+15	; 0x0f
    3c22:	30 e0       	ldi	r19, 0x00	; 0
    3c24:	21 15       	cp	r18, r1
    3c26:	31 05       	cpc	r19, r1
    3c28:	09 f0       	breq	.+2      	; 0x3c2c <f_read+0x64>
    3c2a:	29 c1       	rjmp	.+594    	; 0x3e7e <f_read+0x2b6>
	if (!(fp->flag & FA_READ)) LEAVE_FF(fs, FR_DENIED); /* Check access mode */
    3c2c:	86 85       	ldd	r24, Z+14	; 0x0e
    3c2e:	80 ff       	sbrs	r24, 0
    3c30:	29 c1       	rjmp	.+594    	; 0x3e84 <f_read+0x2bc>
	remain = fp->obj.objsize - fp->fptr;
    3c32:	82 85       	ldd	r24, Z+10	; 0x0a
    3c34:	93 85       	ldd	r25, Z+11	; 0x0b
    3c36:	a4 85       	ldd	r26, Z+12	; 0x0c
    3c38:	b5 85       	ldd	r27, Z+13	; 0x0d
    3c3a:	40 89       	ldd	r20, Z+16	; 0x10
    3c3c:	51 89       	ldd	r21, Z+17	; 0x11
    3c3e:	62 89       	ldd	r22, Z+18	; 0x12
    3c40:	73 89       	ldd	r23, Z+19	; 0x13
    3c42:	84 1b       	sub	r24, r20
    3c44:	95 0b       	sbc	r25, r21
    3c46:	a6 0b       	sbc	r26, r22
    3c48:	b7 0b       	sbc	r27, r23
	if (btr > remain) btr = (UINT)remain;		/* Truncate btr by remaining bytes */
    3c4a:	a5 01       	movw	r20, r10
    3c4c:	60 e0       	ldi	r22, 0x00	; 0
    3c4e:	70 e0       	ldi	r23, 0x00	; 0
    3c50:	84 17       	cp	r24, r20
    3c52:	95 07       	cpc	r25, r21
    3c54:	a6 07       	cpc	r26, r22
    3c56:	b7 07       	cpc	r27, r23
    3c58:	08 f0       	brcs	.+2      	; 0x3c5c <f_read+0x94>
    3c5a:	0a c1       	rjmp	.+532    	; 0x3e70 <f_read+0x2a8>
    3c5c:	5c 01       	movw	r10, r24
    3c5e:	08 c1       	rjmp	.+528    	; 0x3e70 <f_read+0x2a8>

	for ( ;  btr;								/* Repeat until all data read */
		rbuff += rcnt, fp->fptr += rcnt, *br += rcnt, btr -= rcnt) {
		if (fp->fptr % SS(fs) == 0) {			/* On the sector boundary? */
    3c60:	f7 01       	movw	r30, r14
    3c62:	80 89       	ldd	r24, Z+16	; 0x10
    3c64:	91 89       	ldd	r25, Z+17	; 0x11
    3c66:	a2 89       	ldd	r26, Z+18	; 0x12
    3c68:	b3 89       	ldd	r27, Z+19	; 0x13
    3c6a:	ac 01       	movw	r20, r24
    3c6c:	bd 01       	movw	r22, r26
    3c6e:	51 70       	andi	r21, 0x01	; 1
    3c70:	66 27       	eor	r22, r22
    3c72:	77 27       	eor	r23, r23
    3c74:	45 2b       	or	r20, r21
    3c76:	46 2b       	or	r20, r22
    3c78:	47 2b       	or	r20, r23
    3c7a:	09 f0       	breq	.+2      	; 0x3c7e <f_read+0xb6>
    3c7c:	b0 c0       	rjmp	.+352    	; 0x3dde <f_read+0x216>
			csect = (UINT)(fp->fptr / SS(fs) & (fs->csize - 1));	/* Sector offset in the cluster */
    3c7e:	e9 81       	ldd	r30, Y+1	; 0x01
    3c80:	fa 81       	ldd	r31, Y+2	; 0x02
    3c82:	01 85       	ldd	r16, Z+9	; 0x09
    3c84:	12 85       	ldd	r17, Z+10	; 0x0a
    3c86:	01 50       	subi	r16, 0x01	; 1
    3c88:	11 09       	sbc	r17, r1
    3c8a:	ac 01       	movw	r20, r24
    3c8c:	bd 01       	movw	r22, r26
    3c8e:	03 2e       	mov	r0, r19
    3c90:	39 e0       	ldi	r19, 0x09	; 9
    3c92:	76 95       	lsr	r23
    3c94:	67 95       	ror	r22
    3c96:	57 95       	ror	r21
    3c98:	47 95       	ror	r20
    3c9a:	3a 95       	dec	r19
    3c9c:	d1 f7       	brne	.-12     	; 0x3c92 <f_read+0xca>
    3c9e:	30 2d       	mov	r19, r0
    3ca0:	04 23       	and	r16, r20
    3ca2:	15 23       	and	r17, r21
			if (csect == 0) {					/* On the cluster boundary? */
    3ca4:	01 15       	cp	r16, r1
    3ca6:	11 05       	cpc	r17, r1
    3ca8:	69 f5       	brne	.+90     	; 0x3d04 <f_read+0x13c>
				if (fp->fptr == 0) {			/* On the top of the file? */
    3caa:	89 2b       	or	r24, r25
    3cac:	8a 2b       	or	r24, r26
    3cae:	8b 2b       	or	r24, r27
    3cb0:	31 f4       	brne	.+12     	; 0x3cbe <f_read+0xf6>
					clst = fp->obj.sclust;		/* Follow cluster chain from the origin */
    3cb2:	f7 01       	movw	r30, r14
    3cb4:	66 81       	ldd	r22, Z+6	; 0x06
    3cb6:	77 81       	ldd	r23, Z+7	; 0x07
    3cb8:	80 85       	ldd	r24, Z+8	; 0x08
    3cba:	91 85       	ldd	r25, Z+9	; 0x09
    3cbc:	09 c0       	rjmp	.+18     	; 0x3cd0 <f_read+0x108>
					if (fp->cltbl) {
						clst = clmt_clust(fp, fp->fptr);	/* Get cluster# from the CLMT */
					} else
#endif
					{
						clst = get_fat(&fp->obj, fp->clust);	/* Follow cluster chain on the FAT */
    3cbe:	f7 01       	movw	r30, r14
    3cc0:	44 89       	ldd	r20, Z+20	; 0x14
    3cc2:	55 89       	ldd	r21, Z+21	; 0x15
    3cc4:	66 89       	ldd	r22, Z+22	; 0x16
    3cc6:	77 89       	ldd	r23, Z+23	; 0x17
    3cc8:	8d 81       	ldd	r24, Y+5	; 0x05
    3cca:	9e 81       	ldd	r25, Y+6	; 0x06
    3ccc:	0e 94 2c 15 	call	0x2a58	; 0x2a58 <get_fat>
					}
				}
				if (clst < 2) ABORT(fs, FR_INT_ERR);
    3cd0:	62 30       	cpi	r22, 0x02	; 2
    3cd2:	71 05       	cpc	r23, r1
    3cd4:	81 05       	cpc	r24, r1
    3cd6:	91 05       	cpc	r25, r1
    3cd8:	28 f4       	brcc	.+10     	; 0x3ce4 <f_read+0x11c>
    3cda:	82 e0       	ldi	r24, 0x02	; 2
    3cdc:	f7 01       	movw	r30, r14
    3cde:	87 87       	std	Z+15, r24	; 0x0f
    3ce0:	90 e0       	ldi	r25, 0x00	; 0
    3ce2:	d2 c0       	rjmp	.+420    	; 0x3e88 <f_read+0x2c0>
				if (clst == 0xFFFFFFFF) ABORT(fs, FR_DISK_ERR);
    3ce4:	6f 3f       	cpi	r22, 0xFF	; 255
    3ce6:	ff ef       	ldi	r31, 0xFF	; 255
    3ce8:	7f 07       	cpc	r23, r31
    3cea:	8f 07       	cpc	r24, r31
    3cec:	9f 07       	cpc	r25, r31
    3cee:	29 f4       	brne	.+10     	; 0x3cfa <f_read+0x132>
    3cf0:	81 e0       	ldi	r24, 0x01	; 1
    3cf2:	f7 01       	movw	r30, r14
    3cf4:	87 87       	std	Z+15, r24	; 0x0f
    3cf6:	90 e0       	ldi	r25, 0x00	; 0
    3cf8:	c7 c0       	rjmp	.+398    	; 0x3e88 <f_read+0x2c0>
				fp->clust = clst;				/* Update current cluster */
    3cfa:	f7 01       	movw	r30, r14
    3cfc:	64 8b       	std	Z+20, r22	; 0x14
    3cfe:	75 8b       	std	Z+21, r23	; 0x15
    3d00:	86 8b       	std	Z+22, r24	; 0x16
    3d02:	97 8b       	std	Z+23, r25	; 0x17
			}
			sect = clust2sect(fs, fp->clust);	/* Get current sector */
    3d04:	f7 01       	movw	r30, r14
    3d06:	44 89       	ldd	r20, Z+20	; 0x14
    3d08:	55 89       	ldd	r21, Z+21	; 0x15
    3d0a:	66 89       	ldd	r22, Z+22	; 0x16
    3d0c:	77 89       	ldd	r23, Z+23	; 0x17
    3d0e:	89 81       	ldd	r24, Y+1	; 0x01
    3d10:	9a 81       	ldd	r25, Y+2	; 0x02
    3d12:	9c 83       	std	Y+4, r25	; 0x04
    3d14:	8b 83       	std	Y+3, r24	; 0x03
    3d16:	0e 94 3b 0e 	call	0x1c76	; 0x1c76 <clust2sect>
			if (!sect) ABORT(fs, FR_INT_ERR);
    3d1a:	61 15       	cp	r22, r1
    3d1c:	71 05       	cpc	r23, r1
    3d1e:	81 05       	cpc	r24, r1
    3d20:	91 05       	cpc	r25, r1
    3d22:	29 f4       	brne	.+10     	; 0x3d2e <f_read+0x166>
    3d24:	82 e0       	ldi	r24, 0x02	; 2
    3d26:	f7 01       	movw	r30, r14
    3d28:	87 87       	std	Z+15, r24	; 0x0f
    3d2a:	90 e0       	ldi	r25, 0x00	; 0
    3d2c:	ad c0       	rjmp	.+346    	; 0x3e88 <f_read+0x2c0>
			sect += csect;
    3d2e:	1b 01       	movw	r2, r22
    3d30:	2c 01       	movw	r4, r24
    3d32:	20 0e       	add	r2, r16
    3d34:	31 1e       	adc	r3, r17
    3d36:	41 1c       	adc	r4, r1
    3d38:	51 1c       	adc	r5, r1
			cc = btr / SS(fs);					/* When remaining bytes >= sector size, */
    3d3a:	65 01       	movw	r12, r10
    3d3c:	cd 2c       	mov	r12, r13
    3d3e:	dd 24       	eor	r13, r13
    3d40:	c6 94       	lsr	r12
			if (cc) {							/* Read maximum contiguous sectors directly */
    3d42:	c1 14       	cp	r12, r1
    3d44:	d1 04       	cpc	r13, r1
    3d46:	09 f4       	brne	.+2      	; 0x3d4a <f_read+0x182>
    3d48:	45 c0       	rjmp	.+138    	; 0x3dd4 <f_read+0x20c>
				if (csect + cc > fs->csize) {	/* Clip at cluster boundary */
    3d4a:	eb 81       	ldd	r30, Y+3	; 0x03
    3d4c:	fc 81       	ldd	r31, Y+4	; 0x04
    3d4e:	21 85       	ldd	r18, Z+9	; 0x09
    3d50:	32 85       	ldd	r19, Z+10	; 0x0a
    3d52:	c8 01       	movw	r24, r16
    3d54:	8c 0d       	add	r24, r12
    3d56:	9d 1d       	adc	r25, r13
    3d58:	28 17       	cp	r18, r24
    3d5a:	39 07       	cpc	r19, r25
    3d5c:	18 f4       	brcc	.+6      	; 0x3d64 <f_read+0x19c>
					cc = fs->csize - csect;
    3d5e:	69 01       	movw	r12, r18
    3d60:	c0 1a       	sub	r12, r16
    3d62:	d1 0a       	sbc	r13, r17
				}
				if (disk_read(fs->drv, rbuff, sect, cc) != RES_OK) ABORT(fs, FR_DISK_ERR);
    3d64:	86 01       	movw	r16, r12
    3d66:	a2 01       	movw	r20, r4
    3d68:	91 01       	movw	r18, r2
    3d6a:	b3 01       	movw	r22, r6
    3d6c:	eb 81       	ldd	r30, Y+3	; 0x03
    3d6e:	fc 81       	ldd	r31, Y+4	; 0x04
    3d70:	81 81       	ldd	r24, Z+1	; 0x01
    3d72:	0e 94 9c 0d 	call	0x1b38	; 0x1b38 <disk_read>
    3d76:	89 2b       	or	r24, r25
    3d78:	29 f0       	breq	.+10     	; 0x3d84 <f_read+0x1bc>
    3d7a:	81 e0       	ldi	r24, 0x01	; 1
    3d7c:	f7 01       	movw	r30, r14
    3d7e:	87 87       	std	Z+15, r24	; 0x0f
    3d80:	90 e0       	ldi	r25, 0x00	; 0
    3d82:	82 c0       	rjmp	.+260    	; 0x3e88 <f_read+0x2c0>
#if !_FS_READONLY && _FS_MINIMIZE <= 2			/* Replace one of the read sectors with cached data if it contains a dirty sector */
#if _FS_TINY
				if (fs->wflag && fs->winsect - sect < cc) {
    3d84:	e9 81       	ldd	r30, Y+1	; 0x01
    3d86:	fa 81       	ldd	r31, Y+2	; 0x02
    3d88:	83 81       	ldd	r24, Z+3	; 0x03
    3d8a:	88 23       	and	r24, r24
    3d8c:	f9 f0       	breq	.+62     	; 0x3dcc <f_read+0x204>
    3d8e:	87 a5       	ldd	r24, Z+47	; 0x2f
    3d90:	90 a9       	ldd	r25, Z+48	; 0x30
    3d92:	a1 a9       	ldd	r26, Z+49	; 0x31
    3d94:	b2 a9       	ldd	r27, Z+50	; 0x32
    3d96:	82 19       	sub	r24, r2
    3d98:	93 09       	sbc	r25, r3
    3d9a:	a4 09       	sbc	r26, r4
    3d9c:	b5 09       	sbc	r27, r5
    3d9e:	a6 01       	movw	r20, r12
    3da0:	60 e0       	ldi	r22, 0x00	; 0
    3da2:	70 e0       	ldi	r23, 0x00	; 0
    3da4:	84 17       	cp	r24, r20
    3da6:	95 07       	cpc	r25, r21
    3da8:	a6 07       	cpc	r26, r22
    3daa:	b7 07       	cpc	r27, r23
    3dac:	78 f4       	brcc	.+30     	; 0x3dcc <f_read+0x204>
					mem_cpy(rbuff + ((fs->winsect - sect) * SS(fs)), fs->win, SS(fs));
    3dae:	bf 01       	movw	r22, r30
    3db0:	6d 5c       	subi	r22, 0xCD	; 205
    3db2:	7f 4f       	sbci	r23, 0xFF	; 255
    3db4:	f8 2f       	mov	r31, r24
    3db6:	ff 0f       	add	r31, r31
    3db8:	f8 87       	std	Y+8, r31	; 0x08
    3dba:	1f 82       	std	Y+7, r1	; 0x07
    3dbc:	40 e0       	ldi	r20, 0x00	; 0
    3dbe:	52 e0       	ldi	r21, 0x02	; 2
    3dc0:	8f 81       	ldd	r24, Y+7	; 0x07
    3dc2:	98 85       	ldd	r25, Y+8	; 0x08
    3dc4:	86 0d       	add	r24, r6
    3dc6:	97 1d       	adc	r25, r7
    3dc8:	0e 94 fa 0d 	call	0x1bf4	; 0x1bf4 <mem_cpy>
				if ((fp->flag & FA_DIRTY) && fp->sect - sect < cc) {
					mem_cpy(rbuff + ((fp->sect - sect) * SS(fs)), fp->buf, SS(fs));
				}
#endif
#endif
				rcnt = SS(fs) * cc;				/* Number of bytes transferred */
    3dcc:	dc 2c       	mov	r13, r12
    3dce:	cc 24       	eor	r12, r12
    3dd0:	dd 0c       	add	r13, r13
				continue;
    3dd2:	36 c0       	rjmp	.+108    	; 0x3e40 <f_read+0x278>
				}
#endif
				if (disk_read(fs->drv, fp->buf, sect, 1) != RES_OK)	ABORT(fs, FR_DISK_ERR);	/* Fill sector cache */
			}
#endif
			fp->sect = sect;
    3dd4:	f7 01       	movw	r30, r14
    3dd6:	20 8e       	std	Z+24, r2	; 0x18
    3dd8:	31 8e       	std	Z+25, r3	; 0x19
    3dda:	42 8e       	std	Z+26, r4	; 0x1a
    3ddc:	53 8e       	std	Z+27, r5	; 0x1b
		}
		rcnt = SS(fs) - (UINT)fp->fptr % SS(fs);	/* Number of bytes left in the sector */
    3dde:	f7 01       	movw	r30, r14
    3de0:	80 89       	ldd	r24, Z+16	; 0x10
    3de2:	91 89       	ldd	r25, Z+17	; 0x11
    3de4:	a2 89       	ldd	r26, Z+18	; 0x12
    3de6:	b3 89       	ldd	r27, Z+19	; 0x13
    3de8:	91 70       	andi	r25, 0x01	; 1
    3dea:	20 e0       	ldi	r18, 0x00	; 0
    3dec:	32 e0       	ldi	r19, 0x02	; 2
    3dee:	69 01       	movw	r12, r18
    3df0:	c8 1a       	sub	r12, r24
    3df2:	d9 0a       	sbc	r13, r25
		if (rcnt > btr) rcnt = btr;					/* Clip it by btr if needed */
    3df4:	ac 14       	cp	r10, r12
    3df6:	bd 04       	cpc	r11, r13
    3df8:	08 f4       	brcc	.+2      	; 0x3dfc <f_read+0x234>
    3dfa:	65 01       	movw	r12, r10
#if _FS_TINY
		if (move_window(fs, fp->sect) != FR_OK) ABORT(fs, FR_DISK_ERR);	/* Move sector window */
    3dfc:	f7 01       	movw	r30, r14
    3dfe:	40 8d       	ldd	r20, Z+24	; 0x18
    3e00:	51 8d       	ldd	r21, Z+25	; 0x19
    3e02:	62 8d       	ldd	r22, Z+26	; 0x1a
    3e04:	73 8d       	ldd	r23, Z+27	; 0x1b
    3e06:	89 81       	ldd	r24, Y+1	; 0x01
    3e08:	9a 81       	ldd	r25, Y+2	; 0x02
    3e0a:	0e 94 b6 10 	call	0x216c	; 0x216c <move_window>
    3e0e:	89 2b       	or	r24, r25
    3e10:	29 f0       	breq	.+10     	; 0x3e1c <f_read+0x254>
    3e12:	81 e0       	ldi	r24, 0x01	; 1
    3e14:	f7 01       	movw	r30, r14
    3e16:	87 87       	std	Z+15, r24	; 0x0f
    3e18:	90 e0       	ldi	r25, 0x00	; 0
    3e1a:	36 c0       	rjmp	.+108    	; 0x3e88 <f_read+0x2c0>
		mem_cpy(rbuff, fs->win + fp->fptr % SS(fs), rcnt);	/* Extract partial sector */
    3e1c:	89 81       	ldd	r24, Y+1	; 0x01
    3e1e:	9a 81       	ldd	r25, Y+2	; 0x02
    3e20:	9c 01       	movw	r18, r24
    3e22:	2d 5c       	subi	r18, 0xCD	; 205
    3e24:	3f 4f       	sbci	r19, 0xFF	; 255
    3e26:	f7 01       	movw	r30, r14
    3e28:	80 89       	ldd	r24, Z+16	; 0x10
    3e2a:	91 89       	ldd	r25, Z+17	; 0x11
    3e2c:	a2 89       	ldd	r26, Z+18	; 0x12
    3e2e:	b3 89       	ldd	r27, Z+19	; 0x13
    3e30:	91 70       	andi	r25, 0x01	; 1
    3e32:	b9 01       	movw	r22, r18
    3e34:	68 0f       	add	r22, r24
    3e36:	79 1f       	adc	r23, r25
    3e38:	a6 01       	movw	r20, r12
    3e3a:	c3 01       	movw	r24, r6
    3e3c:	0e 94 fa 0d 	call	0x1bf4	; 0x1bf4 <mem_cpy>
	if (!(fp->flag & FA_READ)) LEAVE_FF(fs, FR_DENIED); /* Check access mode */
	remain = fp->obj.objsize - fp->fptr;
	if (btr > remain) btr = (UINT)remain;		/* Truncate btr by remaining bytes */

	for ( ;  btr;								/* Repeat until all data read */
		rbuff += rcnt, fp->fptr += rcnt, *br += rcnt, btr -= rcnt) {
    3e40:	6c 0c       	add	r6, r12
    3e42:	7d 1c       	adc	r7, r13
    3e44:	f7 01       	movw	r30, r14
    3e46:	80 89       	ldd	r24, Z+16	; 0x10
    3e48:	91 89       	ldd	r25, Z+17	; 0x11
    3e4a:	a2 89       	ldd	r26, Z+18	; 0x12
    3e4c:	b3 89       	ldd	r27, Z+19	; 0x13
    3e4e:	8c 0d       	add	r24, r12
    3e50:	9d 1d       	adc	r25, r13
    3e52:	a1 1d       	adc	r26, r1
    3e54:	b1 1d       	adc	r27, r1
    3e56:	80 8b       	std	Z+16, r24	; 0x10
    3e58:	91 8b       	std	Z+17, r25	; 0x11
    3e5a:	a2 8b       	std	Z+18, r26	; 0x12
    3e5c:	b3 8b       	std	Z+19, r27	; 0x13
    3e5e:	f4 01       	movw	r30, r8
    3e60:	80 81       	ld	r24, Z
    3e62:	91 81       	ldd	r25, Z+1	; 0x01
    3e64:	8c 0d       	add	r24, r12
    3e66:	9d 1d       	adc	r25, r13
    3e68:	91 83       	std	Z+1, r25	; 0x01
    3e6a:	80 83       	st	Z, r24
    3e6c:	ac 18       	sub	r10, r12
    3e6e:	bd 08       	sbc	r11, r13
	if (res != FR_OK || (res = (FRESULT)fp->err) != FR_OK) LEAVE_FF(fs, res);	/* Check validity */
	if (!(fp->flag & FA_READ)) LEAVE_FF(fs, FR_DENIED); /* Check access mode */
	remain = fp->obj.objsize - fp->fptr;
	if (btr > remain) btr = (UINT)remain;		/* Truncate btr by remaining bytes */

	for ( ;  btr;								/* Repeat until all data read */
    3e70:	a1 14       	cp	r10, r1
    3e72:	b1 04       	cpc	r11, r1
    3e74:	09 f0       	breq	.+2      	; 0x3e78 <f_read+0x2b0>
    3e76:	f4 ce       	rjmp	.-536    	; 0x3c60 <f_read+0x98>
#else
		mem_cpy(rbuff, fp->buf + fp->fptr % SS(fs), rcnt);	/* Extract partial sector */
#endif
	}

	LEAVE_FF(fs, FR_OK);
    3e78:	80 e0       	ldi	r24, 0x00	; 0
    3e7a:	90 e0       	ldi	r25, 0x00	; 0
    3e7c:	05 c0       	rjmp	.+10     	; 0x3e88 <f_read+0x2c0>
	BYTE *rbuff = (BYTE*)buff;


	*br = 0;	/* Clear read byte counter */
	res = validate(&fp->obj, &fs);				/* Check validity of the file object */
	if (res != FR_OK || (res = (FRESULT)fp->err) != FR_OK) LEAVE_FF(fs, res);	/* Check validity */
    3e7e:	82 2f       	mov	r24, r18
    3e80:	93 2f       	mov	r25, r19
    3e82:	02 c0       	rjmp	.+4      	; 0x3e88 <f_read+0x2c0>
	if (!(fp->flag & FA_READ)) LEAVE_FF(fs, FR_DENIED); /* Check access mode */
    3e84:	87 e0       	ldi	r24, 0x07	; 7
    3e86:	90 e0       	ldi	r25, 0x00	; 0
		mem_cpy(rbuff, fp->buf + fp->fptr % SS(fs), rcnt);	/* Extract partial sector */
#endif
	}

	LEAVE_FF(fs, FR_OK);
}
    3e88:	28 96       	adiw	r28, 0x08	; 8
    3e8a:	0f b6       	in	r0, 0x3f	; 63
    3e8c:	f8 94       	cli
    3e8e:	de bf       	out	0x3e, r29	; 62
    3e90:	0f be       	out	0x3f, r0	; 63
    3e92:	cd bf       	out	0x3d, r28	; 61
    3e94:	df 91       	pop	r29
    3e96:	cf 91       	pop	r28
    3e98:	1f 91       	pop	r17
    3e9a:	0f 91       	pop	r16
    3e9c:	ff 90       	pop	r15
    3e9e:	ef 90       	pop	r14
    3ea0:	df 90       	pop	r13
    3ea2:	cf 90       	pop	r12
    3ea4:	bf 90       	pop	r11
    3ea6:	af 90       	pop	r10
    3ea8:	9f 90       	pop	r9
    3eaa:	8f 90       	pop	r8
    3eac:	7f 90       	pop	r7
    3eae:	6f 90       	pop	r6
    3eb0:	5f 90       	pop	r5
    3eb2:	4f 90       	pop	r4
    3eb4:	3f 90       	pop	r3
    3eb6:	2f 90       	pop	r2
    3eb8:	08 95       	ret

00003eba <f_write>:
	FIL* fp,			/* Pointer to the file object */
	const void* buff,	/* Pointer to the data to be written */
	UINT btw,			/* Number of bytes to write */
	UINT* bw			/* Pointer to number of bytes written */
)
{
    3eba:	2f 92       	push	r2
    3ebc:	3f 92       	push	r3
    3ebe:	4f 92       	push	r4
    3ec0:	5f 92       	push	r5
    3ec2:	6f 92       	push	r6
    3ec4:	7f 92       	push	r7
    3ec6:	8f 92       	push	r8
    3ec8:	9f 92       	push	r9
    3eca:	af 92       	push	r10
    3ecc:	bf 92       	push	r11
    3ece:	cf 92       	push	r12
    3ed0:	df 92       	push	r13
    3ed2:	ef 92       	push	r14
    3ed4:	ff 92       	push	r15
    3ed6:	0f 93       	push	r16
    3ed8:	1f 93       	push	r17
    3eda:	cf 93       	push	r28
    3edc:	df 93       	push	r29
    3ede:	cd b7       	in	r28, 0x3d	; 61
    3ee0:	de b7       	in	r29, 0x3e	; 62
    3ee2:	28 97       	sbiw	r28, 0x08	; 8
    3ee4:	0f b6       	in	r0, 0x3f	; 63
    3ee6:	f8 94       	cli
    3ee8:	de bf       	out	0x3e, r29	; 62
    3eea:	0f be       	out	0x3f, r0	; 63
    3eec:	cd bf       	out	0x3d, r28	; 61
    3eee:	7c 01       	movw	r14, r24
    3ef0:	3b 01       	movw	r6, r22
    3ef2:	5a 01       	movw	r10, r20
    3ef4:	49 01       	movw	r8, r18
	DWORD clst, sect;
	UINT wcnt, cc, csect;
	const BYTE *wbuff = (const BYTE*)buff;


	*bw = 0;	/* Clear write byte counter */
    3ef6:	f9 01       	movw	r30, r18
    3ef8:	11 82       	std	Z+1, r1	; 0x01
    3efa:	10 82       	st	Z, r1
	res = validate(&fp->obj, &fs);			/* Check validity of the file object */
    3efc:	8d 83       	std	Y+5, r24	; 0x05
    3efe:	fe 82       	std	Y+6, r15	; 0x06
    3f00:	be 01       	movw	r22, r28
    3f02:	6f 5f       	subi	r22, 0xFF	; 255
    3f04:	7f 4f       	sbci	r23, 0xFF	; 255
    3f06:	0e 94 22 10 	call	0x2044	; 0x2044 <validate>
	if (res != FR_OK || (res = (FRESULT)fp->err) != FR_OK) LEAVE_FF(fs, res);	/* Check validity */
    3f0a:	00 97       	sbiw	r24, 0x00	; 0
    3f0c:	09 f0       	breq	.+2      	; 0x3f10 <f_write+0x56>
    3f0e:	a1 c1       	rjmp	.+834    	; 0x4252 <f_write+0x398>
    3f10:	f7 01       	movw	r30, r14
    3f12:	27 85       	ldd	r18, Z+15	; 0x0f
    3f14:	30 e0       	ldi	r19, 0x00	; 0
    3f16:	21 15       	cp	r18, r1
    3f18:	31 05       	cpc	r19, r1
    3f1a:	09 f0       	breq	.+2      	; 0x3f1e <f_write+0x64>
    3f1c:	95 c1       	rjmp	.+810    	; 0x4248 <f_write+0x38e>
	if (!(fp->flag & FA_WRITE)) LEAVE_FF(fs, FR_DENIED);	/* Check access mode */
    3f1e:	86 85       	ldd	r24, Z+14	; 0x0e
    3f20:	81 ff       	sbrs	r24, 1
    3f22:	95 c1       	rjmp	.+810    	; 0x424e <f_write+0x394>

	/* Check fptr wrap-around (file size cannot reach 4GiB on FATxx) */
	if ((!_FS_EXFAT || fs->fs_type != FS_EXFAT) && (DWORD)(fp->fptr + btw) < (DWORD)fp->fptr) {
    3f24:	80 89       	ldd	r24, Z+16	; 0x10
    3f26:	91 89       	ldd	r25, Z+17	; 0x11
    3f28:	a2 89       	ldd	r26, Z+18	; 0x12
    3f2a:	b3 89       	ldd	r27, Z+19	; 0x13
    3f2c:	ac 01       	movw	r20, r24
    3f2e:	bd 01       	movw	r22, r26
    3f30:	4a 0d       	add	r20, r10
    3f32:	5b 1d       	adc	r21, r11
    3f34:	61 1d       	adc	r22, r1
    3f36:	71 1d       	adc	r23, r1
    3f38:	48 17       	cp	r20, r24
    3f3a:	59 07       	cpc	r21, r25
    3f3c:	6a 07       	cpc	r22, r26
    3f3e:	7b 07       	cpc	r23, r27
    3f40:	08 f0       	brcs	.+2      	; 0x3f44 <f_write+0x8a>
    3f42:	77 c1       	rjmp	.+750    	; 0x4232 <f_write+0x378>
		btw = (UINT)(0xFFFFFFFF - (DWORD)fp->fptr);
    3f44:	5c 01       	movw	r10, r24
    3f46:	a0 94       	com	r10
    3f48:	b0 94       	com	r11
    3f4a:	73 c1       	rjmp	.+742    	; 0x4232 <f_write+0x378>
	}

	for ( ;  btw;							/* Repeat until all data written */
		wbuff += wcnt, fp->fptr += wcnt, fp->obj.objsize = (fp->fptr > fp->obj.objsize) ? fp->fptr : fp->obj.objsize, *bw += wcnt, btw -= wcnt) {
		if (fp->fptr % SS(fs) == 0) {		/* On the sector boundary? */
    3f4c:	f7 01       	movw	r30, r14
    3f4e:	80 89       	ldd	r24, Z+16	; 0x10
    3f50:	91 89       	ldd	r25, Z+17	; 0x11
    3f52:	a2 89       	ldd	r26, Z+18	; 0x12
    3f54:	b3 89       	ldd	r27, Z+19	; 0x13
    3f56:	ac 01       	movw	r20, r24
    3f58:	bd 01       	movw	r22, r26
    3f5a:	51 70       	andi	r21, 0x01	; 1
    3f5c:	66 27       	eor	r22, r22
    3f5e:	77 27       	eor	r23, r23
    3f60:	45 2b       	or	r20, r21
    3f62:	46 2b       	or	r20, r22
    3f64:	47 2b       	or	r20, r23
    3f66:	09 f0       	breq	.+2      	; 0x3f6a <f_write+0xb0>
    3f68:	08 c1       	rjmp	.+528    	; 0x417a <f_write+0x2c0>
			csect = (UINT)(fp->fptr / SS(fs)) & (fs->csize - 1);	/* Sector offset in the cluster */
    3f6a:	e9 81       	ldd	r30, Y+1	; 0x01
    3f6c:	fa 81       	ldd	r31, Y+2	; 0x02
    3f6e:	01 85       	ldd	r16, Z+9	; 0x09
    3f70:	12 85       	ldd	r17, Z+10	; 0x0a
    3f72:	01 50       	subi	r16, 0x01	; 1
    3f74:	11 09       	sbc	r17, r1
    3f76:	ac 01       	movw	r20, r24
    3f78:	bd 01       	movw	r22, r26
    3f7a:	03 2e       	mov	r0, r19
    3f7c:	39 e0       	ldi	r19, 0x09	; 9
    3f7e:	76 95       	lsr	r23
    3f80:	67 95       	ror	r22
    3f82:	57 95       	ror	r21
    3f84:	47 95       	ror	r20
    3f86:	3a 95       	dec	r19
    3f88:	d1 f7       	brne	.-12     	; 0x3f7e <f_write+0xc4>
    3f8a:	30 2d       	mov	r19, r0
    3f8c:	04 23       	and	r16, r20
    3f8e:	15 23       	and	r17, r21
			if (csect == 0) {				/* On the cluster boundary? */
    3f90:	01 15       	cp	r16, r1
    3f92:	11 05       	cpc	r17, r1
    3f94:	09 f0       	breq	.+2      	; 0x3f98 <f_write+0xde>
    3f96:	4b c0       	rjmp	.+150    	; 0x402e <f_write+0x174>
				if (fp->fptr == 0) {		/* On the top of the file? */
    3f98:	89 2b       	or	r24, r25
    3f9a:	8a 2b       	or	r24, r26
    3f9c:	8b 2b       	or	r24, r27
    3f9e:	91 f4       	brne	.+36     	; 0x3fc4 <f_write+0x10a>
					clst = fp->obj.sclust;	/* Follow from the origin */
    3fa0:	f7 01       	movw	r30, r14
    3fa2:	66 81       	ldd	r22, Z+6	; 0x06
    3fa4:	77 81       	ldd	r23, Z+7	; 0x07
    3fa6:	80 85       	ldd	r24, Z+8	; 0x08
    3fa8:	91 85       	ldd	r25, Z+9	; 0x09
					if (clst == 0) {		/* If no cluster is allocated, */
    3faa:	61 15       	cp	r22, r1
    3fac:	71 05       	cpc	r23, r1
    3fae:	81 05       	cpc	r24, r1
    3fb0:	91 05       	cpc	r25, r1
    3fb2:	89 f4       	brne	.+34     	; 0x3fd6 <f_write+0x11c>
						clst = create_chain(&fp->obj, 0);	/* create a new cluster chain */
    3fb4:	40 e0       	ldi	r20, 0x00	; 0
    3fb6:	50 e0       	ldi	r21, 0x00	; 0
    3fb8:	ba 01       	movw	r22, r20
    3fba:	8d 81       	ldd	r24, Y+5	; 0x05
    3fbc:	9e 81       	ldd	r25, Y+6	; 0x06
    3fbe:	0e 94 f9 16 	call	0x2df2	; 0x2df2 <create_chain>
    3fc2:	09 c0       	rjmp	.+18     	; 0x3fd6 <f_write+0x11c>
					if (fp->cltbl) {
						clst = clmt_clust(fp, fp->fptr);	/* Get cluster# from the CLMT */
					} else
#endif
					{
						clst = create_chain(&fp->obj, fp->clust);	/* Follow or stretch cluster chain on the FAT */
    3fc4:	f7 01       	movw	r30, r14
    3fc6:	44 89       	ldd	r20, Z+20	; 0x14
    3fc8:	55 89       	ldd	r21, Z+21	; 0x15
    3fca:	66 89       	ldd	r22, Z+22	; 0x16
    3fcc:	77 89       	ldd	r23, Z+23	; 0x17
    3fce:	8d 81       	ldd	r24, Y+5	; 0x05
    3fd0:	9e 81       	ldd	r25, Y+6	; 0x06
    3fd2:	0e 94 f9 16 	call	0x2df2	; 0x2df2 <create_chain>
					}
				}
				if (clst == 0) break;		/* Could not allocate a new cluster (disk full) */
    3fd6:	61 15       	cp	r22, r1
    3fd8:	71 05       	cpc	r23, r1
    3fda:	81 05       	cpc	r24, r1
    3fdc:	91 05       	cpc	r25, r1
    3fde:	09 f4       	brne	.+2      	; 0x3fe2 <f_write+0x128>
    3fe0:	2c c1       	rjmp	.+600    	; 0x423a <f_write+0x380>
				if (clst == 1) ABORT(fs, FR_INT_ERR);
    3fe2:	61 30       	cpi	r22, 0x01	; 1
    3fe4:	71 05       	cpc	r23, r1
    3fe6:	81 05       	cpc	r24, r1
    3fe8:	91 05       	cpc	r25, r1
    3fea:	29 f4       	brne	.+10     	; 0x3ff6 <f_write+0x13c>
    3fec:	82 e0       	ldi	r24, 0x02	; 2
    3fee:	f7 01       	movw	r30, r14
    3ff0:	87 87       	std	Z+15, r24	; 0x0f
    3ff2:	90 e0       	ldi	r25, 0x00	; 0
    3ff4:	2e c1       	rjmp	.+604    	; 0x4252 <f_write+0x398>
				if (clst == 0xFFFFFFFF) ABORT(fs, FR_DISK_ERR);
    3ff6:	6f 3f       	cpi	r22, 0xFF	; 255
    3ff8:	ff ef       	ldi	r31, 0xFF	; 255
    3ffa:	7f 07       	cpc	r23, r31
    3ffc:	8f 07       	cpc	r24, r31
    3ffe:	9f 07       	cpc	r25, r31
    4000:	29 f4       	brne	.+10     	; 0x400c <f_write+0x152>
    4002:	81 e0       	ldi	r24, 0x01	; 1
    4004:	f7 01       	movw	r30, r14
    4006:	87 87       	std	Z+15, r24	; 0x0f
    4008:	90 e0       	ldi	r25, 0x00	; 0
    400a:	23 c1       	rjmp	.+582    	; 0x4252 <f_write+0x398>
				fp->clust = clst;			/* Update current cluster */
    400c:	f7 01       	movw	r30, r14
    400e:	64 8b       	std	Z+20, r22	; 0x14
    4010:	75 8b       	std	Z+21, r23	; 0x15
    4012:	86 8b       	std	Z+22, r24	; 0x16
    4014:	97 8b       	std	Z+23, r25	; 0x17
				if (fp->obj.sclust == 0) fp->obj.sclust = clst;	/* Set start cluster if the first write */
    4016:	26 81       	ldd	r18, Z+6	; 0x06
    4018:	37 81       	ldd	r19, Z+7	; 0x07
    401a:	40 85       	ldd	r20, Z+8	; 0x08
    401c:	51 85       	ldd	r21, Z+9	; 0x09
    401e:	23 2b       	or	r18, r19
    4020:	24 2b       	or	r18, r20
    4022:	25 2b       	or	r18, r21
    4024:	21 f4       	brne	.+8      	; 0x402e <f_write+0x174>
    4026:	66 83       	std	Z+6, r22	; 0x06
    4028:	77 83       	std	Z+7, r23	; 0x07
    402a:	80 87       	std	Z+8, r24	; 0x08
    402c:	91 87       	std	Z+9, r25	; 0x09
			}
#if _FS_TINY
			if (fs->winsect == fp->sect && sync_window(fs) != FR_OK) ABORT(fs, FR_DISK_ERR);	/* Write-back sector cache */
    402e:	29 81       	ldd	r18, Y+1	; 0x01
    4030:	3a 81       	ldd	r19, Y+2	; 0x02
    4032:	f9 01       	movw	r30, r18
    4034:	47 a5       	ldd	r20, Z+47	; 0x2f
    4036:	50 a9       	ldd	r21, Z+48	; 0x30
    4038:	61 a9       	ldd	r22, Z+49	; 0x31
    403a:	72 a9       	ldd	r23, Z+50	; 0x32
    403c:	f7 01       	movw	r30, r14
    403e:	80 8d       	ldd	r24, Z+24	; 0x18
    4040:	91 8d       	ldd	r25, Z+25	; 0x19
    4042:	a2 8d       	ldd	r26, Z+26	; 0x1a
    4044:	b3 8d       	ldd	r27, Z+27	; 0x1b
    4046:	48 17       	cp	r20, r24
    4048:	59 07       	cpc	r21, r25
    404a:	6a 07       	cpc	r22, r26
    404c:	7b 07       	cpc	r23, r27
    404e:	51 f4       	brne	.+20     	; 0x4064 <f_write+0x1aa>
    4050:	c9 01       	movw	r24, r18
    4052:	0e 94 4e 10 	call	0x209c	; 0x209c <sync_window>
    4056:	89 2b       	or	r24, r25
    4058:	29 f0       	breq	.+10     	; 0x4064 <f_write+0x1aa>
    405a:	81 e0       	ldi	r24, 0x01	; 1
    405c:	f7 01       	movw	r30, r14
    405e:	87 87       	std	Z+15, r24	; 0x0f
    4060:	90 e0       	ldi	r25, 0x00	; 0
    4062:	f7 c0       	rjmp	.+494    	; 0x4252 <f_write+0x398>
			if (fp->flag & FA_DIRTY) {		/* Write-back sector cache */
				if (disk_write(fs->drv, fp->buf, fp->sect, 1) != RES_OK) ABORT(fs, FR_DISK_ERR);
				fp->flag &= (BYTE)~FA_DIRTY;
			}
#endif
			sect = clust2sect(fs, fp->clust);	/* Get current sector */
    4064:	f7 01       	movw	r30, r14
    4066:	44 89       	ldd	r20, Z+20	; 0x14
    4068:	55 89       	ldd	r21, Z+21	; 0x15
    406a:	66 89       	ldd	r22, Z+22	; 0x16
    406c:	77 89       	ldd	r23, Z+23	; 0x17
    406e:	89 81       	ldd	r24, Y+1	; 0x01
    4070:	9a 81       	ldd	r25, Y+2	; 0x02
    4072:	9c 83       	std	Y+4, r25	; 0x04
    4074:	8b 83       	std	Y+3, r24	; 0x03
    4076:	0e 94 3b 0e 	call	0x1c76	; 0x1c76 <clust2sect>
			if (!sect) ABORT(fs, FR_INT_ERR);
    407a:	61 15       	cp	r22, r1
    407c:	71 05       	cpc	r23, r1
    407e:	81 05       	cpc	r24, r1
    4080:	91 05       	cpc	r25, r1
    4082:	29 f4       	brne	.+10     	; 0x408e <f_write+0x1d4>
    4084:	82 e0       	ldi	r24, 0x02	; 2
    4086:	f7 01       	movw	r30, r14
    4088:	87 87       	std	Z+15, r24	; 0x0f
    408a:	90 e0       	ldi	r25, 0x00	; 0
    408c:	e2 c0       	rjmp	.+452    	; 0x4252 <f_write+0x398>
			sect += csect;
    408e:	1b 01       	movw	r2, r22
    4090:	2c 01       	movw	r4, r24
    4092:	20 0e       	add	r2, r16
    4094:	31 1e       	adc	r3, r17
    4096:	41 1c       	adc	r4, r1
    4098:	51 1c       	adc	r5, r1
			cc = btw / SS(fs);				/* When remaining bytes >= sector size, */
    409a:	65 01       	movw	r12, r10
    409c:	cd 2c       	mov	r12, r13
    409e:	dd 24       	eor	r13, r13
    40a0:	c6 94       	lsr	r12
			if (cc) {						/* Write maximum contiguous sectors directly */
    40a2:	c1 14       	cp	r12, r1
    40a4:	d1 04       	cpc	r13, r1
    40a6:	09 f4       	brne	.+2      	; 0x40aa <f_write+0x1f0>
    40a8:	44 c0       	rjmp	.+136    	; 0x4132 <f_write+0x278>
				if (csect + cc > fs->csize) {	/* Clip at cluster boundary */
    40aa:	eb 81       	ldd	r30, Y+3	; 0x03
    40ac:	fc 81       	ldd	r31, Y+4	; 0x04
    40ae:	21 85       	ldd	r18, Z+9	; 0x09
    40b0:	32 85       	ldd	r19, Z+10	; 0x0a
    40b2:	c8 01       	movw	r24, r16
    40b4:	8c 0d       	add	r24, r12
    40b6:	9d 1d       	adc	r25, r13
    40b8:	28 17       	cp	r18, r24
    40ba:	39 07       	cpc	r19, r25
    40bc:	18 f4       	brcc	.+6      	; 0x40c4 <f_write+0x20a>
					cc = fs->csize - csect;
    40be:	69 01       	movw	r12, r18
    40c0:	c0 1a       	sub	r12, r16
    40c2:	d1 0a       	sbc	r13, r17
				}
				if (disk_write(fs->drv, wbuff, sect, cc) != RES_OK) ABORT(fs, FR_DISK_ERR);
    40c4:	86 01       	movw	r16, r12
    40c6:	a2 01       	movw	r20, r4
    40c8:	91 01       	movw	r18, r2
    40ca:	b3 01       	movw	r22, r6
    40cc:	eb 81       	ldd	r30, Y+3	; 0x03
    40ce:	fc 81       	ldd	r31, Y+4	; 0x04
    40d0:	81 81       	ldd	r24, Z+1	; 0x01
    40d2:	0e 94 ad 0d 	call	0x1b5a	; 0x1b5a <disk_write>
    40d6:	89 2b       	or	r24, r25
    40d8:	29 f0       	breq	.+10     	; 0x40e4 <f_write+0x22a>
    40da:	81 e0       	ldi	r24, 0x01	; 1
    40dc:	f7 01       	movw	r30, r14
    40de:	87 87       	std	Z+15, r24	; 0x0f
    40e0:	90 e0       	ldi	r25, 0x00	; 0
    40e2:	b7 c0       	rjmp	.+366    	; 0x4252 <f_write+0x398>
#if _FS_MINIMIZE <= 2
#if _FS_TINY
				if (fs->winsect - sect < cc) {	/* Refill sector cache if it gets invalidated by the direct write */
    40e4:	e9 81       	ldd	r30, Y+1	; 0x01
    40e6:	fa 81       	ldd	r31, Y+2	; 0x02
    40e8:	47 a5       	ldd	r20, Z+47	; 0x2f
    40ea:	50 a9       	ldd	r21, Z+48	; 0x30
    40ec:	61 a9       	ldd	r22, Z+49	; 0x31
    40ee:	72 a9       	ldd	r23, Z+50	; 0x32
    40f0:	42 19       	sub	r20, r2
    40f2:	53 09       	sbc	r21, r3
    40f4:	64 09       	sbc	r22, r4
    40f6:	75 09       	sbc	r23, r5
    40f8:	c6 01       	movw	r24, r12
    40fa:	a0 e0       	ldi	r26, 0x00	; 0
    40fc:	b0 e0       	ldi	r27, 0x00	; 0
    40fe:	48 17       	cp	r20, r24
    4100:	59 07       	cpc	r21, r25
    4102:	6a 07       	cpc	r22, r26
    4104:	7b 07       	cpc	r23, r27
    4106:	88 f4       	brcc	.+34     	; 0x412a <f_write+0x270>
					mem_cpy(fs->win, wbuff + ((fs->winsect - sect) * SS(fs)), SS(fs));
    4108:	24 2f       	mov	r18, r20
    410a:	22 0f       	add	r18, r18
    410c:	28 87       	std	Y+8, r18	; 0x08
    410e:	1f 82       	std	Y+7, r1	; 0x07
    4110:	6f 81       	ldd	r22, Y+7	; 0x07
    4112:	78 85       	ldd	r23, Y+8	; 0x08
    4114:	66 0d       	add	r22, r6
    4116:	77 1d       	adc	r23, r7
    4118:	40 e0       	ldi	r20, 0x00	; 0
    411a:	52 e0       	ldi	r21, 0x02	; 2
    411c:	cf 01       	movw	r24, r30
    411e:	c3 96       	adiw	r24, 0x33	; 51
    4120:	0e 94 fa 0d 	call	0x1bf4	; 0x1bf4 <mem_cpy>
					fs->wflag = 0;
    4124:	e9 81       	ldd	r30, Y+1	; 0x01
    4126:	fa 81       	ldd	r31, Y+2	; 0x02
    4128:	13 82       	std	Z+3, r1	; 0x03
					mem_cpy(fp->buf, wbuff + ((fp->sect - sect) * SS(fs)), SS(fs));
					fp->flag &= (BYTE)~FA_DIRTY;
				}
#endif
#endif
				wcnt = SS(fs) * cc;		/* Number of bytes transferred */
    412a:	dc 2c       	mov	r13, r12
    412c:	cc 24       	eor	r12, r12
    412e:	dd 0c       	add	r13, r13
				continue;
    4130:	58 c0       	rjmp	.+176    	; 0x41e2 <f_write+0x328>
			}
#if _FS_TINY
			if (fp->fptr >= fp->obj.objsize) {	/* Avoid silly cache filling on the growing edge */
    4132:	f7 01       	movw	r30, r14
    4134:	40 89       	ldd	r20, Z+16	; 0x10
    4136:	51 89       	ldd	r21, Z+17	; 0x11
    4138:	62 89       	ldd	r22, Z+18	; 0x12
    413a:	73 89       	ldd	r23, Z+19	; 0x13
    413c:	82 85       	ldd	r24, Z+10	; 0x0a
    413e:	93 85       	ldd	r25, Z+11	; 0x0b
    4140:	a4 85       	ldd	r26, Z+12	; 0x0c
    4142:	b5 85       	ldd	r27, Z+13	; 0x0d
    4144:	48 17       	cp	r20, r24
    4146:	59 07       	cpc	r21, r25
    4148:	6a 07       	cpc	r22, r26
    414a:	7b 07       	cpc	r23, r27
    414c:	88 f0       	brcs	.+34     	; 0x4170 <f_write+0x2b6>
				if (sync_window(fs) != FR_OK) ABORT(fs, FR_DISK_ERR);
    414e:	8b 81       	ldd	r24, Y+3	; 0x03
    4150:	9c 81       	ldd	r25, Y+4	; 0x04
    4152:	0e 94 4e 10 	call	0x209c	; 0x209c <sync_window>
    4156:	89 2b       	or	r24, r25
    4158:	29 f0       	breq	.+10     	; 0x4164 <f_write+0x2aa>
    415a:	81 e0       	ldi	r24, 0x01	; 1
    415c:	f7 01       	movw	r30, r14
    415e:	87 87       	std	Z+15, r24	; 0x0f
    4160:	90 e0       	ldi	r25, 0x00	; 0
    4162:	77 c0       	rjmp	.+238    	; 0x4252 <f_write+0x398>
				fs->winsect = sect;
    4164:	e9 81       	ldd	r30, Y+1	; 0x01
    4166:	fa 81       	ldd	r31, Y+2	; 0x02
    4168:	27 a6       	std	Z+47, r2	; 0x2f
    416a:	30 aa       	std	Z+48, r3	; 0x30
    416c:	41 aa       	std	Z+49, r4	; 0x31
    416e:	52 aa       	std	Z+50, r5	; 0x32
				fp->fptr < fp->obj.objsize &&
				disk_read(fs->drv, fp->buf, sect, 1) != RES_OK) {
					ABORT(fs, FR_DISK_ERR);
			}
#endif
			fp->sect = sect;
    4170:	f7 01       	movw	r30, r14
    4172:	20 8e       	std	Z+24, r2	; 0x18
    4174:	31 8e       	std	Z+25, r3	; 0x19
    4176:	42 8e       	std	Z+26, r4	; 0x1a
    4178:	53 8e       	std	Z+27, r5	; 0x1b
		}
		wcnt = SS(fs) - (UINT)fp->fptr % SS(fs);	/* Number of bytes left in the sector */
    417a:	f7 01       	movw	r30, r14
    417c:	80 89       	ldd	r24, Z+16	; 0x10
    417e:	91 89       	ldd	r25, Z+17	; 0x11
    4180:	a2 89       	ldd	r26, Z+18	; 0x12
    4182:	b3 89       	ldd	r27, Z+19	; 0x13
    4184:	91 70       	andi	r25, 0x01	; 1
    4186:	20 e0       	ldi	r18, 0x00	; 0
    4188:	32 e0       	ldi	r19, 0x02	; 2
    418a:	69 01       	movw	r12, r18
    418c:	c8 1a       	sub	r12, r24
    418e:	d9 0a       	sbc	r13, r25
		if (wcnt > btw) wcnt = btw;					/* Clip it by btw if needed */
    4190:	ac 14       	cp	r10, r12
    4192:	bd 04       	cpc	r11, r13
    4194:	08 f4       	brcc	.+2      	; 0x4198 <f_write+0x2de>
    4196:	65 01       	movw	r12, r10
#if _FS_TINY
		if (move_window(fs, fp->sect) != FR_OK) ABORT(fs, FR_DISK_ERR);	/* Move sector window */
    4198:	f7 01       	movw	r30, r14
    419a:	40 8d       	ldd	r20, Z+24	; 0x18
    419c:	51 8d       	ldd	r21, Z+25	; 0x19
    419e:	62 8d       	ldd	r22, Z+26	; 0x1a
    41a0:	73 8d       	ldd	r23, Z+27	; 0x1b
    41a2:	89 81       	ldd	r24, Y+1	; 0x01
    41a4:	9a 81       	ldd	r25, Y+2	; 0x02
    41a6:	0e 94 b6 10 	call	0x216c	; 0x216c <move_window>
    41aa:	89 2b       	or	r24, r25
    41ac:	29 f0       	breq	.+10     	; 0x41b8 <f_write+0x2fe>
    41ae:	81 e0       	ldi	r24, 0x01	; 1
    41b0:	f7 01       	movw	r30, r14
    41b2:	87 87       	std	Z+15, r24	; 0x0f
    41b4:	90 e0       	ldi	r25, 0x00	; 0
    41b6:	4d c0       	rjmp	.+154    	; 0x4252 <f_write+0x398>
		mem_cpy(fs->win + fp->fptr % SS(fs), wbuff, wcnt);	/* Fit data to the sector */
    41b8:	29 81       	ldd	r18, Y+1	; 0x01
    41ba:	3a 81       	ldd	r19, Y+2	; 0x02
    41bc:	2d 5c       	subi	r18, 0xCD	; 205
    41be:	3f 4f       	sbci	r19, 0xFF	; 255
    41c0:	f7 01       	movw	r30, r14
    41c2:	40 89       	ldd	r20, Z+16	; 0x10
    41c4:	51 89       	ldd	r21, Z+17	; 0x11
    41c6:	62 89       	ldd	r22, Z+18	; 0x12
    41c8:	73 89       	ldd	r23, Z+19	; 0x13
    41ca:	ca 01       	movw	r24, r20
    41cc:	91 70       	andi	r25, 0x01	; 1
    41ce:	a6 01       	movw	r20, r12
    41d0:	b3 01       	movw	r22, r6
    41d2:	82 0f       	add	r24, r18
    41d4:	93 1f       	adc	r25, r19
    41d6:	0e 94 fa 0d 	call	0x1bf4	; 0x1bf4 <mem_cpy>
		fs->wflag = 1;
    41da:	e9 81       	ldd	r30, Y+1	; 0x01
    41dc:	fa 81       	ldd	r31, Y+2	; 0x02
    41de:	81 e0       	ldi	r24, 0x01	; 1
    41e0:	83 83       	std	Z+3, r24	; 0x03
	if ((!_FS_EXFAT || fs->fs_type != FS_EXFAT) && (DWORD)(fp->fptr + btw) < (DWORD)fp->fptr) {
		btw = (UINT)(0xFFFFFFFF - (DWORD)fp->fptr);
	}

	for ( ;  btw;							/* Repeat until all data written */
		wbuff += wcnt, fp->fptr += wcnt, fp->obj.objsize = (fp->fptr > fp->obj.objsize) ? fp->fptr : fp->obj.objsize, *bw += wcnt, btw -= wcnt) {
    41e2:	6c 0c       	add	r6, r12
    41e4:	7d 1c       	adc	r7, r13
    41e6:	f7 01       	movw	r30, r14
    41e8:	80 89       	ldd	r24, Z+16	; 0x10
    41ea:	91 89       	ldd	r25, Z+17	; 0x11
    41ec:	a2 89       	ldd	r26, Z+18	; 0x12
    41ee:	b3 89       	ldd	r27, Z+19	; 0x13
    41f0:	8c 0d       	add	r24, r12
    41f2:	9d 1d       	adc	r25, r13
    41f4:	a1 1d       	adc	r26, r1
    41f6:	b1 1d       	adc	r27, r1
    41f8:	80 8b       	std	Z+16, r24	; 0x10
    41fa:	91 8b       	std	Z+17, r25	; 0x11
    41fc:	a2 8b       	std	Z+18, r26	; 0x12
    41fe:	b3 8b       	std	Z+19, r27	; 0x13
    4200:	42 85       	ldd	r20, Z+10	; 0x0a
    4202:	53 85       	ldd	r21, Z+11	; 0x0b
    4204:	64 85       	ldd	r22, Z+12	; 0x0c
    4206:	75 85       	ldd	r23, Z+13	; 0x0d
    4208:	84 17       	cp	r24, r20
    420a:	95 07       	cpc	r25, r21
    420c:	a6 07       	cpc	r26, r22
    420e:	b7 07       	cpc	r27, r23
    4210:	10 f4       	brcc	.+4      	; 0x4216 <f_write+0x35c>
    4212:	db 01       	movw	r26, r22
    4214:	ca 01       	movw	r24, r20
    4216:	f7 01       	movw	r30, r14
    4218:	82 87       	std	Z+10, r24	; 0x0a
    421a:	93 87       	std	Z+11, r25	; 0x0b
    421c:	a4 87       	std	Z+12, r26	; 0x0c
    421e:	b5 87       	std	Z+13, r27	; 0x0d
    4220:	f4 01       	movw	r30, r8
    4222:	80 81       	ld	r24, Z
    4224:	91 81       	ldd	r25, Z+1	; 0x01
    4226:	8c 0d       	add	r24, r12
    4228:	9d 1d       	adc	r25, r13
    422a:	91 83       	std	Z+1, r25	; 0x01
    422c:	80 83       	st	Z, r24
    422e:	ac 18       	sub	r10, r12
    4230:	bd 08       	sbc	r11, r13
	/* Check fptr wrap-around (file size cannot reach 4GiB on FATxx) */
	if ((!_FS_EXFAT || fs->fs_type != FS_EXFAT) && (DWORD)(fp->fptr + btw) < (DWORD)fp->fptr) {
		btw = (UINT)(0xFFFFFFFF - (DWORD)fp->fptr);
	}

	for ( ;  btw;							/* Repeat until all data written */
    4232:	a1 14       	cp	r10, r1
    4234:	b1 04       	cpc	r11, r1
    4236:	09 f0       	breq	.+2      	; 0x423a <f_write+0x380>
    4238:	89 ce       	rjmp	.-750    	; 0x3f4c <f_write+0x92>
		mem_cpy(fp->buf + fp->fptr % SS(fs), wbuff, wcnt);	/* Fit data to the sector */
		fp->flag |= FA_DIRTY;
#endif
	}

	fp->flag |= FA_MODIFIED;				/* Set file change flag */
    423a:	f7 01       	movw	r30, r14
    423c:	86 85       	ldd	r24, Z+14	; 0x0e
    423e:	80 64       	ori	r24, 0x40	; 64
    4240:	86 87       	std	Z+14, r24	; 0x0e

	LEAVE_FF(fs, FR_OK);
    4242:	80 e0       	ldi	r24, 0x00	; 0
    4244:	90 e0       	ldi	r25, 0x00	; 0
    4246:	05 c0       	rjmp	.+10     	; 0x4252 <f_write+0x398>
	const BYTE *wbuff = (const BYTE*)buff;


	*bw = 0;	/* Clear write byte counter */
	res = validate(&fp->obj, &fs);			/* Check validity of the file object */
	if (res != FR_OK || (res = (FRESULT)fp->err) != FR_OK) LEAVE_FF(fs, res);	/* Check validity */
    4248:	82 2f       	mov	r24, r18
    424a:	93 2f       	mov	r25, r19
    424c:	02 c0       	rjmp	.+4      	; 0x4252 <f_write+0x398>
	if (!(fp->flag & FA_WRITE)) LEAVE_FF(fs, FR_DENIED);	/* Check access mode */
    424e:	87 e0       	ldi	r24, 0x07	; 7
    4250:	90 e0       	ldi	r25, 0x00	; 0
	}

	fp->flag |= FA_MODIFIED;				/* Set file change flag */

	LEAVE_FF(fs, FR_OK);
}
    4252:	28 96       	adiw	r28, 0x08	; 8
    4254:	0f b6       	in	r0, 0x3f	; 63
    4256:	f8 94       	cli
    4258:	de bf       	out	0x3e, r29	; 62
    425a:	0f be       	out	0x3f, r0	; 63
    425c:	cd bf       	out	0x3d, r28	; 61
    425e:	df 91       	pop	r29
    4260:	cf 91       	pop	r28
    4262:	1f 91       	pop	r17
    4264:	0f 91       	pop	r16
    4266:	ff 90       	pop	r15
    4268:	ef 90       	pop	r14
    426a:	df 90       	pop	r13
    426c:	cf 90       	pop	r12
    426e:	bf 90       	pop	r11
    4270:	af 90       	pop	r10
    4272:	9f 90       	pop	r9
    4274:	8f 90       	pop	r8
    4276:	7f 90       	pop	r7
    4278:	6f 90       	pop	r6
    427a:	5f 90       	pop	r5
    427c:	4f 90       	pop	r4
    427e:	3f 90       	pop	r3
    4280:	2f 90       	pop	r2
    4282:	08 95       	ret

00004284 <f_sync>:
/*-----------------------------------------------------------------------*/

FRESULT f_sync (
	FIL* fp		/* Pointer to the file object */
)
{
    4284:	ef 92       	push	r14
    4286:	ff 92       	push	r15
    4288:	0f 93       	push	r16
    428a:	1f 93       	push	r17
    428c:	cf 93       	push	r28
    428e:	df 93       	push	r29
    4290:	00 d0       	rcall	.+0      	; 0x4292 <f_sync+0xe>
    4292:	cd b7       	in	r28, 0x3d	; 61
    4294:	de b7       	in	r29, 0x3e	; 62
    4296:	8c 01       	movw	r16, r24
#if _FS_EXFAT
	DIR dj;
	DEF_NAMBUF
#endif

	res = validate(&fp->obj, &fs);	/* Check validity of the file object */
    4298:	be 01       	movw	r22, r28
    429a:	6f 5f       	subi	r22, 0xFF	; 255
    429c:	7f 4f       	sbci	r23, 0xFF	; 255
    429e:	0e 94 22 10 	call	0x2044	; 0x2044 <validate>
	if (res == FR_OK) {
    42a2:	00 97       	sbiw	r24, 0x00	; 0
    42a4:	09 f0       	breq	.+2      	; 0x42a8 <f_sync+0x24>
    42a6:	40 c0       	rjmp	.+128    	; 0x4328 <f_sync+0xa4>
		if (fp->flag & FA_MODIFIED) {	/* Is there any change to the file? */
    42a8:	f8 01       	movw	r30, r16
    42aa:	26 85       	ldd	r18, Z+14	; 0x0e
    42ac:	26 ff       	sbrs	r18, 6
    42ae:	3c c0       	rjmp	.+120    	; 0x4328 <f_sync+0xa4>
					FREE_NAMBUF();
				}
			} else
#endif
			{
				res = move_window(fs, fp->dir_sect);
    42b0:	44 8d       	ldd	r20, Z+28	; 0x1c
    42b2:	55 8d       	ldd	r21, Z+29	; 0x1d
    42b4:	66 8d       	ldd	r22, Z+30	; 0x1e
    42b6:	77 8d       	ldd	r23, Z+31	; 0x1f
    42b8:	89 81       	ldd	r24, Y+1	; 0x01
    42ba:	9a 81       	ldd	r25, Y+2	; 0x02
    42bc:	0e 94 b6 10 	call	0x216c	; 0x216c <move_window>
				if (res == FR_OK) {
    42c0:	00 97       	sbiw	r24, 0x00	; 0
    42c2:	91 f5       	brne	.+100    	; 0x4328 <f_sync+0xa4>
					dir = fp->dir_ptr;
    42c4:	f8 01       	movw	r30, r16
    42c6:	e0 a0       	ldd	r14, Z+32	; 0x20
    42c8:	f1 a0       	ldd	r15, Z+33	; 0x21
					dir[DIR_Attr] |= AM_ARC;						/* Set archive bit */
    42ca:	f7 01       	movw	r30, r14
    42cc:	83 85       	ldd	r24, Z+11	; 0x0b
    42ce:	80 62       	ori	r24, 0x20	; 32
    42d0:	83 87       	std	Z+11, r24	; 0x0b
					st_clust(fp->obj.fs, dir, fp->obj.sclust);		/* Update file allocation info  */
    42d2:	f8 01       	movw	r30, r16
    42d4:	26 81       	ldd	r18, Z+6	; 0x06
    42d6:	37 81       	ldd	r19, Z+7	; 0x07
    42d8:	40 85       	ldd	r20, Z+8	; 0x08
    42da:	51 85       	ldd	r21, Z+9	; 0x09
    42dc:	b7 01       	movw	r22, r14
    42de:	80 81       	ld	r24, Z
    42e0:	91 81       	ldd	r25, Z+1	; 0x01
    42e2:	0e 94 8e 0e 	call	0x1d1c	; 0x1d1c <st_clust>
					st_dword(dir + DIR_FileSize, (DWORD)fp->obj.objsize);	/* Update file size */
    42e6:	f8 01       	movw	r30, r16
    42e8:	42 85       	ldd	r20, Z+10	; 0x0a
    42ea:	53 85       	ldd	r21, Z+11	; 0x0b
    42ec:	64 85       	ldd	r22, Z+12	; 0x0c
    42ee:	75 85       	ldd	r23, Z+13	; 0x0d
    42f0:	c7 01       	movw	r24, r14
    42f2:	4c 96       	adiw	r24, 0x1c	; 28
    42f4:	0e 94 f4 0d 	call	0x1be8	; 0x1be8 <st_dword>
					st_dword(dir + DIR_ModTime, tm);				/* Update modified time */
    42f8:	40 e0       	ldi	r20, 0x00	; 0
    42fa:	50 e0       	ldi	r21, 0x00	; 0
    42fc:	61 e2       	ldi	r22, 0x21	; 33
    42fe:	70 e0       	ldi	r23, 0x00	; 0
    4300:	c7 01       	movw	r24, r14
    4302:	46 96       	adiw	r24, 0x16	; 22
    4304:	0e 94 f4 0d 	call	0x1be8	; 0x1be8 <st_dword>
					st_word(dir + DIR_LstAccDate, 0);
    4308:	60 e0       	ldi	r22, 0x00	; 0
    430a:	70 e0       	ldi	r23, 0x00	; 0
    430c:	c7 01       	movw	r24, r14
    430e:	42 96       	adiw	r24, 0x12	; 18
    4310:	0e 94 f0 0d 	call	0x1be0	; 0x1be0 <st_word>
					fs->wflag = 1;
    4314:	89 81       	ldd	r24, Y+1	; 0x01
    4316:	9a 81       	ldd	r25, Y+2	; 0x02
    4318:	21 e0       	ldi	r18, 0x01	; 1
    431a:	fc 01       	movw	r30, r24
					res = sync_fs(fs);					/* Restore it to the directory */
    431c:	23 83       	std	Z+3, r18	; 0x03
					fp->flag &= (BYTE)~FA_MODIFIED;
    431e:	e6 d9       	rcall	.-3124   	; 0x36ec <sync_fs>
    4320:	f8 01       	movw	r30, r16
    4322:	26 85       	ldd	r18, Z+14	; 0x0e
    4324:	2f 7b       	andi	r18, 0xBF	; 191
			}
		}
	}

	LEAVE_FF(fs, res);
}
    4326:	26 87       	std	Z+14, r18	; 0x0e
    4328:	0f 90       	pop	r0
    432a:	0f 90       	pop	r0
    432c:	df 91       	pop	r29
    432e:	cf 91       	pop	r28
    4330:	1f 91       	pop	r17
    4332:	0f 91       	pop	r16
    4334:	ff 90       	pop	r15
    4336:	ef 90       	pop	r14
    4338:	08 95       	ret

0000433a <f_close>:
/*-----------------------------------------------------------------------*/

FRESULT f_close (
	FIL* fp		/* Pointer to the file object to be closed */
)
{
    433a:	0f 93       	push	r16
    433c:	1f 93       	push	r17
    433e:	cf 93       	push	r28
    4340:	df 93       	push	r29
    4342:	00 d0       	rcall	.+0      	; 0x4344 <f_close+0xa>
    4344:	cd b7       	in	r28, 0x3d	; 61
    4346:	de b7       	in	r29, 0x3e	; 62
	FRESULT res;
	FATFS *fs;

#if !_FS_READONLY
	res = f_sync(fp);					/* Flush cached data */
    4348:	8c 01       	movw	r16, r24
	if (res == FR_OK)
    434a:	9c df       	rcall	.-200    	; 0x4284 <f_sync>
    434c:	00 97       	sbiw	r24, 0x00	; 0
#endif
	{
		res = validate(&fp->obj, &fs);	/* Lock volume */
    434e:	59 f4       	brne	.+22     	; 0x4366 <f_close+0x2c>
    4350:	be 01       	movw	r22, r28
    4352:	6f 5f       	subi	r22, 0xFF	; 255
    4354:	7f 4f       	sbci	r23, 0xFF	; 255
    4356:	c8 01       	movw	r24, r16
    4358:	0e 94 22 10 	call	0x2044	; 0x2044 <validate>
		if (res == FR_OK) {
    435c:	00 97       	sbiw	r24, 0x00	; 0
#if _FS_LOCK != 0
			res = dec_lock(fp->obj.lockid);	/* Decrement file open counter */
			if (res == FR_OK)
#endif
			{
				fp->obj.fs = 0;			/* Invalidate file object */
    435e:	19 f4       	brne	.+6      	; 0x4366 <f_close+0x2c>
    4360:	f8 01       	movw	r30, r16
    4362:	11 82       	std	Z+1, r1	; 0x01
			unlock_fs(fs, FR_OK);		/* Unlock volume */
#endif
		}
	}
	return res;
}
    4364:	10 82       	st	Z, r1
    4366:	0f 90       	pop	r0
    4368:	0f 90       	pop	r0
    436a:	df 91       	pop	r29
    436c:	cf 91       	pop	r28
    436e:	1f 91       	pop	r17
    4370:	0f 91       	pop	r16
    4372:	08 95       	ret

00004374 <f_chdir>:


FRESULT f_chdir (
	const TCHAR* path	/* Pointer to the directory path */
)
{
    4374:	ef 92       	push	r14
    4376:	ff 92       	push	r15
    4378:	0f 93       	push	r16
    437a:	1f 93       	push	r17
    437c:	cf 93       	push	r28
    437e:	df 93       	push	r29
    4380:	cd b7       	in	r28, 0x3d	; 61
    4382:	de b7       	in	r29, 0x3e	; 62
    4384:	ac 97       	sbiw	r28, 0x2c	; 44
    4386:	0f b6       	in	r0, 0x3f	; 63
    4388:	f8 94       	cli
    438a:	de bf       	out	0x3e, r29	; 62
    438c:	0f be       	out	0x3f, r0	; 63
    438e:	cd bf       	out	0x3d, r28	; 61
    4390:	9c a7       	std	Y+44, r25	; 0x2c
    4392:	8b a7       	std	Y+43, r24	; 0x2b
	DIR dj;
	FATFS *fs;
	DEF_NAMBUF

	/* Get logical drive */
	res = find_volume(&path, &fs, 0);
    4394:	40 e0       	ldi	r20, 0x00	; 0
    4396:	be 01       	movw	r22, r28
    4398:	67 5d       	subi	r22, 0xD7	; 215
    439a:	7f 4f       	sbci	r23, 0xFF	; 255
    439c:	ce 01       	movw	r24, r28
    439e:	8b 96       	adiw	r24, 0x2b	; 43
    43a0:	0e 94 39 11 	call	0x2272	; 0x2272 <find_volume>
    43a4:	8c 01       	movw	r16, r24
	if (res == FR_OK) {
    43a6:	89 2b       	or	r24, r25
    43a8:	89 f5       	brne	.+98     	; 0x440c <f_chdir+0x98>
		dj.obj.fs = fs;
    43aa:	89 a5       	ldd	r24, Y+41	; 0x29
    43ac:	9a a5       	ldd	r25, Y+42	; 0x2a
    43ae:	9a 83       	std	Y+2, r25	; 0x02
    43b0:	89 83       	std	Y+1, r24	; 0x01
		INIT_NAMBUF(fs);
		res = follow_path(&dj, path);		/* Follow the path */
    43b2:	6b a5       	ldd	r22, Y+43	; 0x2b
    43b4:	7c a5       	ldd	r23, Y+44	; 0x2c
    43b6:	ce 01       	movw	r24, r28
    43b8:	01 96       	adiw	r24, 0x01	; 1
    43ba:	3f d8       	rcall	.-3970   	; 0x343a <follow_path>
    43bc:	8c 01       	movw	r16, r24
		if (res == FR_OK) {					/* Follow completed */
    43be:	89 2b       	or	r24, r25
    43c0:	01 f5       	brne	.+64     	; 0x4402 <f_chdir+0x8e>
			if (dj.fn[NSFLAG] & NS_NONAME) {
    43c2:	88 a5       	ldd	r24, Y+40	; 0x28
    43c4:	88 23       	and	r24, r24
    43c6:	5c f4       	brge	.+22     	; 0x43de <f_chdir+0x6a>
				fs->cdir = dj.obj.sclust;	/* It is the start directory itself */
    43c8:	e9 a5       	ldd	r30, Y+41	; 0x29
    43ca:	fa a5       	ldd	r31, Y+42	; 0x2a
    43cc:	8f 81       	ldd	r24, Y+7	; 0x07
    43ce:	98 85       	ldd	r25, Y+8	; 0x08
    43d0:	a9 85       	ldd	r26, Y+9	; 0x09
    43d2:	ba 85       	ldd	r27, Y+10	; 0x0a
    43d4:	83 8b       	std	Z+19, r24	; 0x13
    43d6:	94 8b       	std	Z+20, r25	; 0x14
    43d8:	a5 8b       	std	Z+21, r26	; 0x15
    43da:	b6 8b       	std	Z+22, r27	; 0x16
    43dc:	12 c0       	rjmp	.+36     	; 0x4402 <f_chdir+0x8e>
					fs->cdc_size = dj.obj.c_size;
					fs->cdc_ofs = dj.obj.c_ofs;
				}
#endif
			} else {
				if (dj.obj.attr & AM_DIR) {	/* It is a sub-directory */
    43de:	8d 81       	ldd	r24, Y+5	; 0x05
    43e0:	84 ff       	sbrs	r24, 4
    43e2:	0d c0       	rjmp	.+26     	; 0x43fe <f_chdir+0x8a>
						fs->cdc_size = ((DWORD)dj.obj.objsize & 0xFFFFFF00) | dj.obj.stat;
						fs->cdc_ofs = dj.blk_ofs;
					} else
#endif
					{
						fs->cdir = ld_clust(fs, dj.dir);					/* Sub-directory cluster */
    43e4:	6b 8d       	ldd	r22, Y+27	; 0x1b
    43e6:	7c 8d       	ldd	r23, Y+28	; 0x1c
    43e8:	e9 a4       	ldd	r14, Y+41	; 0x29
    43ea:	fa a4       	ldd	r15, Y+42	; 0x2a
    43ec:	c7 01       	movw	r24, r14
    43ee:	0e 94 63 0e 	call	0x1cc6	; 0x1cc6 <ld_clust>
    43f2:	f7 01       	movw	r30, r14
    43f4:	63 8b       	std	Z+19, r22	; 0x13
    43f6:	74 8b       	std	Z+20, r23	; 0x14
    43f8:	85 8b       	std	Z+21, r24	; 0x15
    43fa:	96 8b       	std	Z+22, r25	; 0x16
    43fc:	02 c0       	rjmp	.+4      	; 0x4402 <f_chdir+0x8e>
					}
				} else {
					res = FR_NO_PATH;		/* Reached but a file */
    43fe:	05 e0       	ldi	r16, 0x05	; 5
    4400:	10 e0       	ldi	r17, 0x00	; 0
				}
			}
		}
		FREE_NAMBUF();
		if (res == FR_NO_FILE) res = FR_NO_PATH;
    4402:	04 30       	cpi	r16, 0x04	; 4
    4404:	11 05       	cpc	r17, r1
    4406:	11 f4       	brne	.+4      	; 0x440c <f_chdir+0x98>
    4408:	05 e0       	ldi	r16, 0x05	; 5
    440a:	10 e0       	ldi	r17, 0x00	; 0
	}

	LEAVE_FF(fs, res);
}
    440c:	c8 01       	movw	r24, r16
    440e:	ac 96       	adiw	r28, 0x2c	; 44
    4410:	0f b6       	in	r0, 0x3f	; 63
    4412:	f8 94       	cli
    4414:	de bf       	out	0x3e, r29	; 62
    4416:	0f be       	out	0x3f, r0	; 63
    4418:	cd bf       	out	0x3d, r28	; 61
    441a:	df 91       	pop	r29
    441c:	cf 91       	pop	r28
    441e:	1f 91       	pop	r17
    4420:	0f 91       	pop	r16
    4422:	ff 90       	pop	r15
    4424:	ef 90       	pop	r14
    4426:	08 95       	ret

00004428 <f_getcwd>:
#if _FS_RPATH >= 2
FRESULT f_getcwd (
	TCHAR* buff,	/* Pointer to the directory path */
	UINT len		/* Size of path */
)
{
    4428:	8f 92       	push	r8
    442a:	9f 92       	push	r9
    442c:	af 92       	push	r10
    442e:	bf 92       	push	r11
    4430:	cf 92       	push	r12
    4432:	df 92       	push	r13
    4434:	ef 92       	push	r14
    4436:	ff 92       	push	r15
    4438:	0f 93       	push	r16
    443a:	1f 93       	push	r17
    443c:	cf 93       	push	r28
    443e:	df 93       	push	r29
    4440:	cd b7       	in	r28, 0x3d	; 61
    4442:	de b7       	in	r29, 0x3e	; 62
    4444:	c2 54       	subi	r28, 0x42	; 66
    4446:	d1 09       	sbc	r29, r1
    4448:	0f b6       	in	r0, 0x3f	; 63
    444a:	f8 94       	cli
    444c:	de bf       	out	0x3e, r29	; 62
    444e:	0f be       	out	0x3f, r0	; 63
    4450:	cd bf       	out	0x3d, r28	; 61
    4452:	23 96       	adiw	r28, 0x03	; 3
    4454:	9f af       	std	Y+63, r25	; 0x3f
    4456:	8e af       	std	Y+62, r24	; 0x3e
    4458:	23 97       	sbiw	r28, 0x03	; 3
    445a:	6b 01       	movw	r12, r22
	TCHAR *tp;
	FILINFO fno;
	DEF_NAMBUF


	*buff = 0;
    445c:	fc 01       	movw	r30, r24
    445e:	10 82       	st	Z, r1
	/* Get logical drive */
	res = find_volume((const TCHAR**)&buff, &fs, 0);	/* Get current volume */
    4460:	40 e0       	ldi	r20, 0x00	; 0
    4462:	be 01       	movw	r22, r28
    4464:	67 5d       	subi	r22, 0xD7	; 215
    4466:	7f 4f       	sbci	r23, 0xFF	; 255
    4468:	ce 01       	movw	r24, r28
    446a:	8f 5b       	subi	r24, 0xBF	; 191
    446c:	9f 4f       	sbci	r25, 0xFF	; 255
    446e:	0e 94 39 11 	call	0x2272	; 0x2272 <find_volume>
    4472:	8c 01       	movw	r16, r24
	if (res == FR_OK) {
    4474:	89 2b       	or	r24, r25
    4476:	09 f0       	breq	.+2      	; 0x447a <f_getcwd+0x52>
    4478:	c7 c0       	rjmp	.+398    	; 0x4608 <f_getcwd+0x1e0>
		dj.obj.fs = fs;
    447a:	e9 a5       	ldd	r30, Y+41	; 0x29
    447c:	fa a5       	ldd	r31, Y+42	; 0x2a
    447e:	fa 83       	std	Y+2, r31	; 0x02
    4480:	e9 83       	std	Y+1, r30	; 0x01
		INIT_NAMBUF(fs);
		i = len;			/* Bottom of buffer (directory stack base) */
		if (!_FS_EXFAT || fs->fs_type != FS_EXFAT) {	/* (Cannot do getcwd on exFAT and returns root path) */
			dj.obj.sclust = fs->cdir;				/* Start to follow upper directory from current directory */
    4482:	83 89       	ldd	r24, Z+19	; 0x13
    4484:	94 89       	ldd	r25, Z+20	; 0x14
    4486:	a5 89       	ldd	r26, Z+21	; 0x15
    4488:	b6 89       	ldd	r27, Z+22	; 0x16
    448a:	8f 83       	std	Y+7, r24	; 0x07
    448c:	98 87       	std	Y+8, r25	; 0x08
    448e:	a9 87       	std	Y+9, r26	; 0x09
    4490:	ba 87       	std	Y+10, r27	; 0x0a
	/* Get logical drive */
	res = find_volume((const TCHAR**)&buff, &fs, 0);	/* Get current volume */
	if (res == FR_OK) {
		dj.obj.fs = fs;
		INIT_NAMBUF(fs);
		i = len;			/* Bottom of buffer (directory stack base) */
    4492:	76 01       	movw	r14, r12
		if (!_FS_EXFAT || fs->fs_type != FS_EXFAT) {	/* (Cannot do getcwd on exFAT and returns root path) */
			dj.obj.sclust = fs->cdir;				/* Start to follow upper directory from current directory */
			while ((ccl = dj.obj.sclust) != 0) {	/* Repeat while current directory is a sub-directory */
    4494:	8c c0       	rjmp	.+280    	; 0x45ae <f_getcwd+0x186>
				res = dir_sdi(&dj, 1 * SZDIRE);	/* Get parent directory */
    4496:	40 e2       	ldi	r20, 0x20	; 32
    4498:	50 e0       	ldi	r21, 0x00	; 0
    449a:	60 e0       	ldi	r22, 0x00	; 0
    449c:	70 e0       	ldi	r23, 0x00	; 0
    449e:	ce 01       	movw	r24, r28
    44a0:	01 96       	adiw	r24, 0x01	; 1
    44a2:	0e 94 0c 16 	call	0x2c18	; 0x2c18 <dir_sdi>
    44a6:	8c 01       	movw	r16, r24
				if (res != FR_OK) break;
    44a8:	89 2b       	or	r24, r25
    44aa:	09 f0       	breq	.+2      	; 0x44ae <f_getcwd+0x86>
    44ac:	8d c0       	rjmp	.+282    	; 0x45c8 <f_getcwd+0x1a0>
				res = move_window(fs, dj.sect);
    44ae:	4f 89       	ldd	r20, Y+23	; 0x17
    44b0:	58 8d       	ldd	r21, Y+24	; 0x18
    44b2:	69 8d       	ldd	r22, Y+25	; 0x19
    44b4:	7a 8d       	ldd	r23, Y+26	; 0x1a
    44b6:	89 a5       	ldd	r24, Y+41	; 0x29
    44b8:	9a a5       	ldd	r25, Y+42	; 0x2a
    44ba:	0e 94 b6 10 	call	0x216c	; 0x216c <move_window>
    44be:	8c 01       	movw	r16, r24
				if (res != FR_OK) break;
    44c0:	89 2b       	or	r24, r25
    44c2:	09 f0       	breq	.+2      	; 0x44c6 <f_getcwd+0x9e>
    44c4:	81 c0       	rjmp	.+258    	; 0x45c8 <f_getcwd+0x1a0>
				dj.obj.sclust = ld_clust(fs, dj.dir);	/* Goto parent directory */
    44c6:	6b 8d       	ldd	r22, Y+27	; 0x1b
    44c8:	7c 8d       	ldd	r23, Y+28	; 0x1c
    44ca:	89 a5       	ldd	r24, Y+41	; 0x29
    44cc:	9a a5       	ldd	r25, Y+42	; 0x2a
    44ce:	0e 94 63 0e 	call	0x1cc6	; 0x1cc6 <ld_clust>
    44d2:	6f 83       	std	Y+7, r22	; 0x07
    44d4:	78 87       	std	Y+8, r23	; 0x08
    44d6:	89 87       	std	Y+9, r24	; 0x09
    44d8:	9a 87       	std	Y+10, r25	; 0x0a
				res = dir_sdi(&dj, 0);
    44da:	40 e0       	ldi	r20, 0x00	; 0
    44dc:	50 e0       	ldi	r21, 0x00	; 0
    44de:	ba 01       	movw	r22, r20
    44e0:	ce 01       	movw	r24, r28
    44e2:	01 96       	adiw	r24, 0x01	; 1
    44e4:	0e 94 0c 16 	call	0x2c18	; 0x2c18 <dir_sdi>
    44e8:	8c 01       	movw	r16, r24
				if (res != FR_OK) break;
    44ea:	89 2b       	or	r24, r25
    44ec:	09 f0       	breq	.+2      	; 0x44f0 <f_getcwd+0xc8>
    44ee:	6c c0       	rjmp	.+216    	; 0x45c8 <f_getcwd+0x1a0>
				do {							/* Find the entry links to the child directory */
					res = dir_read(&dj, 0);
    44f0:	60 e0       	ldi	r22, 0x00	; 0
    44f2:	70 e0       	ldi	r23, 0x00	; 0
    44f4:	ce 01       	movw	r24, r28
    44f6:	01 96       	adiw	r24, 0x01	; 1
    44f8:	ae d8       	rcall	.-3748   	; 0x3656 <dir_read>
    44fa:	8c 01       	movw	r16, r24
					if (res != FR_OK) break;
    44fc:	89 2b       	or	r24, r25
    44fe:	a1 f4       	brne	.+40     	; 0x4528 <f_getcwd+0x100>
					if (ccl == ld_clust(fs, dj.dir)) break;	/* Found the entry */
    4500:	6b 8d       	ldd	r22, Y+27	; 0x1b
    4502:	7c 8d       	ldd	r23, Y+28	; 0x1c
    4504:	89 a5       	ldd	r24, Y+41	; 0x29
    4506:	9a a5       	ldd	r25, Y+42	; 0x2a
    4508:	0e 94 63 0e 	call	0x1cc6	; 0x1cc6 <ld_clust>
    450c:	86 16       	cp	r8, r22
    450e:	97 06       	cpc	r9, r23
    4510:	a8 06       	cpc	r10, r24
    4512:	b9 06       	cpc	r11, r25
    4514:	49 f0       	breq	.+18     	; 0x4528 <f_getcwd+0x100>
					res = dir_next(&dj, 0);
    4516:	60 e0       	ldi	r22, 0x00	; 0
    4518:	70 e0       	ldi	r23, 0x00	; 0
    451a:	ce 01       	movw	r24, r28
    451c:	01 96       	adiw	r24, 0x01	; 1
    451e:	0e 94 96 18 	call	0x312c	; 0x312c <dir_next>
    4522:	8c 01       	movw	r16, r24
				} while (res == FR_OK);
    4524:	89 2b       	or	r24, r25
    4526:	21 f3       	breq	.-56     	; 0x44f0 <f_getcwd+0xc8>
				if (res == FR_NO_FILE) res = FR_INT_ERR;/* It cannot be 'not found'. */
    4528:	04 30       	cpi	r16, 0x04	; 4
    452a:	11 05       	cpc	r17, r1
    452c:	11 f4       	brne	.+4      	; 0x4532 <f_getcwd+0x10a>
    452e:	02 e0       	ldi	r16, 0x02	; 2
    4530:	10 e0       	ldi	r17, 0x00	; 0
				if (res != FR_OK) break;
    4532:	01 15       	cp	r16, r1
    4534:	11 05       	cpc	r17, r1
    4536:	09 f0       	breq	.+2      	; 0x453a <f_getcwd+0x112>
    4538:	47 c0       	rjmp	.+142    	; 0x45c8 <f_getcwd+0x1a0>
				get_fileinfo(&dj, &fno);		/* Get the directory name and push it to the buffer */
    453a:	be 01       	movw	r22, r28
    453c:	65 5d       	subi	r22, 0xD5	; 213
    453e:	7f 4f       	sbci	r23, 0xFF	; 255
    4540:	ce 01       	movw	r24, r28
    4542:	01 96       	adiw	r24, 0x01	; 1
    4544:	0e 94 b1 0e 	call	0x1d62	; 0x1d62 <get_fileinfo>
				for (n = 0; fno.fname[n]; n++) ;
    4548:	80 e0       	ldi	r24, 0x00	; 0
    454a:	90 e0       	ldi	r25, 0x00	; 0
    454c:	01 c0       	rjmp	.+2      	; 0x4550 <f_getcwd+0x128>
    454e:	01 96       	adiw	r24, 0x01	; 1
    4550:	e4 e3       	ldi	r30, 0x34	; 52
    4552:	f0 e0       	ldi	r31, 0x00	; 0
    4554:	ec 0f       	add	r30, r28
    4556:	fd 1f       	adc	r31, r29
    4558:	e8 0f       	add	r30, r24
    455a:	f9 1f       	adc	r31, r25
    455c:	20 81       	ld	r18, Z
    455e:	21 11       	cpse	r18, r1
    4560:	f6 cf       	rjmp	.-20     	; 0x454e <f_getcwd+0x126>
				if (i < n + 3) {
    4562:	9c 01       	movw	r18, r24
    4564:	2d 5f       	subi	r18, 0xFD	; 253
    4566:	3f 4f       	sbci	r19, 0xFF	; 255
    4568:	e2 16       	cp	r14, r18
    456a:	f3 06       	cpc	r15, r19
    456c:	98 f4       	brcc	.+38     	; 0x4594 <f_getcwd+0x16c>
    456e:	2a c0       	rjmp	.+84     	; 0x45c4 <f_getcwd+0x19c>
					res = FR_NOT_ENOUGH_CORE; break;
				}
				while (n) buff[--i] = fno.fname[--n];
    4570:	f1 e0       	ldi	r31, 0x01	; 1
    4572:	ef 1a       	sub	r14, r31
    4574:	f1 08       	sbc	r15, r1
    4576:	23 96       	adiw	r28, 0x03	; 3
    4578:	ee ad       	ldd	r30, Y+62	; 0x3e
    457a:	ff ad       	ldd	r31, Y+63	; 0x3f
    457c:	23 97       	sbiw	r28, 0x03	; 3
    457e:	ee 0d       	add	r30, r14
    4580:	ff 1d       	adc	r31, r15
    4582:	01 97       	sbiw	r24, 0x01	; 1
    4584:	a4 e3       	ldi	r26, 0x34	; 52
    4586:	b0 e0       	ldi	r27, 0x00	; 0
    4588:	ac 0f       	add	r26, r28
    458a:	bd 1f       	adc	r27, r29
    458c:	a8 0f       	add	r26, r24
    458e:	b9 1f       	adc	r27, r25
    4590:	2c 91       	ld	r18, X
    4592:	20 83       	st	Z, r18
    4594:	00 97       	sbiw	r24, 0x00	; 0
    4596:	61 f7       	brne	.-40     	; 0x4570 <f_getcwd+0x148>
				buff[--i] = '/';
    4598:	21 e0       	ldi	r18, 0x01	; 1
    459a:	e2 1a       	sub	r14, r18
    459c:	f1 08       	sbc	r15, r1
    459e:	23 96       	adiw	r28, 0x03	; 3
    45a0:	ee ad       	ldd	r30, Y+62	; 0x3e
    45a2:	ff ad       	ldd	r31, Y+63	; 0x3f
    45a4:	23 97       	sbiw	r28, 0x03	; 3
    45a6:	ee 0d       	add	r30, r14
    45a8:	ff 1d       	adc	r31, r15
    45aa:	8f e2       	ldi	r24, 0x2F	; 47
    45ac:	80 83       	st	Z, r24
		dj.obj.fs = fs;
		INIT_NAMBUF(fs);
		i = len;			/* Bottom of buffer (directory stack base) */
		if (!_FS_EXFAT || fs->fs_type != FS_EXFAT) {	/* (Cannot do getcwd on exFAT and returns root path) */
			dj.obj.sclust = fs->cdir;				/* Start to follow upper directory from current directory */
			while ((ccl = dj.obj.sclust) != 0) {	/* Repeat while current directory is a sub-directory */
    45ae:	8f 80       	ldd	r8, Y+7	; 0x07
    45b0:	98 84       	ldd	r9, Y+8	; 0x08
    45b2:	a9 84       	ldd	r10, Y+9	; 0x09
    45b4:	ba 84       	ldd	r11, Y+10	; 0x0a
    45b6:	81 14       	cp	r8, r1
    45b8:	91 04       	cpc	r9, r1
    45ba:	a1 04       	cpc	r10, r1
    45bc:	b1 04       	cpc	r11, r1
    45be:	09 f0       	breq	.+2      	; 0x45c2 <f_getcwd+0x19a>
    45c0:	6a cf       	rjmp	.-300    	; 0x4496 <f_getcwd+0x6e>
    45c2:	02 c0       	rjmp	.+4      	; 0x45c8 <f_getcwd+0x1a0>
				if (res == FR_NO_FILE) res = FR_INT_ERR;/* It cannot be 'not found'. */
				if (res != FR_OK) break;
				get_fileinfo(&dj, &fno);		/* Get the directory name and push it to the buffer */
				for (n = 0; fno.fname[n]; n++) ;
				if (i < n + 3) {
					res = FR_NOT_ENOUGH_CORE; break;
    45c4:	01 e1       	ldi	r16, 0x11	; 17
    45c6:	10 e0       	ldi	r17, 0x00	; 0
				}
				while (n) buff[--i] = fno.fname[--n];
				buff[--i] = '/';
			}
		}
		tp = buff;
    45c8:	23 96       	adiw	r28, 0x03	; 3
    45ca:	ae ad       	ldd	r26, Y+62	; 0x3e
    45cc:	bf ad       	ldd	r27, Y+63	; 0x3f
    45ce:	23 97       	sbiw	r28, 0x03	; 3
		if (res == FR_OK) {
    45d0:	01 15       	cp	r16, r1
    45d2:	11 05       	cpc	r17, r1
    45d4:	c1 f4       	brne	.+48     	; 0x4606 <f_getcwd+0x1de>
#if _VOLUMES >= 2
			*tp++ = '0' + CurrVol;			/* Put drive number */
			*tp++ = ':';
#endif
			if (i == len) {					/* Root-directory */
    45d6:	ec 14       	cp	r14, r12
    45d8:	fd 04       	cpc	r15, r13
    45da:	21 f4       	brne	.+8      	; 0x45e4 <f_getcwd+0x1bc>
				*tp++ = '/';
    45dc:	8f e2       	ldi	r24, 0x2F	; 47
    45de:	8c 93       	st	X, r24
    45e0:	11 96       	adiw	r26, 0x01	; 1
    45e2:	11 c0       	rjmp	.+34     	; 0x4606 <f_getcwd+0x1de>
			} else {						/* Sub-directroy */
				do		/* Add stacked path str */
					*tp++ = buff[i++];
    45e4:	cd 01       	movw	r24, r26
    45e6:	01 96       	adiw	r24, 0x01	; 1
    45e8:	23 96       	adiw	r28, 0x03	; 3
    45ea:	ee ad       	ldd	r30, Y+62	; 0x3e
    45ec:	ff ad       	ldd	r31, Y+63	; 0x3f
    45ee:	23 97       	sbiw	r28, 0x03	; 3
    45f0:	ee 0d       	add	r30, r14
    45f2:	ff 1d       	adc	r31, r15
    45f4:	20 81       	ld	r18, Z
    45f6:	2c 93       	st	X, r18
    45f8:	f7 01       	movw	r30, r14
    45fa:	31 96       	adiw	r30, 0x01	; 1
    45fc:	7f 01       	movw	r14, r30
    45fe:	dc 01       	movw	r26, r24
				while (i < len);
    4600:	ec 15       	cp	r30, r12
    4602:	fd 05       	cpc	r31, r13
    4604:	78 f3       	brcs	.-34     	; 0x45e4 <f_getcwd+0x1bc>
			}
		}
		*tp = 0;
    4606:	1c 92       	st	X, r1
		FREE_NAMBUF();
	}

	LEAVE_FF(fs, res);
}
    4608:	c8 01       	movw	r24, r16
    460a:	ce 5b       	subi	r28, 0xBE	; 190
    460c:	df 4f       	sbci	r29, 0xFF	; 255
    460e:	0f b6       	in	r0, 0x3f	; 63
    4610:	f8 94       	cli
    4612:	de bf       	out	0x3e, r29	; 62
    4614:	0f be       	out	0x3f, r0	; 63
    4616:	cd bf       	out	0x3d, r28	; 61
    4618:	df 91       	pop	r29
    461a:	cf 91       	pop	r28
    461c:	1f 91       	pop	r17
    461e:	0f 91       	pop	r16
    4620:	ff 90       	pop	r15
    4622:	ef 90       	pop	r14
    4624:	df 90       	pop	r13
    4626:	cf 90       	pop	r12
    4628:	bf 90       	pop	r11
    462a:	af 90       	pop	r10
    462c:	9f 90       	pop	r9
    462e:	8f 90       	pop	r8
    4630:	08 95       	ret

00004632 <f_lseek>:

FRESULT f_lseek (
	FIL* fp,		/* Pointer to the file object */
	FSIZE_t ofs		/* File pointer from top of file */
)
{
    4632:	4f 92       	push	r4
    4634:	5f 92       	push	r5
    4636:	6f 92       	push	r6
    4638:	7f 92       	push	r7
    463a:	8f 92       	push	r8
    463c:	9f 92       	push	r9
    463e:	af 92       	push	r10
    4640:	bf 92       	push	r11
    4642:	cf 92       	push	r12
    4644:	df 92       	push	r13
    4646:	ef 92       	push	r14
    4648:	ff 92       	push	r15
    464a:	0f 93       	push	r16
    464c:	1f 93       	push	r17
    464e:	cf 93       	push	r28
    4650:	df 93       	push	r29
    4652:	cd b7       	in	r28, 0x3d	; 61
    4654:	de b7       	in	r29, 0x3e	; 62
    4656:	2a 97       	sbiw	r28, 0x0a	; 10
    4658:	0f b6       	in	r0, 0x3f	; 63
    465a:	f8 94       	cli
    465c:	de bf       	out	0x3e, r29	; 62
    465e:	0f be       	out	0x3f, r0	; 63
    4660:	cd bf       	out	0x3d, r28	; 61
    4662:	8c 01       	movw	r16, r24
    4664:	6a 01       	movw	r12, r20
    4666:	7b 01       	movw	r14, r22
	FSIZE_t ifptr;
#if _USE_FASTSEEK
	DWORD cl, pcl, ncl, tcl, dsc, tlen, ulen, *tbl;
#endif

	res = validate(&fp->obj, &fs);		/* Check validity of the file object */
    4668:	88 2e       	mov	r8, r24
    466a:	91 2e       	mov	r9, r17
    466c:	be 01       	movw	r22, r28
    466e:	6f 5f       	subi	r22, 0xFF	; 255
    4670:	7f 4f       	sbci	r23, 0xFF	; 255
    4672:	0e 94 22 10 	call	0x2044	; 0x2044 <validate>
    4676:	5c 01       	movw	r10, r24
	if (res == FR_OK) res = (FRESULT)fp->err;
    4678:	89 2b       	or	r24, r25
    467a:	21 f4       	brne	.+8      	; 0x4684 <f_lseek+0x52>
    467c:	d8 01       	movw	r26, r16
    467e:	1f 96       	adiw	r26, 0x0f	; 15
    4680:	ac 90       	ld	r10, X
    4682:	b1 2c       	mov	r11, r1
#if _FS_EXFAT && !_FS_READONLY
	if (res == FR_OK && fs->fs_type == FS_EXFAT) {
		res = fill_last_frag(&fp->obj, fp->clust, 0xFFFFFFFF);	/* Fill last fragment on the FAT if needed */
	}
#endif
	if (res != FR_OK) LEAVE_FF(fs, res);
    4684:	a1 14       	cp	r10, r1
    4686:	b1 04       	cpc	r11, r1
    4688:	09 f0       	breq	.+2      	; 0x468c <f_lseek+0x5a>
    468a:	7e c1       	rjmp	.+764    	; 0x4988 <f_lseek+0x356>
	/* Normal Seek */
	{
#if _FS_EXFAT
		if (fs->fs_type != FS_EXFAT && ofs >= 0x100000000) ofs = 0xFFFFFFFF;	/* Clip at 4GiB-1 if at FATxx */
#endif
		if (ofs > fp->obj.objsize && (_FS_READONLY || !(fp->flag & FA_WRITE))) {	/* In read-only mode, clip offset with the file size */
    468c:	f8 01       	movw	r30, r16
    468e:	82 85       	ldd	r24, Z+10	; 0x0a
    4690:	93 85       	ldd	r25, Z+11	; 0x0b
    4692:	a4 85       	ldd	r26, Z+12	; 0x0c
    4694:	b5 85       	ldd	r27, Z+13	; 0x0d
    4696:	8c 15       	cp	r24, r12
    4698:	9d 05       	cpc	r25, r13
    469a:	ae 05       	cpc	r26, r14
    469c:	bf 05       	cpc	r27, r15
    469e:	28 f4       	brcc	.+10     	; 0x46aa <f_lseek+0x78>
    46a0:	26 85       	ldd	r18, Z+14	; 0x0e
    46a2:	21 fd       	sbrc	r18, 1
    46a4:	02 c0       	rjmp	.+4      	; 0x46aa <f_lseek+0x78>
			ofs = fp->obj.objsize;
    46a6:	6c 01       	movw	r12, r24
    46a8:	7d 01       	movw	r14, r26
		}
		ifptr = fp->fptr;
    46aa:	d8 01       	movw	r26, r16
    46ac:	50 96       	adiw	r26, 0x10	; 16
    46ae:	2d 91       	ld	r18, X+
    46b0:	3d 91       	ld	r19, X+
    46b2:	4d 91       	ld	r20, X+
    46b4:	5c 91       	ld	r21, X
    46b6:	53 97       	sbiw	r26, 0x13	; 19
    46b8:	2b 83       	std	Y+3, r18	; 0x03
    46ba:	3c 83       	std	Y+4, r19	; 0x04
    46bc:	4d 83       	std	Y+5, r20	; 0x05
    46be:	5e 83       	std	Y+6, r21	; 0x06
		fp->fptr = nsect = 0;
    46c0:	f8 01       	movw	r30, r16
    46c2:	10 8a       	std	Z+16, r1	; 0x10
    46c4:	11 8a       	std	Z+17, r1	; 0x11
    46c6:	12 8a       	std	Z+18, r1	; 0x12
    46c8:	13 8a       	std	Z+19, r1	; 0x13
		if (ofs) {
    46ca:	c1 14       	cp	r12, r1
    46cc:	d1 04       	cpc	r13, r1
    46ce:	e1 04       	cpc	r14, r1
    46d0:	f1 04       	cpc	r15, r1
    46d2:	09 f4       	brne	.+2      	; 0x46d6 <f_lseek+0xa4>
    46d4:	25 c1       	rjmp	.+586    	; 0x4920 <f_lseek+0x2ee>
			bcs = (DWORD)fs->csize * SS(fs);	/* Cluster size (byte) */
    46d6:	e9 81       	ldd	r30, Y+1	; 0x01
    46d8:	fa 81       	ldd	r31, Y+2	; 0x02
    46da:	41 84       	ldd	r4, Z+9	; 0x09
    46dc:	52 84       	ldd	r5, Z+10	; 0x0a
    46de:	61 2c       	mov	r6, r1
    46e0:	71 2c       	mov	r7, r1
    46e2:	03 2e       	mov	r0, r19
    46e4:	39 e0       	ldi	r19, 0x09	; 9
    46e6:	44 0c       	add	r4, r4
    46e8:	55 1c       	adc	r5, r5
    46ea:	66 1c       	adc	r6, r6
    46ec:	77 1c       	adc	r7, r7
    46ee:	3a 95       	dec	r19
    46f0:	d1 f7       	brne	.-12     	; 0x46e6 <f_lseek+0xb4>
    46f2:	30 2d       	mov	r19, r0
			if (ifptr > 0 &&
    46f4:	23 2b       	or	r18, r19
    46f6:	24 2b       	or	r18, r20
    46f8:	25 2b       	or	r18, r21
    46fa:	09 f4       	brne	.+2      	; 0x46fe <f_lseek+0xcc>
    46fc:	46 c0       	rjmp	.+140    	; 0x478a <f_lseek+0x158>
				(ofs - 1) / bcs >= (ifptr - 1) / bcs) {	/* When seek to same or following cluster, */
    46fe:	c7 01       	movw	r24, r14
    4700:	b6 01       	movw	r22, r12
    4702:	61 50       	subi	r22, 0x01	; 1
    4704:	71 09       	sbc	r23, r1
    4706:	81 09       	sbc	r24, r1
    4708:	91 09       	sbc	r25, r1
    470a:	a3 01       	movw	r20, r6
    470c:	92 01       	movw	r18, r4
    470e:	0e 94 90 2c 	call	0x5920	; 0x5920 <__udivmodsi4>
    4712:	2f 83       	std	Y+7, r18	; 0x07
    4714:	38 87       	std	Y+8, r19	; 0x08
    4716:	49 87       	std	Y+9, r20	; 0x09
    4718:	5a 87       	std	Y+10, r21	; 0x0a
    471a:	2b 81       	ldd	r18, Y+3	; 0x03
    471c:	3c 81       	ldd	r19, Y+4	; 0x04
    471e:	4d 81       	ldd	r20, Y+5	; 0x05
    4720:	5e 81       	ldd	r21, Y+6	; 0x06
    4722:	21 50       	subi	r18, 0x01	; 1
    4724:	31 09       	sbc	r19, r1
    4726:	41 09       	sbc	r20, r1
    4728:	51 09       	sbc	r21, r1
    472a:	2b 83       	std	Y+3, r18	; 0x03
    472c:	3c 83       	std	Y+4, r19	; 0x04
    472e:	4d 83       	std	Y+5, r20	; 0x05
    4730:	5e 83       	std	Y+6, r21	; 0x06
    4732:	ca 01       	movw	r24, r20
    4734:	b9 01       	movw	r22, r18
    4736:	a3 01       	movw	r20, r6
    4738:	92 01       	movw	r18, r4
    473a:	0e 94 90 2c 	call	0x5920	; 0x5920 <__udivmodsi4>
		}
		ifptr = fp->fptr;
		fp->fptr = nsect = 0;
		if (ofs) {
			bcs = (DWORD)fs->csize * SS(fs);	/* Cluster size (byte) */
			if (ifptr > 0 &&
    473e:	8f 81       	ldd	r24, Y+7	; 0x07
    4740:	98 85       	ldd	r25, Y+8	; 0x08
    4742:	a9 85       	ldd	r26, Y+9	; 0x09
    4744:	ba 85       	ldd	r27, Y+10	; 0x0a
    4746:	82 17       	cp	r24, r18
    4748:	93 07       	cpc	r25, r19
    474a:	a4 07       	cpc	r26, r20
    474c:	b5 07       	cpc	r27, r21
    474e:	e8 f0       	brcs	.+58     	; 0x478a <f_lseek+0x158>
				(ofs - 1) / bcs >= (ifptr - 1) / bcs) {	/* When seek to same or following cluster, */
				fp->fptr = (ifptr - 1) & ~(FSIZE_t)(bcs - 1);	/* start from the current cluster */
    4750:	88 27       	eor	r24, r24
    4752:	99 27       	eor	r25, r25
    4754:	dc 01       	movw	r26, r24
    4756:	84 19       	sub	r24, r4
    4758:	95 09       	sbc	r25, r5
    475a:	a6 09       	sbc	r26, r6
    475c:	b7 09       	sbc	r27, r7
    475e:	2b 81       	ldd	r18, Y+3	; 0x03
    4760:	3c 81       	ldd	r19, Y+4	; 0x04
    4762:	4d 81       	ldd	r20, Y+5	; 0x05
    4764:	5e 81       	ldd	r21, Y+6	; 0x06
    4766:	82 23       	and	r24, r18
    4768:	93 23       	and	r25, r19
    476a:	a4 23       	and	r26, r20
    476c:	b5 23       	and	r27, r21
    476e:	f8 01       	movw	r30, r16
    4770:	80 8b       	std	Z+16, r24	; 0x10
    4772:	91 8b       	std	Z+17, r25	; 0x11
    4774:	a2 8b       	std	Z+18, r26	; 0x12
    4776:	b3 8b       	std	Z+19, r27	; 0x13
				ofs -= fp->fptr;
    4778:	c8 1a       	sub	r12, r24
    477a:	d9 0a       	sbc	r13, r25
    477c:	ea 0a       	sbc	r14, r26
    477e:	fb 0a       	sbc	r15, r27
				clst = fp->clust;
    4780:	44 89       	ldd	r20, Z+20	; 0x14
    4782:	55 89       	ldd	r21, Z+21	; 0x15
    4784:	66 89       	ldd	r22, Z+22	; 0x16
    4786:	77 89       	ldd	r23, Z+23	; 0x17
    4788:	36 c0       	rjmp	.+108    	; 0x47f6 <f_lseek+0x1c4>
			} else {									/* When seek to back cluster, */
				clst = fp->obj.sclust;					/* start from the first cluster */
    478a:	d8 01       	movw	r26, r16
    478c:	16 96       	adiw	r26, 0x06	; 6
    478e:	4d 91       	ld	r20, X+
    4790:	5d 91       	ld	r21, X+
    4792:	6d 91       	ld	r22, X+
    4794:	7c 91       	ld	r23, X
    4796:	19 97       	sbiw	r26, 0x09	; 9
#if !_FS_READONLY
				if (clst == 0) {						/* If no cluster chain, create a new chain */
    4798:	41 15       	cp	r20, r1
    479a:	51 05       	cpc	r21, r1
    479c:	61 05       	cpc	r22, r1
    479e:	71 05       	cpc	r23, r1
    47a0:	19 f5       	brne	.+70     	; 0x47e8 <f_lseek+0x1b6>
					clst = create_chain(&fp->obj, 0);
    47a2:	40 e0       	ldi	r20, 0x00	; 0
    47a4:	50 e0       	ldi	r21, 0x00	; 0
    47a6:	ba 01       	movw	r22, r20
    47a8:	c8 01       	movw	r24, r16
    47aa:	0e 94 f9 16 	call	0x2df2	; 0x2df2 <create_chain>
    47ae:	ab 01       	movw	r20, r22
    47b0:	bc 01       	movw	r22, r24
					if (clst == 1) ABORT(fs, FR_INT_ERR);
    47b2:	41 30       	cpi	r20, 0x01	; 1
    47b4:	51 05       	cpc	r21, r1
    47b6:	61 05       	cpc	r22, r1
    47b8:	71 05       	cpc	r23, r1
    47ba:	29 f4       	brne	.+10     	; 0x47c6 <f_lseek+0x194>
    47bc:	82 e0       	ldi	r24, 0x02	; 2
    47be:	f8 01       	movw	r30, r16
    47c0:	87 87       	std	Z+15, r24	; 0x0f
    47c2:	90 e0       	ldi	r25, 0x00	; 0
    47c4:	e9 c0       	rjmp	.+466    	; 0x4998 <f_lseek+0x366>
					if (clst == 0xFFFFFFFF) ABORT(fs, FR_DISK_ERR);
    47c6:	4f 3f       	cpi	r20, 0xFF	; 255
    47c8:	ff ef       	ldi	r31, 0xFF	; 255
    47ca:	5f 07       	cpc	r21, r31
    47cc:	6f 07       	cpc	r22, r31
    47ce:	7f 07       	cpc	r23, r31
    47d0:	31 f4       	brne	.+12     	; 0x47de <f_lseek+0x1ac>
    47d2:	81 e0       	ldi	r24, 0x01	; 1
    47d4:	d8 01       	movw	r26, r16
    47d6:	1f 96       	adiw	r26, 0x0f	; 15
    47d8:	8c 93       	st	X, r24
    47da:	90 e0       	ldi	r25, 0x00	; 0
    47dc:	dd c0       	rjmp	.+442    	; 0x4998 <f_lseek+0x366>
					fp->obj.sclust = clst;
    47de:	f8 01       	movw	r30, r16
    47e0:	46 83       	std	Z+6, r20	; 0x06
    47e2:	57 83       	std	Z+7, r21	; 0x07
    47e4:	60 87       	std	Z+8, r22	; 0x08
    47e6:	71 87       	std	Z+9, r23	; 0x09
				}
#endif
				fp->clust = clst;
    47e8:	d8 01       	movw	r26, r16
    47ea:	54 96       	adiw	r26, 0x14	; 20
    47ec:	4d 93       	st	X+, r20
    47ee:	5d 93       	st	X+, r21
    47f0:	6d 93       	st	X+, r22
    47f2:	7c 93       	st	X, r23
    47f4:	57 97       	sbiw	r26, 0x17	; 23
			}
			if (clst != 0) {
    47f6:	41 15       	cp	r20, r1
    47f8:	51 05       	cpc	r21, r1
    47fa:	61 05       	cpc	r22, r1
    47fc:	71 05       	cpc	r23, r1
    47fe:	09 f0       	breq	.+2      	; 0x4802 <f_lseek+0x1d0>
    4800:	52 c0       	rjmp	.+164    	; 0x48a6 <f_lseek+0x274>
#endif
		if (ofs > fp->obj.objsize && (_FS_READONLY || !(fp->flag & FA_WRITE))) {	/* In read-only mode, clip offset with the file size */
			ofs = fp->obj.objsize;
		}
		ifptr = fp->fptr;
		fp->fptr = nsect = 0;
    4802:	c1 2c       	mov	r12, r1
    4804:	d1 2c       	mov	r13, r1
    4806:	76 01       	movw	r14, r12
    4808:	92 c0       	rjmp	.+292    	; 0x492e <f_lseek+0x2fc>
#endif
				fp->clust = clst;
			}
			if (clst != 0) {
				while (ofs > bcs) {						/* Cluster following loop */
					ofs -= bcs; fp->fptr += bcs;
    480a:	c4 18       	sub	r12, r4
    480c:	d5 08       	sbc	r13, r5
    480e:	e6 08       	sbc	r14, r6
    4810:	f7 08       	sbc	r15, r7
    4812:	f8 01       	movw	r30, r16
    4814:	80 89       	ldd	r24, Z+16	; 0x10
    4816:	91 89       	ldd	r25, Z+17	; 0x11
    4818:	a2 89       	ldd	r26, Z+18	; 0x12
    481a:	b3 89       	ldd	r27, Z+19	; 0x13
    481c:	84 0d       	add	r24, r4
    481e:	95 1d       	adc	r25, r5
    4820:	a6 1d       	adc	r26, r6
    4822:	b7 1d       	adc	r27, r7
    4824:	80 8b       	std	Z+16, r24	; 0x10
    4826:	91 8b       	std	Z+17, r25	; 0x11
    4828:	a2 8b       	std	Z+18, r26	; 0x12
    482a:	b3 8b       	std	Z+19, r27	; 0x13
#if !_FS_READONLY
					if (fp->flag & FA_WRITE) {			/* Check if in write mode or not */
    482c:	86 85       	ldd	r24, Z+14	; 0x0e
    482e:	81 ff       	sbrs	r24, 1
    4830:	0c c0       	rjmp	.+24     	; 0x484a <f_lseek+0x218>
						if (_FS_EXFAT && fp->fptr > fp->obj.objsize) {	/* No FAT chain object needs correct objsize to generate FAT value */
							fp->obj.objsize = fp->fptr;
							fp->flag |= FA_MODIFIED;
						}
						clst = create_chain(&fp->obj, clst);	/* Follow chain with forceed stretch */
    4832:	88 2d       	mov	r24, r8
    4834:	99 2d       	mov	r25, r9
    4836:	0e 94 f9 16 	call	0x2df2	; 0x2df2 <create_chain>
    483a:	ab 01       	movw	r20, r22
    483c:	bc 01       	movw	r22, r24
						if (clst == 0) {				/* Clip file size in case of disk full */
    483e:	41 15       	cp	r20, r1
    4840:	51 05       	cpc	r21, r1
    4842:	61 05       	cpc	r22, r1
    4844:	71 05       	cpc	r23, r1
    4846:	39 f4       	brne	.+14     	; 0x4856 <f_lseek+0x224>
    4848:	35 c0       	rjmp	.+106    	; 0x48b4 <f_lseek+0x282>
							ofs = 0; break;
						}
					} else
#endif
					{
						clst = get_fat(&fp->obj, clst);	/* Follow cluster chain if not in write mode */
    484a:	88 2d       	mov	r24, r8
    484c:	99 2d       	mov	r25, r9
    484e:	0e 94 2c 15 	call	0x2a58	; 0x2a58 <get_fat>
    4852:	ab 01       	movw	r20, r22
    4854:	bc 01       	movw	r22, r24
					}
					if (clst == 0xFFFFFFFF) ABORT(fs, FR_DISK_ERR);
    4856:	4f 3f       	cpi	r20, 0xFF	; 255
    4858:	ff ef       	ldi	r31, 0xFF	; 255
    485a:	5f 07       	cpc	r21, r31
    485c:	6f 07       	cpc	r22, r31
    485e:	7f 07       	cpc	r23, r31
    4860:	31 f4       	brne	.+12     	; 0x486e <f_lseek+0x23c>
    4862:	81 e0       	ldi	r24, 0x01	; 1
    4864:	d8 01       	movw	r26, r16
    4866:	1f 96       	adiw	r26, 0x0f	; 15
    4868:	8c 93       	st	X, r24
    486a:	90 e0       	ldi	r25, 0x00	; 0
    486c:	95 c0       	rjmp	.+298    	; 0x4998 <f_lseek+0x366>
					if (clst <= 1 || clst >= fs->n_fatent) ABORT(fs, FR_INT_ERR);
    486e:	42 30       	cpi	r20, 0x02	; 2
    4870:	51 05       	cpc	r21, r1
    4872:	61 05       	cpc	r22, r1
    4874:	71 05       	cpc	r23, r1
    4876:	58 f0       	brcs	.+22     	; 0x488e <f_lseek+0x25c>
    4878:	e9 81       	ldd	r30, Y+1	; 0x01
    487a:	fa 81       	ldd	r31, Y+2	; 0x02
    487c:	87 89       	ldd	r24, Z+23	; 0x17
    487e:	90 8d       	ldd	r25, Z+24	; 0x18
    4880:	a1 8d       	ldd	r26, Z+25	; 0x19
    4882:	b2 8d       	ldd	r27, Z+26	; 0x1a
    4884:	48 17       	cp	r20, r24
    4886:	59 07       	cpc	r21, r25
    4888:	6a 07       	cpc	r22, r26
    488a:	7b 07       	cpc	r23, r27
    488c:	28 f0       	brcs	.+10     	; 0x4898 <f_lseek+0x266>
    488e:	82 e0       	ldi	r24, 0x02	; 2
    4890:	f8 01       	movw	r30, r16
    4892:	87 87       	std	Z+15, r24	; 0x0f
    4894:	90 e0       	ldi	r25, 0x00	; 0
    4896:	80 c0       	rjmp	.+256    	; 0x4998 <f_lseek+0x366>
					fp->clust = clst;
    4898:	d8 01       	movw	r26, r16
    489a:	54 96       	adiw	r26, 0x14	; 20
    489c:	4d 93       	st	X+, r20
    489e:	5d 93       	st	X+, r21
    48a0:	6d 93       	st	X+, r22
    48a2:	7c 93       	st	X, r23
    48a4:	57 97       	sbiw	r26, 0x17	; 23
				}
#endif
				fp->clust = clst;
			}
			if (clst != 0) {
				while (ofs > bcs) {						/* Cluster following loop */
    48a6:	4c 14       	cp	r4, r12
    48a8:	5d 04       	cpc	r5, r13
    48aa:	6e 04       	cpc	r6, r14
    48ac:	7f 04       	cpc	r7, r15
    48ae:	08 f4       	brcc	.+2      	; 0x48b2 <f_lseek+0x280>
    48b0:	ac cf       	rjmp	.-168    	; 0x480a <f_lseek+0x1d8>
    48b2:	03 c0       	rjmp	.+6      	; 0x48ba <f_lseek+0x288>
							fp->obj.objsize = fp->fptr;
							fp->flag |= FA_MODIFIED;
						}
						clst = create_chain(&fp->obj, clst);	/* Follow chain with forceed stretch */
						if (clst == 0) {				/* Clip file size in case of disk full */
							ofs = 0; break;
    48b4:	c1 2c       	mov	r12, r1
    48b6:	d1 2c       	mov	r13, r1
    48b8:	76 01       	movw	r14, r12
					}
					if (clst == 0xFFFFFFFF) ABORT(fs, FR_DISK_ERR);
					if (clst <= 1 || clst >= fs->n_fatent) ABORT(fs, FR_INT_ERR);
					fp->clust = clst;
				}
				fp->fptr += ofs;
    48ba:	f8 01       	movw	r30, r16
    48bc:	80 89       	ldd	r24, Z+16	; 0x10
    48be:	91 89       	ldd	r25, Z+17	; 0x11
    48c0:	a2 89       	ldd	r26, Z+18	; 0x12
    48c2:	b3 89       	ldd	r27, Z+19	; 0x13
    48c4:	8c 0d       	add	r24, r12
    48c6:	9d 1d       	adc	r25, r13
    48c8:	ae 1d       	adc	r26, r14
    48ca:	bf 1d       	adc	r27, r15
    48cc:	80 8b       	std	Z+16, r24	; 0x10
    48ce:	91 8b       	std	Z+17, r25	; 0x11
    48d0:	a2 8b       	std	Z+18, r26	; 0x12
    48d2:	b3 8b       	std	Z+19, r27	; 0x13
				if (ofs % SS(fs)) {
    48d4:	d7 01       	movw	r26, r14
    48d6:	c6 01       	movw	r24, r12
    48d8:	91 70       	andi	r25, 0x01	; 1
    48da:	aa 27       	eor	r26, r26
    48dc:	bb 27       	eor	r27, r27
    48de:	89 2b       	or	r24, r25
    48e0:	8a 2b       	or	r24, r26
    48e2:	8b 2b       	or	r24, r27
    48e4:	09 f1       	breq	.+66     	; 0x4928 <f_lseek+0x2f6>
					nsect = clust2sect(fs, clst);	/* Current sector */
    48e6:	89 81       	ldd	r24, Y+1	; 0x01
    48e8:	9a 81       	ldd	r25, Y+2	; 0x02
    48ea:	0e 94 3b 0e 	call	0x1c76	; 0x1c76 <clust2sect>
					if (!nsect) ABORT(fs, FR_INT_ERR);
    48ee:	61 15       	cp	r22, r1
    48f0:	71 05       	cpc	r23, r1
    48f2:	81 05       	cpc	r24, r1
    48f4:	91 05       	cpc	r25, r1
    48f6:	31 f4       	brne	.+12     	; 0x4904 <f_lseek+0x2d2>
    48f8:	82 e0       	ldi	r24, 0x02	; 2
    48fa:	d8 01       	movw	r26, r16
    48fc:	1f 96       	adiw	r26, 0x0f	; 15
    48fe:	8c 93       	st	X, r24
    4900:	90 e0       	ldi	r25, 0x00	; 0
    4902:	4a c0       	rjmp	.+148    	; 0x4998 <f_lseek+0x366>
					nsect += (DWORD)(ofs / SS(fs));
    4904:	0b 2e       	mov	r0, r27
    4906:	b9 e0       	ldi	r27, 0x09	; 9
    4908:	f6 94       	lsr	r15
    490a:	e7 94       	ror	r14
    490c:	d7 94       	ror	r13
    490e:	c7 94       	ror	r12
    4910:	ba 95       	dec	r27
    4912:	d1 f7       	brne	.-12     	; 0x4908 <f_lseek+0x2d6>
    4914:	b0 2d       	mov	r27, r0
    4916:	c6 0e       	add	r12, r22
    4918:	d7 1e       	adc	r13, r23
    491a:	e8 1e       	adc	r14, r24
    491c:	f9 1e       	adc	r15, r25
    491e:	07 c0       	rjmp	.+14     	; 0x492e <f_lseek+0x2fc>
#endif
		if (ofs > fp->obj.objsize && (_FS_READONLY || !(fp->flag & FA_WRITE))) {	/* In read-only mode, clip offset with the file size */
			ofs = fp->obj.objsize;
		}
		ifptr = fp->fptr;
		fp->fptr = nsect = 0;
    4920:	c1 2c       	mov	r12, r1
    4922:	d1 2c       	mov	r13, r1
    4924:	76 01       	movw	r14, r12
    4926:	03 c0       	rjmp	.+6      	; 0x492e <f_lseek+0x2fc>
    4928:	c1 2c       	mov	r12, r1
    492a:	d1 2c       	mov	r13, r1
    492c:	76 01       	movw	r14, r12
					if (!nsect) ABORT(fs, FR_INT_ERR);
					nsect += (DWORD)(ofs / SS(fs));
				}
			}
		}
		if (!_FS_READONLY && fp->fptr > fp->obj.objsize) {		/* Set file change flag if the file size is extended */
    492e:	f8 01       	movw	r30, r16
    4930:	80 89       	ldd	r24, Z+16	; 0x10
    4932:	91 89       	ldd	r25, Z+17	; 0x11
    4934:	a2 89       	ldd	r26, Z+18	; 0x12
    4936:	b3 89       	ldd	r27, Z+19	; 0x13
    4938:	42 85       	ldd	r20, Z+10	; 0x0a
    493a:	53 85       	ldd	r21, Z+11	; 0x0b
    493c:	64 85       	ldd	r22, Z+12	; 0x0c
    493e:	75 85       	ldd	r23, Z+13	; 0x0d
    4940:	48 17       	cp	r20, r24
    4942:	59 07       	cpc	r21, r25
    4944:	6a 07       	cpc	r22, r26
    4946:	7b 07       	cpc	r23, r27
    4948:	38 f4       	brcc	.+14     	; 0x4958 <f_lseek+0x326>
			fp->obj.objsize = fp->fptr;
    494a:	82 87       	std	Z+10, r24	; 0x0a
    494c:	93 87       	std	Z+11, r25	; 0x0b
    494e:	a4 87       	std	Z+12, r26	; 0x0c
    4950:	b5 87       	std	Z+13, r27	; 0x0d
			fp->flag |= FA_MODIFIED;
    4952:	26 85       	ldd	r18, Z+14	; 0x0e
    4954:	20 64       	ori	r18, 0x40	; 64
    4956:	26 87       	std	Z+14, r18	; 0x0e
		}
		if (fp->fptr % SS(fs) && nsect != fp->sect) {	/* Fill sector cache if needed */
    4958:	91 70       	andi	r25, 0x01	; 1
    495a:	aa 27       	eor	r26, r26
    495c:	bb 27       	eor	r27, r27
    495e:	89 2b       	or	r24, r25
    4960:	8a 2b       	or	r24, r26
    4962:	8b 2b       	or	r24, r27
    4964:	a1 f0       	breq	.+40     	; 0x498e <f_lseek+0x35c>
    4966:	f8 01       	movw	r30, r16
    4968:	80 8d       	ldd	r24, Z+24	; 0x18
    496a:	91 8d       	ldd	r25, Z+25	; 0x19
    496c:	a2 8d       	ldd	r26, Z+26	; 0x1a
    496e:	b3 8d       	ldd	r27, Z+27	; 0x1b
    4970:	c8 16       	cp	r12, r24
    4972:	d9 06       	cpc	r13, r25
    4974:	ea 06       	cpc	r14, r26
    4976:	fb 06       	cpc	r15, r27
    4978:	69 f0       	breq	.+26     	; 0x4994 <f_lseek+0x362>
				fp->flag &= (BYTE)~FA_DIRTY;
			}
#endif
			if (disk_read(fs->drv, fp->buf, nsect, 1) != RES_OK) ABORT(fs, FR_DISK_ERR);	/* Fill sector cache */
#endif
			fp->sect = nsect;
    497a:	c0 8e       	std	Z+24, r12	; 0x18
    497c:	d1 8e       	std	Z+25, r13	; 0x19
    497e:	e2 8e       	std	Z+26, r14	; 0x1a
    4980:	f3 8e       	std	Z+27, r15	; 0x1b
		}
	}

	LEAVE_FF(fs, res);
    4982:	8a 2d       	mov	r24, r10
    4984:	9b 2d       	mov	r25, r11
    4986:	08 c0       	rjmp	.+16     	; 0x4998 <f_lseek+0x366>
#if _FS_EXFAT && !_FS_READONLY
	if (res == FR_OK && fs->fs_type == FS_EXFAT) {
		res = fill_last_frag(&fp->obj, fp->clust, 0xFFFFFFFF);	/* Fill last fragment on the FAT if needed */
	}
#endif
	if (res != FR_OK) LEAVE_FF(fs, res);
    4988:	8a 2d       	mov	r24, r10
    498a:	9b 2d       	mov	r25, r11
    498c:	05 c0       	rjmp	.+10     	; 0x4998 <f_lseek+0x366>
#endif
			fp->sect = nsect;
		}
	}

	LEAVE_FF(fs, res);
    498e:	8a 2d       	mov	r24, r10
    4990:	9b 2d       	mov	r25, r11
    4992:	02 c0       	rjmp	.+4      	; 0x4998 <f_lseek+0x366>
    4994:	8a 2d       	mov	r24, r10
    4996:	9b 2d       	mov	r25, r11
}
    4998:	2a 96       	adiw	r28, 0x0a	; 10
    499a:	0f b6       	in	r0, 0x3f	; 63
    499c:	f8 94       	cli
    499e:	de bf       	out	0x3e, r29	; 62
    49a0:	0f be       	out	0x3f, r0	; 63
    49a2:	cd bf       	out	0x3d, r28	; 61
    49a4:	df 91       	pop	r29
    49a6:	cf 91       	pop	r28
    49a8:	1f 91       	pop	r17
    49aa:	0f 91       	pop	r16
    49ac:	ff 90       	pop	r15
    49ae:	ef 90       	pop	r14
    49b0:	df 90       	pop	r13
    49b2:	cf 90       	pop	r12
    49b4:	bf 90       	pop	r11
    49b6:	af 90       	pop	r10
    49b8:	9f 90       	pop	r9
    49ba:	8f 90       	pop	r8
    49bc:	7f 90       	pop	r7
    49be:	6f 90       	pop	r6
    49c0:	5f 90       	pop	r5
    49c2:	4f 90       	pop	r4
    49c4:	08 95       	ret

000049c6 <f_opendir>:

FRESULT f_opendir (
	DIR* dp,			/* Pointer to directory object to create */
	const TCHAR* path	/* Pointer to the directory path */
)
{
    49c6:	ef 92       	push	r14
    49c8:	ff 92       	push	r15
    49ca:	0f 93       	push	r16
    49cc:	1f 93       	push	r17
    49ce:	cf 93       	push	r28
    49d0:	df 93       	push	r29
    49d2:	00 d0       	rcall	.+0      	; 0x49d4 <f_opendir+0xe>
    49d4:	00 d0       	rcall	.+0      	; 0x49d6 <f_opendir+0x10>
    49d6:	cd b7       	in	r28, 0x3d	; 61
    49d8:	de b7       	in	r29, 0x3e	; 62
    49da:	7c 83       	std	Y+4, r23	; 0x04
    49dc:	6b 83       	std	Y+3, r22	; 0x03
	FATFS *fs;
	_FDID *obj;
	DEF_NAMBUF


	if (!dp) return FR_INVALID_OBJECT;
    49de:	00 97       	sbiw	r24, 0x00	; 0
    49e0:	09 f4       	brne	.+2      	; 0x49e4 <f_opendir+0x1e>
    49e2:	4d c0       	rjmp	.+154    	; 0x4a7e <f_opendir+0xb8>
    49e4:	7c 01       	movw	r14, r24

	/* Get logical drive */
	obj = &dp->obj;
	res = find_volume(&path, &fs, 0);
    49e6:	40 e0       	ldi	r20, 0x00	; 0
    49e8:	be 01       	movw	r22, r28
    49ea:	6f 5f       	subi	r22, 0xFF	; 255
    49ec:	7f 4f       	sbci	r23, 0xFF	; 255
    49ee:	ce 01       	movw	r24, r28
    49f0:	03 96       	adiw	r24, 0x03	; 3
    49f2:	0e 94 39 11 	call	0x2272	; 0x2272 <find_volume>
    49f6:	8c 01       	movw	r16, r24
	if (res == FR_OK) {
    49f8:	89 2b       	or	r24, r25
    49fa:	c1 f5       	brne	.+112    	; 0x4a6c <f_opendir+0xa6>
		obj->fs = fs;
    49fc:	89 81       	ldd	r24, Y+1	; 0x01
    49fe:	9a 81       	ldd	r25, Y+2	; 0x02
    4a00:	f7 01       	movw	r30, r14
    4a02:	91 83       	std	Z+1, r25	; 0x01
    4a04:	80 83       	st	Z, r24
		INIT_NAMBUF(fs);
		res = follow_path(dp, path);			/* Follow the path to the directory */
    4a06:	6b 81       	ldd	r22, Y+3	; 0x03
    4a08:	7c 81       	ldd	r23, Y+4	; 0x04
    4a0a:	c7 01       	movw	r24, r14
    4a0c:	0e 94 1d 1a 	call	0x343a	; 0x343a <follow_path>
    4a10:	8c 01       	movw	r16, r24
		if (res == FR_OK) {						/* Follow completed */
    4a12:	89 2b       	or	r24, r25
    4a14:	31 f5       	brne	.+76     	; 0x4a62 <f_opendir+0x9c>
			if (!(dp->fn[NSFLAG] & NS_NONAME)) {	/* It is not the origin directory itself */
    4a16:	f7 01       	movw	r30, r14
    4a18:	87 a1       	ldd	r24, Z+39	; 0x27
    4a1a:	88 23       	and	r24, r24
    4a1c:	8c f0       	brlt	.+34     	; 0x4a40 <f_opendir+0x7a>
				if (obj->attr & AM_DIR) {		/* This object is a sub-directory */
    4a1e:	84 81       	ldd	r24, Z+4	; 0x04
    4a20:	84 ff       	sbrs	r24, 4
    4a22:	0c c0       	rjmp	.+24     	; 0x4a3c <f_opendir+0x76>
						obj->objsize = ld_qword(fs->dirbuf + XDIR_FileSize);
						obj->stat = fs->dirbuf[XDIR_GenFlags] & 2;
					} else
#endif
					{
						obj->sclust = ld_clust(fs, dp->dir);	/* Get object allocation info */
    4a24:	62 8d       	ldd	r22, Z+26	; 0x1a
    4a26:	73 8d       	ldd	r23, Z+27	; 0x1b
    4a28:	89 81       	ldd	r24, Y+1	; 0x01
    4a2a:	9a 81       	ldd	r25, Y+2	; 0x02
    4a2c:	0e 94 63 0e 	call	0x1cc6	; 0x1cc6 <ld_clust>
    4a30:	f7 01       	movw	r30, r14
    4a32:	66 83       	std	Z+6, r22	; 0x06
    4a34:	77 83       	std	Z+7, r23	; 0x07
    4a36:	80 87       	std	Z+8, r24	; 0x08
    4a38:	91 87       	std	Z+9, r25	; 0x09
    4a3a:	02 c0       	rjmp	.+4      	; 0x4a40 <f_opendir+0x7a>
					}
				} else {						/* This object is a file */
					res = FR_NO_PATH;
    4a3c:	05 e0       	ldi	r16, 0x05	; 5
    4a3e:	10 e0       	ldi	r17, 0x00	; 0
				}
			}
			if (res == FR_OK) {
    4a40:	01 15       	cp	r16, r1
    4a42:	11 05       	cpc	r17, r1
    4a44:	71 f4       	brne	.+28     	; 0x4a62 <f_opendir+0x9c>
				obj->id = fs->id;
    4a46:	e9 81       	ldd	r30, Y+1	; 0x01
    4a48:	fa 81       	ldd	r31, Y+2	; 0x02
    4a4a:	85 81       	ldd	r24, Z+5	; 0x05
    4a4c:	96 81       	ldd	r25, Z+6	; 0x06
    4a4e:	f7 01       	movw	r30, r14
    4a50:	93 83       	std	Z+3, r25	; 0x03
    4a52:	82 83       	std	Z+2, r24	; 0x02
				res = dir_sdi(dp, 0);			/* Rewind directory */
    4a54:	40 e0       	ldi	r20, 0x00	; 0
    4a56:	50 e0       	ldi	r21, 0x00	; 0
    4a58:	ba 01       	movw	r22, r20
    4a5a:	c7 01       	movw	r24, r14
    4a5c:	0e 94 0c 16 	call	0x2c18	; 0x2c18 <dir_sdi>
    4a60:	8c 01       	movw	r16, r24
				}
#endif
			}
		}
		FREE_NAMBUF();
		if (res == FR_NO_FILE) res = FR_NO_PATH;
    4a62:	04 30       	cpi	r16, 0x04	; 4
    4a64:	11 05       	cpc	r17, r1
    4a66:	11 f4       	brne	.+4      	; 0x4a6c <f_opendir+0xa6>
    4a68:	05 e0       	ldi	r16, 0x05	; 5
    4a6a:	10 e0       	ldi	r17, 0x00	; 0
	}
	if (res != FR_OK) obj->fs = 0;		/* Invalidate the directory object if function faild */
    4a6c:	01 15       	cp	r16, r1
    4a6e:	11 05       	cpc	r17, r1
    4a70:	49 f0       	breq	.+18     	; 0x4a84 <f_opendir+0xbe>
    4a72:	f7 01       	movw	r30, r14
    4a74:	11 82       	std	Z+1, r1	; 0x01
    4a76:	10 82       	st	Z, r1

	LEAVE_FF(fs, res);
    4a78:	80 2f       	mov	r24, r16
    4a7a:	91 2f       	mov	r25, r17
    4a7c:	05 c0       	rjmp	.+10     	; 0x4a88 <f_opendir+0xc2>
	FATFS *fs;
	_FDID *obj;
	DEF_NAMBUF


	if (!dp) return FR_INVALID_OBJECT;
    4a7e:	89 e0       	ldi	r24, 0x09	; 9
    4a80:	90 e0       	ldi	r25, 0x00	; 0
    4a82:	02 c0       	rjmp	.+4      	; 0x4a88 <f_opendir+0xc2>
		FREE_NAMBUF();
		if (res == FR_NO_FILE) res = FR_NO_PATH;
	}
	if (res != FR_OK) obj->fs = 0;		/* Invalidate the directory object if function faild */

	LEAVE_FF(fs, res);
    4a84:	80 2f       	mov	r24, r16
    4a86:	91 2f       	mov	r25, r17
}
    4a88:	0f 90       	pop	r0
    4a8a:	0f 90       	pop	r0
    4a8c:	0f 90       	pop	r0
    4a8e:	0f 90       	pop	r0
    4a90:	df 91       	pop	r29
    4a92:	cf 91       	pop	r28
    4a94:	1f 91       	pop	r17
    4a96:	0f 91       	pop	r16
    4a98:	ff 90       	pop	r15
    4a9a:	ef 90       	pop	r14
    4a9c:	08 95       	ret

00004a9e <f_closedir>:
/*-----------------------------------------------------------------------*/

FRESULT f_closedir (
	DIR *dp		/* Pointer to the directory object to be closed */
)
{
    4a9e:	0f 93       	push	r16
    4aa0:	1f 93       	push	r17
    4aa2:	cf 93       	push	r28
    4aa4:	df 93       	push	r29
    4aa6:	00 d0       	rcall	.+0      	; 0x4aa8 <f_closedir+0xa>
    4aa8:	cd b7       	in	r28, 0x3d	; 61
    4aaa:	de b7       	in	r29, 0x3e	; 62
    4aac:	8c 01       	movw	r16, r24
	FRESULT res;
	FATFS *fs;


	res = validate(&dp->obj, &fs);			/* Check validity of the file object */
    4aae:	be 01       	movw	r22, r28
    4ab0:	6f 5f       	subi	r22, 0xFF	; 255
    4ab2:	7f 4f       	sbci	r23, 0xFF	; 255
    4ab4:	0e 94 22 10 	call	0x2044	; 0x2044 <validate>
	if (res == FR_OK) {
    4ab8:	00 97       	sbiw	r24, 0x00	; 0
    4aba:	19 f4       	brne	.+6      	; 0x4ac2 <f_closedir+0x24>
			res = dec_lock(dp->obj.lockid);
		}
		if (res == FR_OK)
#endif
		{
			dp->obj.fs = 0;			/* Invalidate directory object */
    4abc:	f8 01       	movw	r30, r16
    4abe:	11 82       	std	Z+1, r1	; 0x01
    4ac0:	10 82       	st	Z, r1
#if _FS_REENTRANT
		unlock_fs(fs, FR_OK);		/* Unlock volume */
#endif
	}
	return res;
}
    4ac2:	0f 90       	pop	r0
    4ac4:	0f 90       	pop	r0
    4ac6:	df 91       	pop	r29
    4ac8:	cf 91       	pop	r28
    4aca:	1f 91       	pop	r17
    4acc:	0f 91       	pop	r16
    4ace:	08 95       	ret

00004ad0 <f_readdir>:

FRESULT f_readdir (
	DIR* dp,			/* Pointer to the open directory object */
	FILINFO* fno		/* Pointer to file information to return */
)
{
    4ad0:	cf 92       	push	r12
    4ad2:	df 92       	push	r13
    4ad4:	ef 92       	push	r14
    4ad6:	ff 92       	push	r15
    4ad8:	0f 93       	push	r16
    4ada:	1f 93       	push	r17
    4adc:	cf 93       	push	r28
    4ade:	df 93       	push	r29
    4ae0:	00 d0       	rcall	.+0      	; 0x4ae2 <f_readdir+0x12>
    4ae2:	cd b7       	in	r28, 0x3d	; 61
    4ae4:	de b7       	in	r29, 0x3e	; 62
    4ae6:	7c 01       	movw	r14, r24
    4ae8:	6b 01       	movw	r12, r22
	FRESULT res;
	FATFS *fs;
	DEF_NAMBUF


	res = validate(&dp->obj, &fs);	/* Check validity of the directory object */
    4aea:	be 01       	movw	r22, r28
    4aec:	6f 5f       	subi	r22, 0xFF	; 255
    4aee:	7f 4f       	sbci	r23, 0xFF	; 255
    4af0:	0e 94 22 10 	call	0x2044	; 0x2044 <validate>
    4af4:	8c 01       	movw	r16, r24
	if (res == FR_OK) {
    4af6:	89 2b       	or	r24, r25
    4af8:	21 f5       	brne	.+72     	; 0x4b42 <f_readdir+0x72>
		if (!fno) {
    4afa:	c1 14       	cp	r12, r1
    4afc:	d1 04       	cpc	r13, r1
    4afe:	41 f4       	brne	.+16     	; 0x4b10 <f_readdir+0x40>
			res = dir_sdi(dp, 0);			/* Rewind the directory object */
    4b00:	40 e0       	ldi	r20, 0x00	; 0
    4b02:	50 e0       	ldi	r21, 0x00	; 0
    4b04:	ba 01       	movw	r22, r20
    4b06:	c7 01       	movw	r24, r14
    4b08:	0e 94 0c 16 	call	0x2c18	; 0x2c18 <dir_sdi>
    4b0c:	8c 01       	movw	r16, r24
    4b0e:	19 c0       	rjmp	.+50     	; 0x4b42 <f_readdir+0x72>
		} else {
			INIT_NAMBUF(fs);
			res = dir_read(dp, 0);			/* Read an item */
    4b10:	60 e0       	ldi	r22, 0x00	; 0
    4b12:	70 e0       	ldi	r23, 0x00	; 0
    4b14:	c7 01       	movw	r24, r14
    4b16:	0e 94 2b 1b 	call	0x3656	; 0x3656 <dir_read>
			if (res == FR_NO_FILE) res = FR_OK;	/* Ignore end of directory */
    4b1a:	84 30       	cpi	r24, 0x04	; 4
    4b1c:	91 05       	cpc	r25, r1
    4b1e:	09 f0       	breq	.+2      	; 0x4b22 <f_readdir+0x52>
	if (res == FR_OK) {
		if (!fno) {
			res = dir_sdi(dp, 0);			/* Rewind the directory object */
		} else {
			INIT_NAMBUF(fs);
			res = dir_read(dp, 0);			/* Read an item */
    4b20:	8c 01       	movw	r16, r24
			if (res == FR_NO_FILE) res = FR_OK;	/* Ignore end of directory */
			if (res == FR_OK) {				/* A valid entry is found */
    4b22:	01 15       	cp	r16, r1
    4b24:	11 05       	cpc	r17, r1
    4b26:	69 f4       	brne	.+26     	; 0x4b42 <f_readdir+0x72>
				get_fileinfo(dp, fno);		/* Get the object information */
    4b28:	b6 01       	movw	r22, r12
    4b2a:	c7 01       	movw	r24, r14
    4b2c:	0e 94 b1 0e 	call	0x1d62	; 0x1d62 <get_fileinfo>
				res = dir_next(dp, 0);		/* Increment index for next */
    4b30:	60 e0       	ldi	r22, 0x00	; 0
    4b32:	70 e0       	ldi	r23, 0x00	; 0
    4b34:	c7 01       	movw	r24, r14
    4b36:	0e 94 96 18 	call	0x312c	; 0x312c <dir_next>
				if (res == FR_NO_FILE) res = FR_OK;	/* Ignore end of directory now */
    4b3a:	84 30       	cpi	r24, 0x04	; 4
    4b3c:	91 05       	cpc	r25, r1
    4b3e:	09 f0       	breq	.+2      	; 0x4b42 <f_readdir+0x72>
			INIT_NAMBUF(fs);
			res = dir_read(dp, 0);			/* Read an item */
			if (res == FR_NO_FILE) res = FR_OK;	/* Ignore end of directory */
			if (res == FR_OK) {				/* A valid entry is found */
				get_fileinfo(dp, fno);		/* Get the object information */
				res = dir_next(dp, 0);		/* Increment index for next */
    4b40:	8c 01       	movw	r16, r24
			}
			FREE_NAMBUF();
		}
	}
	LEAVE_FF(fs, res);
}
    4b42:	c8 01       	movw	r24, r16
    4b44:	0f 90       	pop	r0
    4b46:	0f 90       	pop	r0
    4b48:	df 91       	pop	r29
    4b4a:	cf 91       	pop	r28
    4b4c:	1f 91       	pop	r17
    4b4e:	0f 91       	pop	r16
    4b50:	ff 90       	pop	r15
    4b52:	ef 90       	pop	r14
    4b54:	df 90       	pop	r13
    4b56:	cf 90       	pop	r12
    4b58:	08 95       	ret

00004b5a <xchg_spi>:
static
BYTE xchg_spi (		/* Returns received data */
	BYTE dat		/* Data to be sent */
)
{
	SPDR = dat;
    4b5a:	8e bd       	out	0x2e, r24	; 46
	loop_until_bit_is_set(SPSR, SPIF);
    4b5c:	0d b4       	in	r0, 0x2d	; 45
    4b5e:	07 fe       	sbrs	r0, 7
    4b60:	fd cf       	rjmp	.-6      	; 0x4b5c <xchg_spi+0x2>
	return SPDR;
    4b62:	8e b5       	in	r24, 0x2e	; 46
}
    4b64:	08 95       	ret

00004b66 <rcvr_spi_multi>:
static
void rcvr_spi_multi (
	BYTE *p,	/* Data read buffer */
	UINT cnt	/* Size of data block */
)
{
    4b66:	fc 01       	movw	r30, r24
    4b68:	01 c0       	rjmp	.+2      	; 0x4b6c <rcvr_spi_multi+0x6>
		SPDR = 0xFF;
		loop_until_bit_is_set(SPSR, SPIF);
		*p++ = SPDR;
		SPDR = 0xFF;
		loop_until_bit_is_set(SPSR, SPIF);
		*p++ = SPDR;
    4b6a:	f9 01       	movw	r30, r18
	BYTE *p,	/* Data read buffer */
	UINT cnt	/* Size of data block */
)
{
	do {
		SPDR = 0xFF;
    4b6c:	8f ef       	ldi	r24, 0xFF	; 255
    4b6e:	8e bd       	out	0x2e, r24	; 46
		loop_until_bit_is_set(SPSR, SPIF);
    4b70:	0d b4       	in	r0, 0x2d	; 45
    4b72:	07 fe       	sbrs	r0, 7
    4b74:	fd cf       	rjmp	.-6      	; 0x4b70 <rcvr_spi_multi+0xa>
		*p++ = SPDR;
    4b76:	8e b5       	in	r24, 0x2e	; 46
    4b78:	80 83       	st	Z, r24
		SPDR = 0xFF;
    4b7a:	8f ef       	ldi	r24, 0xFF	; 255
    4b7c:	8e bd       	out	0x2e, r24	; 46
		loop_until_bit_is_set(SPSR, SPIF);
    4b7e:	0d b4       	in	r0, 0x2d	; 45
    4b80:	07 fe       	sbrs	r0, 7
    4b82:	fd cf       	rjmp	.-6      	; 0x4b7e <rcvr_spi_multi+0x18>
		*p++ = SPDR;
    4b84:	9f 01       	movw	r18, r30
    4b86:	2e 5f       	subi	r18, 0xFE	; 254
    4b88:	3f 4f       	sbci	r19, 0xFF	; 255
    4b8a:	8e b5       	in	r24, 0x2e	; 46
    4b8c:	81 83       	std	Z+1, r24	; 0x01
	} while (cnt -= 2);
    4b8e:	62 50       	subi	r22, 0x02	; 2
    4b90:	71 09       	sbc	r23, r1
    4b92:	59 f7       	brne	.-42     	; 0x4b6a <rcvr_spi_multi+0x4>
}
    4b94:	08 95       	ret

00004b96 <xmit_spi_multi>:
static
void xmit_spi_multi (
	const BYTE *p,	/* Data block to be sent */
	UINT cnt		/* Size of data block */
)
{
    4b96:	fc 01       	movw	r30, r24
    4b98:	01 c0       	rjmp	.+2      	; 0x4b9c <xmit_spi_multi+0x6>
	do {
		SPDR = *p++;
		loop_until_bit_is_set(SPSR, SPIF);
		SPDR = *p++;
    4b9a:	f9 01       	movw	r30, r18
	const BYTE *p,	/* Data block to be sent */
	UINT cnt		/* Size of data block */
)
{
	do {
		SPDR = *p++;
    4b9c:	80 81       	ld	r24, Z
    4b9e:	8e bd       	out	0x2e, r24	; 46
		loop_until_bit_is_set(SPSR, SPIF);
    4ba0:	0d b4       	in	r0, 0x2d	; 45
    4ba2:	07 fe       	sbrs	r0, 7
    4ba4:	fd cf       	rjmp	.-6      	; 0x4ba0 <xmit_spi_multi+0xa>
		SPDR = *p++;
    4ba6:	9f 01       	movw	r18, r30
    4ba8:	2e 5f       	subi	r18, 0xFE	; 254
    4baa:	3f 4f       	sbci	r19, 0xFF	; 255
    4bac:	81 81       	ldd	r24, Z+1	; 0x01
    4bae:	8e bd       	out	0x2e, r24	; 46
		loop_until_bit_is_set(SPSR, SPIF);
    4bb0:	0d b4       	in	r0, 0x2d	; 45
    4bb2:	07 fe       	sbrs	r0, 7
    4bb4:	fd cf       	rjmp	.-6      	; 0x4bb0 <xmit_spi_multi+0x1a>
	} while (cnt -= 2);
    4bb6:	62 50       	subi	r22, 0x02	; 2
    4bb8:	71 09       	sbc	r23, r1
    4bba:	79 f7       	brne	.-34     	; 0x4b9a <xmit_spi_multi+0x4>
}
    4bbc:	08 95       	ret

00004bbe <wait_ready>:
)
{
	BYTE d;


	Timer2 = wt / 10;
    4bbe:	9c 01       	movw	r18, r24
    4bc0:	ad ec       	ldi	r26, 0xCD	; 205
    4bc2:	bc ec       	ldi	r27, 0xCC	; 204
    4bc4:	d5 d6       	rcall	.+3498   	; 0x5970 <__umulhisi3>
    4bc6:	96 95       	lsr	r25
    4bc8:	87 95       	ror	r24
    4bca:	96 95       	lsr	r25
    4bcc:	87 95       	ror	r24
    4bce:	96 95       	lsr	r25
    4bd0:	87 95       	ror	r24
    4bd2:	80 93 12 02 	sts	0x0212, r24	; 0x800212 <Timer2>
	do
		d = xchg_spi(0xFF);
    4bd6:	8f ef       	ldi	r24, 0xFF	; 255

		/* This loop takes a time. Insert rot_rdq() here for multitask envilonment. */

	while (d != 0xFF && Timer2);
    4bd8:	c0 df       	rcall	.-128    	; 0x4b5a <xchg_spi>
    4bda:	8f 3f       	cpi	r24, 0xFF	; 255
    4bdc:	21 f0       	breq	.+8      	; 0x4be6 <wait_ready+0x28>
    4bde:	90 91 12 02 	lds	r25, 0x0212	; 0x800212 <Timer2>
    4be2:	91 11       	cpse	r25, r1

	return (d == 0xFF) ? 1 : 0;
    4be4:	f8 cf       	rjmp	.-16     	; 0x4bd6 <wait_ready+0x18>
    4be6:	91 e0       	ldi	r25, 0x01	; 1
    4be8:	8f 3f       	cpi	r24, 0xFF	; 255
    4bea:	09 f0       	breq	.+2      	; 0x4bee <wait_ready+0x30>
}
    4bec:	90 e0       	ldi	r25, 0x00	; 0
    4bee:	89 2f       	mov	r24, r25
    4bf0:	90 e0       	ldi	r25, 0x00	; 0
    4bf2:	08 95       	ret

00004bf4 <deselect>:
/*-----------------------------------------------------------------------*/

static
void deselect (void)
{
	CS_HIGH();		/* Set CS# high */
    4bf4:	85 b1       	in	r24, 0x05	; 5
    4bf6:	84 60       	ori	r24, 0x04	; 4
    4bf8:	85 b9       	out	0x05, r24	; 5
	xchg_spi(0xFF);	/* Dummy clock (force DO hi-z for multiple slave SPI) */
    4bfa:	8f ef       	ldi	r24, 0xFF	; 255
    4bfc:	ae cf       	rjmp	.-164    	; 0x4b5a <xchg_spi>
    4bfe:	08 95       	ret

00004c00 <select>:
/* Select the card and wait for ready                                    */
/*-----------------------------------------------------------------------*/

static
int select (void)	/* 1:Successful, 0:Timeout */
{
    4c00:	cf 93       	push	r28
    4c02:	df 93       	push	r29
	CS_LOW();		/* Set CS# low */
    4c04:	85 b1       	in	r24, 0x05	; 5
    4c06:	8b 7f       	andi	r24, 0xFB	; 251
    4c08:	85 b9       	out	0x05, r24	; 5
	xchg_spi(0xFF);	/* Dummy clock (force DO enabled) */
    4c0a:	8f ef       	ldi	r24, 0xFF	; 255
    4c0c:	a6 df       	rcall	.-180    	; 0x4b5a <xchg_spi>

	if (wait_ready(500)) return 1;	/* Leading busy check: Wait for card ready */
    4c0e:	84 ef       	ldi	r24, 0xF4	; 244
    4c10:	91 e0       	ldi	r25, 0x01	; 1
    4c12:	d5 df       	rcall	.-86     	; 0x4bbe <wait_ready>
    4c14:	ec 01       	movw	r28, r24
    4c16:	89 2b       	or	r24, r25

	deselect();		/* Timeout */
    4c18:	11 f4       	brne	.+4      	; 0x4c1e <select+0x1e>
    4c1a:	ec df       	rcall	.-40     	; 0x4bf4 <deselect>
	return 0;
    4c1c:	02 c0       	rjmp	.+4      	; 0x4c22 <select+0x22>
int select (void)	/* 1:Successful, 0:Timeout */
{
	CS_LOW();		/* Set CS# low */
	xchg_spi(0xFF);	/* Dummy clock (force DO enabled) */

	if (wait_ready(500)) return 1;	/* Leading busy check: Wait for card ready */
    4c1e:	c1 e0       	ldi	r28, 0x01	; 1
    4c20:	d0 e0       	ldi	r29, 0x00	; 0

	deselect();		/* Timeout */
	return 0;
}
    4c22:	ce 01       	movw	r24, r28
    4c24:	df 91       	pop	r29
    4c26:	cf 91       	pop	r28
    4c28:	08 95       	ret

00004c2a <rcvr_datablock>:
static
int rcvr_datablock (
	BYTE *buff,			/* Data buffer to store received data */
	UINT btr			/* Byte count (must be multiple of 4) */
)
{
    4c2a:	0f 93       	push	r16
    4c2c:	1f 93       	push	r17
    4c2e:	cf 93       	push	r28
    4c30:	df 93       	push	r29
    4c32:	ec 01       	movw	r28, r24
    4c34:	8b 01       	movw	r16, r22
	BYTE token;


	Timer1 = 20;
    4c36:	84 e1       	ldi	r24, 0x14	; 20
    4c38:	80 93 13 02 	sts	0x0213, r24	; 0x800213 <Timer1>
	do {							/* Wait for data packet in timeout of 200ms */
		token = xchg_spi(0xFF);
    4c3c:	8f ef       	ldi	r24, 0xFF	; 255
    4c3e:	8d df       	rcall	.-230    	; 0x4b5a <xchg_spi>
	} while ((token == 0xFF) && Timer1);
    4c40:	8f 3f       	cpi	r24, 0xFF	; 255
    4c42:	21 f4       	brne	.+8      	; 0x4c4c <rcvr_datablock+0x22>
    4c44:	90 91 13 02 	lds	r25, 0x0213	; 0x800213 <Timer1>
    4c48:	91 11       	cpse	r25, r1
    4c4a:	f8 cf       	rjmp	.-16     	; 0x4c3c <rcvr_datablock+0x12>
	if (token != 0xFE) return 0;	/* If not valid data token, retutn with error */
    4c4c:	8e 3f       	cpi	r24, 0xFE	; 254
    4c4e:	51 f4       	brne	.+20     	; 0x4c64 <rcvr_datablock+0x3a>

	rcvr_spi_multi(buff, btr);		/* Receive the data block into buffer */
    4c50:	b8 01       	movw	r22, r16
    4c52:	ce 01       	movw	r24, r28
	xchg_spi(0xFF);					/* Discard CRC */
    4c54:	88 df       	rcall	.-240    	; 0x4b66 <rcvr_spi_multi>
    4c56:	8f ef       	ldi	r24, 0xFF	; 255
	xchg_spi(0xFF);
    4c58:	80 df       	rcall	.-256    	; 0x4b5a <xchg_spi>
    4c5a:	8f ef       	ldi	r24, 0xFF	; 255
    4c5c:	7e df       	rcall	.-260    	; 0x4b5a <xchg_spi>

	return 1;						/* Return with success */
    4c5e:	81 e0       	ldi	r24, 0x01	; 1
    4c60:	90 e0       	ldi	r25, 0x00	; 0
    4c62:	02 c0       	rjmp	.+4      	; 0x4c68 <rcvr_datablock+0x3e>

	Timer1 = 20;
	do {							/* Wait for data packet in timeout of 200ms */
		token = xchg_spi(0xFF);
	} while ((token == 0xFF) && Timer1);
	if (token != 0xFE) return 0;	/* If not valid data token, retutn with error */
    4c64:	80 e0       	ldi	r24, 0x00	; 0
    4c66:	90 e0       	ldi	r25, 0x00	; 0
	rcvr_spi_multi(buff, btr);		/* Receive the data block into buffer */
	xchg_spi(0xFF);					/* Discard CRC */
	xchg_spi(0xFF);

	return 1;						/* Return with success */
}
    4c68:	df 91       	pop	r29
    4c6a:	cf 91       	pop	r28
    4c6c:	1f 91       	pop	r17
    4c6e:	0f 91       	pop	r16
    4c70:	08 95       	ret

00004c72 <xmit_datablock>:
static
int xmit_datablock (
	const BYTE *buff,	/* 512 byte data block to be transmitted */
	BYTE token			/* Data/Stop token */
)
{
    4c72:	0f 93       	push	r16
    4c74:	1f 93       	push	r17
    4c76:	cf 93       	push	r28
    4c78:	8c 01       	movw	r16, r24
    4c7a:	c6 2f       	mov	r28, r22
	BYTE resp;


	if (!wait_ready(500)) return 0;		/* Leading busy check: Wait for card ready to accept data block */
    4c7c:	84 ef       	ldi	r24, 0xF4	; 244
    4c7e:	91 e0       	ldi	r25, 0x01	; 1
    4c80:	9e df       	rcall	.-196    	; 0x4bbe <wait_ready>
    4c82:	00 97       	sbiw	r24, 0x00	; 0

	xchg_spi(token);					/* Xmit data token */
    4c84:	c1 f0       	breq	.+48     	; 0x4cb6 <xmit_datablock+0x44>
    4c86:	8c 2f       	mov	r24, r28
	if (token == 0xFD) return 1;		/* Do not send data if token is StopTran */
    4c88:	68 df       	rcall	.-304    	; 0x4b5a <xchg_spi>
    4c8a:	cd 3f       	cpi	r28, 0xFD	; 253

	xmit_spi_multi(buff, 512);			/* Data */
    4c8c:	91 f0       	breq	.+36     	; 0x4cb2 <xmit_datablock+0x40>
    4c8e:	60 e0       	ldi	r22, 0x00	; 0
	xchg_spi(0xFF); xchg_spi(0xFF);		/* Dummy CRC */
    4c90:	72 e0       	ldi	r23, 0x02	; 2
    4c92:	c8 01       	movw	r24, r16
    4c94:	80 df       	rcall	.-256    	; 0x4b96 <xmit_spi_multi>
    4c96:	8f ef       	ldi	r24, 0xFF	; 255

	resp = xchg_spi(0xFF);				/* Receive data resp */
    4c98:	60 df       	rcall	.-320    	; 0x4b5a <xchg_spi>
    4c9a:	8f ef       	ldi	r24, 0xFF	; 255
    4c9c:	5e df       	rcall	.-324    	; 0x4b5a <xchg_spi>

	return (resp & 0x1F) == 0x05 ? 1 : 0;	/* Data was accepted or not */
    4c9e:	8f ef       	ldi	r24, 0xFF	; 255
    4ca0:	5c df       	rcall	.-328    	; 0x4b5a <xchg_spi>
    4ca2:	8f 71       	andi	r24, 0x1F	; 31
    4ca4:	91 e0       	ldi	r25, 0x01	; 1
    4ca6:	85 30       	cpi	r24, 0x05	; 5
    4ca8:	09 f0       	breq	.+2      	; 0x4cac <xmit_datablock+0x3a>
    4caa:	90 e0       	ldi	r25, 0x00	; 0
    4cac:	89 2f       	mov	r24, r25


	if (!wait_ready(500)) return 0;		/* Leading busy check: Wait for card ready to accept data block */

	xchg_spi(token);					/* Xmit data token */
	if (token == 0xFD) return 1;		/* Do not send data if token is StopTran */
    4cae:	90 e0       	ldi	r25, 0x00	; 0
    4cb0:	02 c0       	rjmp	.+4      	; 0x4cb6 <xmit_datablock+0x44>
	resp = xchg_spi(0xFF);				/* Receive data resp */

	return (resp & 0x1F) == 0x05 ? 1 : 0;	/* Data was accepted or not */

	/* Busy check is done at next transmission */
}
    4cb2:	81 e0       	ldi	r24, 0x01	; 1
    4cb4:	90 e0       	ldi	r25, 0x00	; 0
    4cb6:	cf 91       	pop	r28
    4cb8:	1f 91       	pop	r17
    4cba:	0f 91       	pop	r16
    4cbc:	08 95       	ret

00004cbe <send_cmd>:
static
BYTE send_cmd (		/* Returns R1 resp (bit7==1:Send failed) */
	BYTE cmd,		/* Command index */
	DWORD arg		/* Argument */
)
{
    4cbe:	ff 92       	push	r15
    4cc0:	0f 93       	push	r16
    4cc2:	1f 93       	push	r17
    4cc4:	cf 93       	push	r28
    4cc6:	df 93       	push	r29
    4cc8:	c8 2f       	mov	r28, r24
    4cca:	d4 2f       	mov	r29, r20
    4ccc:	15 2f       	mov	r17, r21
    4cce:	06 2f       	mov	r16, r22
    4cd0:	f7 2e       	mov	r15, r23
	BYTE n, res;


	if (cmd & 0x80) {	/* ACMD<n> is the command sequense of CMD55-CMD<n> */
    4cd2:	88 23       	and	r24, r24
    4cd4:	44 f4       	brge	.+16     	; 0x4ce6 <send_cmd+0x28>
		cmd &= 0x7F;
    4cd6:	cf 77       	andi	r28, 0x7F	; 127
		res = send_cmd(CMD55, 0);
    4cd8:	40 e0       	ldi	r20, 0x00	; 0
    4cda:	50 e0       	ldi	r21, 0x00	; 0
    4cdc:	ba 01       	movw	r22, r20
    4cde:	87 e3       	ldi	r24, 0x37	; 55
    4ce0:	ee df       	rcall	.-36     	; 0x4cbe <send_cmd>
		if (res > 1) return res;
    4ce2:	82 30       	cpi	r24, 0x02	; 2
    4ce4:	38 f5       	brcc	.+78     	; 0x4d34 <send_cmd+0x76>
	}

	/* Select the card and wait for ready except to stop multiple block read */
	if (cmd != CMD12) {
		deselect();
    4ce6:	cc 30       	cpi	r28, 0x0C	; 12
		if (!select()) return 0xFF;
    4ce8:	21 f0       	breq	.+8      	; 0x4cf2 <send_cmd+0x34>
    4cea:	84 df       	rcall	.-248    	; 0x4bf4 <deselect>
    4cec:	89 df       	rcall	.-238    	; 0x4c00 <select>
	}

	/* Send command packet */
	xchg_spi(0x40 | cmd);				/* Start + Command index */
    4cee:	89 2b       	or	r24, r25
    4cf0:	01 f1       	breq	.+64     	; 0x4d32 <send_cmd+0x74>
	xchg_spi((BYTE)(arg >> 24));		/* Argument[31..24] */
    4cf2:	8c 2f       	mov	r24, r28
	xchg_spi((BYTE)(arg >> 16));		/* Argument[23..16] */
    4cf4:	80 64       	ori	r24, 0x40	; 64
    4cf6:	31 df       	rcall	.-414    	; 0x4b5a <xchg_spi>
	xchg_spi((BYTE)(arg >> 8));			/* Argument[15..8] */
    4cf8:	8f 2d       	mov	r24, r15
    4cfa:	2f df       	rcall	.-418    	; 0x4b5a <xchg_spi>
    4cfc:	80 2f       	mov	r24, r16
	xchg_spi((BYTE)arg);				/* Argument[7..0] */
    4cfe:	2d df       	rcall	.-422    	; 0x4b5a <xchg_spi>
    4d00:	81 2f       	mov	r24, r17
	n = 0x01;							/* Dummy CRC + Stop */
	if (cmd == CMD0) n = 0x95;			/* Valid CRC for CMD0(0) + Stop */
    4d02:	2b df       	rcall	.-426    	; 0x4b5a <xchg_spi>
	xchg_spi(0x40 | cmd);				/* Start + Command index */
	xchg_spi((BYTE)(arg >> 24));		/* Argument[31..24] */
	xchg_spi((BYTE)(arg >> 16));		/* Argument[23..16] */
	xchg_spi((BYTE)(arg >> 8));			/* Argument[15..8] */
	xchg_spi((BYTE)arg);				/* Argument[7..0] */
	n = 0x01;							/* Dummy CRC + Stop */
    4d04:	8d 2f       	mov	r24, r29
	if (cmd == CMD0) n = 0x95;			/* Valid CRC for CMD0(0) + Stop */
	if (cmd == CMD8) n = 0x87;			/* Valid CRC for CMD8(0x1AA) Stop */
    4d06:	29 df       	rcall	.-430    	; 0x4b5a <xchg_spi>
    4d08:	cc 23       	and	r28, r28
	xchg_spi(n);
    4d0a:	11 f0       	breq	.+4      	; 0x4d10 <send_cmd+0x52>
    4d0c:	81 e0       	ldi	r24, 0x01	; 1

	/* Receive command response */
	if (cmd == CMD12) xchg_spi(0xFF);		/* Skip a stuff byte when stop reading */
    4d0e:	01 c0       	rjmp	.+2      	; 0x4d12 <send_cmd+0x54>
    4d10:	85 e9       	ldi	r24, 0x95	; 149
    4d12:	c8 30       	cpi	r28, 0x08	; 8
    4d14:	09 f4       	brne	.+2      	; 0x4d18 <send_cmd+0x5a>
    4d16:	87 e8       	ldi	r24, 0x87	; 135
	xchg_spi((BYTE)(arg >> 16));		/* Argument[23..16] */
	xchg_spi((BYTE)(arg >> 8));			/* Argument[15..8] */
	xchg_spi((BYTE)arg);				/* Argument[7..0] */
	n = 0x01;							/* Dummy CRC + Stop */
	if (cmd == CMD0) n = 0x95;			/* Valid CRC for CMD0(0) + Stop */
	if (cmd == CMD8) n = 0x87;			/* Valid CRC for CMD8(0x1AA) Stop */
    4d18:	20 df       	rcall	.-448    	; 0x4b5a <xchg_spi>

	/* Receive command response */
	if (cmd == CMD12) xchg_spi(0xFF);		/* Skip a stuff byte when stop reading */
	n = 10;								/* Wait for a valid response in timeout of 10 attempts */
	do
		res = xchg_spi(0xFF);
    4d1a:	cc 30       	cpi	r28, 0x0C	; 12
    4d1c:	11 f4       	brne	.+4      	; 0x4d22 <send_cmd+0x64>
    4d1e:	8f ef       	ldi	r24, 0xFF	; 255
	while ((res & 0x80) && --n);
    4d20:	1c df       	rcall	.-456    	; 0x4b5a <xchg_spi>
    4d22:	ca e0       	ldi	r28, 0x0A	; 10
    4d24:	8f ef       	ldi	r24, 0xFF	; 255
    4d26:	19 df       	rcall	.-462    	; 0x4b5a <xchg_spi>
    4d28:	88 23       	and	r24, r24
	}

	/* Select the card and wait for ready except to stop multiple block read */
	if (cmd != CMD12) {
		deselect();
		if (!select()) return 0xFF;
    4d2a:	24 f4       	brge	.+8      	; 0x4d34 <send_cmd+0x76>
	do
		res = xchg_spi(0xFF);
	while ((res & 0x80) && --n);

	return res;			/* Return with the response value */
}
    4d2c:	c1 50       	subi	r28, 0x01	; 1
    4d2e:	d1 f7       	brne	.-12     	; 0x4d24 <send_cmd+0x66>
    4d30:	01 c0       	rjmp	.+2      	; 0x4d34 <send_cmd+0x76>
    4d32:	8f ef       	ldi	r24, 0xFF	; 255
    4d34:	df 91       	pop	r29
    4d36:	cf 91       	pop	r28
    4d38:	1f 91       	pop	r17
    4d3a:	0f 91       	pop	r16
    4d3c:	ff 90       	pop	r15
    4d3e:	08 95       	ret

00004d40 <mmc_disk_initialize>:
/*-----------------------------------------------------------------------*/
/* Initialize Disk Drive                                                 */
/*-----------------------------------------------------------------------*/

DSTATUS mmc_disk_initialize (void)
{
    4d40:	ef 92       	push	r14
    4d42:	ff 92       	push	r15
    4d44:	0f 93       	push	r16
    4d46:	1f 93       	push	r17
    4d48:	cf 93       	push	r28
    4d4a:	df 93       	push	r29
    4d4c:	00 d0       	rcall	.+0      	; 0x4d4e <mmc_disk_initialize+0xe>
    4d4e:	00 d0       	rcall	.+0      	; 0x4d50 <mmc_disk_initialize+0x10>
    4d50:	cd b7       	in	r28, 0x3d	; 61
    4d52:	de b7       	in	r29, 0x3e	; 62
	BYTE n, cmd, ty, ocr[4];


	power_off();						/* Turn off the socket power to reset the card */
	for (Timer1 = 10; Timer1; ) ;		/* Wait for 100ms */
    4d54:	8a e0       	ldi	r24, 0x0A	; 10
    4d56:	80 93 13 02 	sts	0x0213, r24	; 0x800213 <Timer1>
    4d5a:	80 91 13 02 	lds	r24, 0x0213	; 0x800213 <Timer1>
    4d5e:	81 11       	cpse	r24, r1
    4d60:	fc cf       	rjmp	.-8      	; 0x4d5a <mmc_disk_initialize+0x1a>
	if (Stat & STA_NODISK) return Stat;	/* No card in the socket? */
    4d62:	80 91 0c 01 	lds	r24, 0x010C	; 0x80010c <Stat>
    4d66:	81 ff       	sbrs	r24, 1
    4d68:	03 c0       	rjmp	.+6      	; 0x4d70 <mmc_disk_initialize+0x30>
    4d6a:	80 91 0c 01 	lds	r24, 0x010C	; 0x80010c <Stat>
    4d6e:	b2 c0       	rjmp	.+356    	; 0x4ed4 <mmc_disk_initialize+0x194>

	power_on();							/* Turn on the socket power */
	FCLK_SLOW();
    4d70:	84 b1       	in	r24, 0x04	; 4
    4d72:	8f 7e       	andi	r24, 0xEF	; 239
    4d74:	84 b9       	out	0x04, r24	; 4
    4d76:	84 b1       	in	r24, 0x04	; 4
    4d78:	80 62       	ori	r24, 0x20	; 32
    4d7a:	84 b9       	out	0x04, r24	; 4
    4d7c:	84 b1       	in	r24, 0x04	; 4
    4d7e:	88 60       	ori	r24, 0x08	; 8
    4d80:	84 b9       	out	0x04, r24	; 4
    4d82:	84 b1       	in	r24, 0x04	; 4
    4d84:	84 60       	ori	r24, 0x04	; 4
    4d86:	84 b9       	out	0x04, r24	; 4
    4d88:	83 e5       	ldi	r24, 0x53	; 83
    4d8a:	8c bd       	out	0x2c, r24	; 44
	for (n = 10; n; n--) xchg_spi(0xFF);	/* 80 dummy clocks */
    4d8c:	1a e0       	ldi	r17, 0x0A	; 10
    4d8e:	03 c0       	rjmp	.+6      	; 0x4d96 <mmc_disk_initialize+0x56>
    4d90:	8f ef       	ldi	r24, 0xFF	; 255
    4d92:	e3 de       	rcall	.-570    	; 0x4b5a <xchg_spi>
    4d94:	11 50       	subi	r17, 0x01	; 1
    4d96:	11 11       	cpse	r17, r1
    4d98:	fb cf       	rjmp	.-10     	; 0x4d90 <mmc_disk_initialize+0x50>

	ty = 0;
	if (send_cmd(CMD0, 0) == 1) {			/* Put the card SPI mode */
    4d9a:	40 e0       	ldi	r20, 0x00	; 0
    4d9c:	50 e0       	ldi	r21, 0x00	; 0
    4d9e:	ba 01       	movw	r22, r20
    4da0:	80 e0       	ldi	r24, 0x00	; 0
    4da2:	8d df       	rcall	.-230    	; 0x4cbe <send_cmd>
    4da4:	81 30       	cpi	r24, 0x01	; 1
    4da6:	09 f0       	breq	.+2      	; 0x4daa <mmc_disk_initialize+0x6a>
    4da8:	76 c0       	rjmp	.+236    	; 0x4e96 <mmc_disk_initialize+0x156>
		Timer1 = 100;						/* Initialization timeout of 1000 msec */
    4daa:	84 e6       	ldi	r24, 0x64	; 100
    4dac:	80 93 13 02 	sts	0x0213, r24	; 0x800213 <Timer1>
		if (send_cmd(CMD8, 0x1AA) == 1) {	/* Is the card SDv2? */
    4db0:	4a ea       	ldi	r20, 0xAA	; 170
    4db2:	51 e0       	ldi	r21, 0x01	; 1
    4db4:	60 e0       	ldi	r22, 0x00	; 0
    4db6:	70 e0       	ldi	r23, 0x00	; 0
    4db8:	88 e0       	ldi	r24, 0x08	; 8
    4dba:	81 df       	rcall	.-254    	; 0x4cbe <send_cmd>
    4dbc:	81 30       	cpi	r24, 0x01	; 1
    4dbe:	09 f0       	breq	.+2      	; 0x4dc2 <mmc_disk_initialize+0x82>
    4dc0:	46 c0       	rjmp	.+140    	; 0x4e4e <mmc_disk_initialize+0x10e>
			for (n = 0; n < 4; n++) ocr[n] = xchg_spi(0xFF);	/* Get trailing return value of R7 resp */
    4dc2:	0d c0       	rjmp	.+26     	; 0x4dde <mmc_disk_initialize+0x9e>
    4dc4:	e0 2e       	mov	r14, r16
    4dc6:	f1 2c       	mov	r15, r1
    4dc8:	8f ef       	ldi	r24, 0xFF	; 255
    4dca:	c7 de       	rcall	.-626    	; 0x4b5a <xchg_spi>
    4dcc:	e1 e0       	ldi	r30, 0x01	; 1
    4dce:	f0 e0       	ldi	r31, 0x00	; 0
    4dd0:	ec 0f       	add	r30, r28
    4dd2:	fd 1f       	adc	r31, r29
    4dd4:	ee 0d       	add	r30, r14
    4dd6:	ff 1d       	adc	r31, r15
    4dd8:	80 83       	st	Z, r24
    4dda:	0f 5f       	subi	r16, 0xFF	; 255
    4ddc:	01 c0       	rjmp	.+2      	; 0x4de0 <mmc_disk_initialize+0xa0>
    4dde:	01 2f       	mov	r16, r17
    4de0:	04 30       	cpi	r16, 0x04	; 4
			if (ocr[2] == 0x01 && ocr[3] == 0xAA) {				/* The card can work at vdd range of 2.7-3.6V */
    4de2:	80 f3       	brcs	.-32     	; 0x4dc4 <mmc_disk_initialize+0x84>
    4de4:	8b 81       	ldd	r24, Y+3	; 0x03
    4de6:	81 30       	cpi	r24, 0x01	; 1
    4de8:	09 f0       	breq	.+2      	; 0x4dec <mmc_disk_initialize+0xac>
    4dea:	57 c0       	rjmp	.+174    	; 0x4e9a <mmc_disk_initialize+0x15a>
    4dec:	8c 81       	ldd	r24, Y+4	; 0x04
    4dee:	8a 3a       	cpi	r24, 0xAA	; 170
    4df0:	09 f0       	breq	.+2      	; 0x4df4 <mmc_disk_initialize+0xb4>
				while (Timer1 && send_cmd(ACMD41, 1UL << 30));	/* Wait for leaving idle state (ACMD41 with HCS bit) */
    4df2:	55 c0       	rjmp	.+170    	; 0x4e9e <mmc_disk_initialize+0x15e>
    4df4:	80 91 13 02 	lds	r24, 0x0213	; 0x800213 <Timer1>
    4df8:	88 23       	and	r24, r24
    4dfa:	41 f0       	breq	.+16     	; 0x4e0c <mmc_disk_initialize+0xcc>
    4dfc:	40 e0       	ldi	r20, 0x00	; 0
    4dfe:	50 e0       	ldi	r21, 0x00	; 0
    4e00:	60 e0       	ldi	r22, 0x00	; 0
    4e02:	70 e4       	ldi	r23, 0x40	; 64
    4e04:	89 ea       	ldi	r24, 0xA9	; 169
    4e06:	5b df       	rcall	.-330    	; 0x4cbe <send_cmd>
    4e08:	81 11       	cpse	r24, r1
				if (Timer1 && send_cmd(CMD58, 0) == 0) {		/* Check CCS bit in the OCR */
    4e0a:	f4 cf       	rjmp	.-24     	; 0x4df4 <mmc_disk_initialize+0xb4>
    4e0c:	80 91 13 02 	lds	r24, 0x0213	; 0x800213 <Timer1>
    4e10:	88 23       	and	r24, r24
    4e12:	09 f4       	brne	.+2      	; 0x4e16 <mmc_disk_initialize+0xd6>
    4e14:	46 c0       	rjmp	.+140    	; 0x4ea2 <mmc_disk_initialize+0x162>
    4e16:	40 e0       	ldi	r20, 0x00	; 0
    4e18:	50 e0       	ldi	r21, 0x00	; 0
    4e1a:	ba 01       	movw	r22, r20
    4e1c:	8a e3       	ldi	r24, 0x3A	; 58
    4e1e:	4f df       	rcall	.-354    	; 0x4cbe <send_cmd>

	power_on();							/* Turn on the socket power */
	FCLK_SLOW();
	for (n = 10; n; n--) xchg_spi(0xFF);	/* 80 dummy clocks */

	ty = 0;
    4e20:	88 23       	and	r24, r24
    4e22:	71 f0       	breq	.+28     	; 0x4e40 <mmc_disk_initialize+0x100>
		if (send_cmd(CMD8, 0x1AA) == 1) {	/* Is the card SDv2? */
			for (n = 0; n < 4; n++) ocr[n] = xchg_spi(0xFF);	/* Get trailing return value of R7 resp */
			if (ocr[2] == 0x01 && ocr[3] == 0xAA) {				/* The card can work at vdd range of 2.7-3.6V */
				while (Timer1 && send_cmd(ACMD41, 1UL << 30));	/* Wait for leaving idle state (ACMD41 with HCS bit) */
				if (Timer1 && send_cmd(CMD58, 0) == 0) {		/* Check CCS bit in the OCR */
					for (n = 0; n < 4; n++) ocr[n] = xchg_spi(0xFF);
    4e24:	10 e0       	ldi	r17, 0x00	; 0
    4e26:	44 c0       	rjmp	.+136    	; 0x4eb0 <mmc_disk_initialize+0x170>
    4e28:	e1 2e       	mov	r14, r17
    4e2a:	f1 2c       	mov	r15, r1
    4e2c:	8f ef       	ldi	r24, 0xFF	; 255
    4e2e:	95 de       	rcall	.-726    	; 0x4b5a <xchg_spi>
    4e30:	e1 e0       	ldi	r30, 0x01	; 1
    4e32:	f0 e0       	ldi	r31, 0x00	; 0
    4e34:	ec 0f       	add	r30, r28
    4e36:	fd 1f       	adc	r31, r29
    4e38:	ee 0d       	add	r30, r14
    4e3a:	ff 1d       	adc	r31, r15
    4e3c:	80 83       	st	Z, r24
    4e3e:	1f 5f       	subi	r17, 0xFF	; 255
    4e40:	14 30       	cpi	r17, 0x04	; 4
					ty = (ocr[0] & 0x40) ? CT_SD2 | CT_BLOCK : CT_SD2;	/* Check if the card is SDv2 */
    4e42:	90 f3       	brcs	.-28     	; 0x4e28 <mmc_disk_initialize+0xe8>
    4e44:	89 81       	ldd	r24, Y+1	; 0x01
    4e46:	86 ff       	sbrs	r24, 6
    4e48:	2e c0       	rjmp	.+92     	; 0x4ea6 <mmc_disk_initialize+0x166>
				}
			}
		} else {							/* SDv1 or MMCv3 */
			if (send_cmd(ACMD41, 0) <= 1) 	{
    4e4a:	1c e0       	ldi	r17, 0x0C	; 12
    4e4c:	31 c0       	rjmp	.+98     	; 0x4eb0 <mmc_disk_initialize+0x170>
    4e4e:	40 e0       	ldi	r20, 0x00	; 0
    4e50:	50 e0       	ldi	r21, 0x00	; 0
    4e52:	ba 01       	movw	r22, r20
    4e54:	89 ea       	ldi	r24, 0xA9	; 169
    4e56:	33 df       	rcall	.-410    	; 0x4cbe <send_cmd>
    4e58:	82 30       	cpi	r24, 0x02	; 2
				ty = CT_SD1; cmd = ACMD41;	/* SDv1 */
    4e5a:	18 f4       	brcc	.+6      	; 0x4e62 <mmc_disk_initialize+0x122>
    4e5c:	12 e0       	ldi	r17, 0x02	; 2
    4e5e:	09 ea       	ldi	r16, 0xA9	; 169
			} else {
				ty = CT_MMC; cmd = CMD1;	/* MMCv3 */
    4e60:	02 c0       	rjmp	.+4      	; 0x4e66 <mmc_disk_initialize+0x126>
			}
			while (Timer1 && send_cmd(cmd, 0));			/* Wait for leaving idle state */
    4e62:	11 e0       	ldi	r17, 0x01	; 1
    4e64:	01 e0       	ldi	r16, 0x01	; 1
    4e66:	80 91 13 02 	lds	r24, 0x0213	; 0x800213 <Timer1>
    4e6a:	88 23       	and	r24, r24
    4e6c:	39 f0       	breq	.+14     	; 0x4e7c <mmc_disk_initialize+0x13c>
    4e6e:	40 e0       	ldi	r20, 0x00	; 0
    4e70:	50 e0       	ldi	r21, 0x00	; 0
    4e72:	ba 01       	movw	r22, r20
    4e74:	80 2f       	mov	r24, r16
			if (!Timer1 || send_cmd(CMD16, 512) != 0)	/* Set R/W block length to 512 */
    4e76:	23 df       	rcall	.-442    	; 0x4cbe <send_cmd>
    4e78:	81 11       	cpse	r24, r1
    4e7a:	f5 cf       	rjmp	.-22     	; 0x4e66 <mmc_disk_initialize+0x126>
    4e7c:	80 91 13 02 	lds	r24, 0x0213	; 0x800213 <Timer1>
    4e80:	88 23       	and	r24, r24
    4e82:	99 f0       	breq	.+38     	; 0x4eaa <mmc_disk_initialize+0x16a>
    4e84:	40 e0       	ldi	r20, 0x00	; 0
    4e86:	52 e0       	ldi	r21, 0x02	; 2
    4e88:	60 e0       	ldi	r22, 0x00	; 0
    4e8a:	70 e0       	ldi	r23, 0x00	; 0
    4e8c:	80 e1       	ldi	r24, 0x10	; 16
    4e8e:	17 df       	rcall	.-466    	; 0x4cbe <send_cmd>

	power_on();							/* Turn on the socket power */
	FCLK_SLOW();
	for (n = 10; n; n--) xchg_spi(0xFF);	/* 80 dummy clocks */

	ty = 0;
    4e90:	81 11       	cpse	r24, r1
    4e92:	0d c0       	rjmp	.+26     	; 0x4eae <mmc_disk_initialize+0x16e>
    4e94:	0d c0       	rjmp	.+26     	; 0x4eb0 <mmc_disk_initialize+0x170>
    4e96:	10 e0       	ldi	r17, 0x00	; 0
    4e98:	0b c0       	rjmp	.+22     	; 0x4eb0 <mmc_disk_initialize+0x170>
    4e9a:	10 e0       	ldi	r17, 0x00	; 0
    4e9c:	09 c0       	rjmp	.+18     	; 0x4eb0 <mmc_disk_initialize+0x170>
			for (n = 0; n < 4; n++) ocr[n] = xchg_spi(0xFF);	/* Get trailing return value of R7 resp */
			if (ocr[2] == 0x01 && ocr[3] == 0xAA) {				/* The card can work at vdd range of 2.7-3.6V */
				while (Timer1 && send_cmd(ACMD41, 1UL << 30));	/* Wait for leaving idle state (ACMD41 with HCS bit) */
				if (Timer1 && send_cmd(CMD58, 0) == 0) {		/* Check CCS bit in the OCR */
					for (n = 0; n < 4; n++) ocr[n] = xchg_spi(0xFF);
					ty = (ocr[0] & 0x40) ? CT_SD2 | CT_BLOCK : CT_SD2;	/* Check if the card is SDv2 */
    4e9e:	10 e0       	ldi	r17, 0x00	; 0
    4ea0:	07 c0       	rjmp	.+14     	; 0x4eb0 <mmc_disk_initialize+0x170>
			} else {
				ty = CT_MMC; cmd = CMD1;	/* MMCv3 */
			}
			while (Timer1 && send_cmd(cmd, 0));			/* Wait for leaving idle state */
			if (!Timer1 || send_cmd(CMD16, 512) != 0)	/* Set R/W block length to 512 */
				ty = 0;
    4ea2:	10 e0       	ldi	r17, 0x00	; 0
    4ea4:	05 c0       	rjmp	.+10     	; 0x4eb0 <mmc_disk_initialize+0x170>
    4ea6:	14 e0       	ldi	r17, 0x04	; 4
		}
	}
	CardType = ty;
    4ea8:	03 c0       	rjmp	.+6      	; 0x4eb0 <mmc_disk_initialize+0x170>
    4eaa:	10 e0       	ldi	r17, 0x00	; 0
	deselect();
    4eac:	01 c0       	rjmp	.+2      	; 0x4eb0 <mmc_disk_initialize+0x170>
    4eae:	10 e0       	ldi	r17, 0x00	; 0

	if (ty) {			/* Initialization succeded */
    4eb0:	10 93 11 02 	sts	0x0211, r17	; 0x800211 <CardType>
		Stat &= ~STA_NOINIT;		/* Clear STA_NOINIT */
    4eb4:	9f de       	rcall	.-706    	; 0x4bf4 <deselect>
    4eb6:	11 23       	and	r17, r17
    4eb8:	59 f0       	breq	.+22     	; 0x4ed0 <mmc_disk_initialize+0x190>
    4eba:	80 91 0c 01 	lds	r24, 0x010C	; 0x80010c <Stat>
		FCLK_FAST();
    4ebe:	8e 7f       	andi	r24, 0xFE	; 254
    4ec0:	80 93 0c 01 	sts	0x010C, r24	; 0x80010c <Stat>
    4ec4:	8c b5       	in	r24, 0x2c	; 44
    4ec6:	8c 7f       	andi	r24, 0xFC	; 252
    4ec8:	8c bd       	out	0x2c, r24	; 44
	} else {			/* Initialization failed */
		power_off();
	}

	return Stat;
    4eca:	8d b5       	in	r24, 0x2d	; 45
    4ecc:	81 60       	ori	r24, 0x01	; 1
}
    4ece:	8d bd       	out	0x2d, r24	; 45
    4ed0:	80 91 0c 01 	lds	r24, 0x010C	; 0x80010c <Stat>
    4ed4:	0f 90       	pop	r0
    4ed6:	0f 90       	pop	r0
    4ed8:	0f 90       	pop	r0
    4eda:	0f 90       	pop	r0
    4edc:	df 91       	pop	r29
    4ede:	cf 91       	pop	r28
    4ee0:	1f 91       	pop	r17
    4ee2:	0f 91       	pop	r16
    4ee4:	ff 90       	pop	r15
    4ee6:	ef 90       	pop	r14
    4ee8:	08 95       	ret

00004eea <mmc_disk_status>:
/* Get Disk Status                                                       */
/*-----------------------------------------------------------------------*/

DSTATUS mmc_disk_status (void)
{
	return Stat;
    4eea:	80 91 0c 01 	lds	r24, 0x010C	; 0x80010c <Stat>
}
    4eee:	08 95       	ret

00004ef0 <mmc_disk_read>:
DRESULT mmc_disk_read (
	BYTE *buff,			/* Pointer to the data buffer to store read data */
	DWORD sector,		/* Start sector number (LBA) */
	UINT count			/* Sector count (1..128) */
)
{
    4ef0:	ff 92       	push	r15
    4ef2:	0f 93       	push	r16
    4ef4:	1f 93       	push	r17
    4ef6:	cf 93       	push	r28
    4ef8:	df 93       	push	r29
    4efa:	8c 01       	movw	r16, r24
    4efc:	e9 01       	movw	r28, r18
	BYTE cmd;


	if (!count) return RES_PARERR;
    4efe:	20 97       	sbiw	r28, 0x00	; 0
    4f00:	c9 f1       	breq	.+114    	; 0x4f74 <mmc_disk_read+0x84>
	if (Stat & STA_NOINIT) return RES_NOTRDY;
    4f02:	80 91 0c 01 	lds	r24, 0x010C	; 0x80010c <Stat>
    4f06:	80 fd       	sbrc	r24, 0
    4f08:	38 c0       	rjmp	.+112    	; 0x4f7a <mmc_disk_read+0x8a>

	if (!(CardType & CT_BLOCK)) sector *= 512;	/* Convert to byte address if needed */
    4f0a:	80 91 11 02 	lds	r24, 0x0211	; 0x800211 <CardType>
    4f0e:	83 fd       	sbrc	r24, 3
    4f10:	09 c0       	rjmp	.+18     	; 0x4f24 <mmc_disk_read+0x34>
    4f12:	03 2e       	mov	r0, r19
    4f14:	39 e0       	ldi	r19, 0x09	; 9
    4f16:	44 0f       	add	r20, r20
    4f18:	55 1f       	adc	r21, r21
    4f1a:	66 1f       	adc	r22, r22
    4f1c:	77 1f       	adc	r23, r23
    4f1e:	3a 95       	dec	r19
    4f20:	d1 f7       	brne	.-12     	; 0x4f16 <mmc_disk_read+0x26>
    4f22:	30 2d       	mov	r19, r0

	cmd = count > 1 ? CMD18 : CMD17;			/*  READ_MULTIPLE_BLOCK : READ_SINGLE_BLOCK */
    4f24:	c2 30       	cpi	r28, 0x02	; 2
    4f26:	d1 05       	cpc	r29, r1
    4f28:	28 f0       	brcs	.+10     	; 0x4f34 <mmc_disk_read+0x44>
    4f2a:	0f 2e       	mov	r0, r31
    4f2c:	f2 e1       	ldi	r31, 0x12	; 18
    4f2e:	ff 2e       	mov	r15, r31
    4f30:	f0 2d       	mov	r31, r0
    4f32:	04 c0       	rjmp	.+8      	; 0x4f3c <mmc_disk_read+0x4c>
    4f34:	0f 2e       	mov	r0, r31
    4f36:	f1 e1       	ldi	r31, 0x11	; 17
    4f38:	ff 2e       	mov	r15, r31
    4f3a:	f0 2d       	mov	r31, r0
	if (send_cmd(cmd, sector) == 0) {
    4f3c:	8f 2d       	mov	r24, r15
    4f3e:	bf de       	rcall	.-642    	; 0x4cbe <send_cmd>
    4f40:	81 11       	cpse	r24, r1
    4f42:	11 c0       	rjmp	.+34     	; 0x4f66 <mmc_disk_read+0x76>
		do {
			if (!rcvr_datablock(buff, 512)) break;
    4f44:	60 e0       	ldi	r22, 0x00	; 0
    4f46:	72 e0       	ldi	r23, 0x02	; 2
    4f48:	c8 01       	movw	r24, r16
    4f4a:	6f de       	rcall	.-802    	; 0x4c2a <rcvr_datablock>
    4f4c:	89 2b       	or	r24, r25
    4f4e:	19 f0       	breq	.+6      	; 0x4f56 <mmc_disk_read+0x66>
			buff += 512;
    4f50:	1e 5f       	subi	r17, 0xFE	; 254
		} while (--count);
    4f52:	21 97       	sbiw	r28, 0x01	; 1
    4f54:	b9 f7       	brne	.-18     	; 0x4f44 <mmc_disk_read+0x54>
		if (cmd == CMD18) send_cmd(CMD12, 0);	/* STOP_TRANSMISSION */
    4f56:	82 e1       	ldi	r24, 0x12	; 18
    4f58:	f8 12       	cpse	r15, r24
    4f5a:	05 c0       	rjmp	.+10     	; 0x4f66 <mmc_disk_read+0x76>
    4f5c:	40 e0       	ldi	r20, 0x00	; 0
    4f5e:	50 e0       	ldi	r21, 0x00	; 0
    4f60:	ba 01       	movw	r22, r20
    4f62:	8c e0       	ldi	r24, 0x0C	; 12
	}
	deselect();
    4f64:	ac de       	rcall	.-680    	; 0x4cbe <send_cmd>
    4f66:	46 de       	rcall	.-884    	; 0x4bf4 <deselect>

	return count ? RES_ERROR : RES_OK;
    4f68:	81 e0       	ldi	r24, 0x01	; 1
    4f6a:	cd 2b       	or	r28, r29
    4f6c:	09 f4       	brne	.+2      	; 0x4f70 <mmc_disk_read+0x80>
    4f6e:	80 e0       	ldi	r24, 0x00	; 0
    4f70:	90 e0       	ldi	r25, 0x00	; 0
    4f72:	05 c0       	rjmp	.+10     	; 0x4f7e <mmc_disk_read+0x8e>
)
{
	BYTE cmd;


	if (!count) return RES_PARERR;
    4f74:	84 e0       	ldi	r24, 0x04	; 4
    4f76:	90 e0       	ldi	r25, 0x00	; 0
    4f78:	02 c0       	rjmp	.+4      	; 0x4f7e <mmc_disk_read+0x8e>
	if (Stat & STA_NOINIT) return RES_NOTRDY;
    4f7a:	83 e0       	ldi	r24, 0x03	; 3
    4f7c:	90 e0       	ldi	r25, 0x00	; 0
		if (cmd == CMD18) send_cmd(CMD12, 0);	/* STOP_TRANSMISSION */
	}
	deselect();

	return count ? RES_ERROR : RES_OK;
}
    4f7e:	df 91       	pop	r29
    4f80:	cf 91       	pop	r28
    4f82:	1f 91       	pop	r17
    4f84:	0f 91       	pop	r16
    4f86:	ff 90       	pop	r15
    4f88:	08 95       	ret

00004f8a <mmc_disk_write>:
DRESULT mmc_disk_write (
	const BYTE *buff,	/* Pointer to the data to be written */
	DWORD sector,		/* Start sector number (LBA) */
	UINT count			/* Sector count (1..128) */
)
{
    4f8a:	cf 92       	push	r12
    4f8c:	df 92       	push	r13
    4f8e:	ef 92       	push	r14
    4f90:	ff 92       	push	r15
    4f92:	0f 93       	push	r16
    4f94:	1f 93       	push	r17
    4f96:	cf 93       	push	r28
    4f98:	df 93       	push	r29
    4f9a:	8c 01       	movw	r16, r24
    4f9c:	6a 01       	movw	r12, r20
    4f9e:	7b 01       	movw	r14, r22
    4fa0:	e9 01       	movw	r28, r18
	if (!count) return RES_PARERR;
    4fa2:	20 97       	sbiw	r28, 0x00	; 0
    4fa4:	09 f4       	brne	.+2      	; 0x4fa8 <mmc_disk_write+0x1e>
    4fa6:	4c c0       	rjmp	.+152    	; 0x5040 <mmc_disk_write+0xb6>
	if (Stat & STA_NOINIT) return RES_NOTRDY;
    4fa8:	80 91 0c 01 	lds	r24, 0x010C	; 0x80010c <Stat>
    4fac:	80 fd       	sbrc	r24, 0
    4fae:	4b c0       	rjmp	.+150    	; 0x5046 <mmc_disk_write+0xbc>
	if (Stat & STA_PROTECT) return RES_WRPRT;
    4fb0:	80 91 0c 01 	lds	r24, 0x010C	; 0x80010c <Stat>
    4fb4:	82 fd       	sbrc	r24, 2
    4fb6:	4a c0       	rjmp	.+148    	; 0x504c <mmc_disk_write+0xc2>

	if (!(CardType & CT_BLOCK)) sector *= 512;	/* Convert to byte address if needed */
    4fb8:	80 91 11 02 	lds	r24, 0x0211	; 0x800211 <CardType>
    4fbc:	83 fd       	sbrc	r24, 3
    4fbe:	09 c0       	rjmp	.+18     	; 0x4fd2 <mmc_disk_write+0x48>
    4fc0:	0b 2e       	mov	r0, r27
    4fc2:	b9 e0       	ldi	r27, 0x09	; 9
    4fc4:	cc 0c       	add	r12, r12
    4fc6:	dd 1c       	adc	r13, r13
    4fc8:	ee 1c       	adc	r14, r14
    4fca:	ff 1c       	adc	r15, r15
    4fcc:	ba 95       	dec	r27
    4fce:	d1 f7       	brne	.-12     	; 0x4fc4 <mmc_disk_write+0x3a>
    4fd0:	b0 2d       	mov	r27, r0

	if (count == 1) {	/* Single block write */
    4fd2:	c1 30       	cpi	r28, 0x01	; 1
    4fd4:	d1 05       	cpc	r29, r1
    4fd6:	61 f4       	brne	.+24     	; 0x4ff0 <mmc_disk_write+0x66>
		if ((send_cmd(CMD24, sector) == 0)	/* WRITE_BLOCK */
    4fd8:	b7 01       	movw	r22, r14
    4fda:	a6 01       	movw	r20, r12
    4fdc:	88 e1       	ldi	r24, 0x18	; 24
    4fde:	6f de       	rcall	.-802    	; 0x4cbe <send_cmd>
    4fe0:	81 11       	cpse	r24, r1
    4fe2:	27 c0       	rjmp	.+78     	; 0x5032 <mmc_disk_write+0xa8>
			&& xmit_datablock(buff, 0xFE)) {
    4fe4:	6e ef       	ldi	r22, 0xFE	; 254
    4fe6:	c8 01       	movw	r24, r16
    4fe8:	44 de       	rcall	.-888    	; 0x4c72 <xmit_datablock>
    4fea:	89 2b       	or	r24, r25
    4fec:	e9 f4       	brne	.+58     	; 0x5028 <mmc_disk_write+0x9e>
    4fee:	21 c0       	rjmp	.+66     	; 0x5032 <mmc_disk_write+0xa8>
			count = 0;
		}
	}
	else {				/* Multiple block write */
		if (CardType & CT_SDC) send_cmd(ACMD23, count);
    4ff0:	86 70       	andi	r24, 0x06	; 6
    4ff2:	29 f0       	breq	.+10     	; 0x4ffe <mmc_disk_write+0x74>
    4ff4:	ae 01       	movw	r20, r28
    4ff6:	60 e0       	ldi	r22, 0x00	; 0
    4ff8:	70 e0       	ldi	r23, 0x00	; 0
    4ffa:	87 e9       	ldi	r24, 0x97	; 151
		if (send_cmd(CMD25, sector) == 0) {	/* WRITE_MULTIPLE_BLOCK */
    4ffc:	60 de       	rcall	.-832    	; 0x4cbe <send_cmd>
    4ffe:	b7 01       	movw	r22, r14
    5000:	a6 01       	movw	r20, r12
    5002:	89 e1       	ldi	r24, 0x19	; 25
    5004:	5c de       	rcall	.-840    	; 0x4cbe <send_cmd>
			do {
				if (!xmit_datablock(buff, 0xFC)) break;
    5006:	81 11       	cpse	r24, r1
    5008:	14 c0       	rjmp	.+40     	; 0x5032 <mmc_disk_write+0xa8>
    500a:	6c ef       	ldi	r22, 0xFC	; 252
    500c:	c8 01       	movw	r24, r16
    500e:	31 de       	rcall	.-926    	; 0x4c72 <xmit_datablock>
    5010:	89 2b       	or	r24, r25
				buff += 512;
			} while (--count);
    5012:	19 f0       	breq	.+6      	; 0x501a <mmc_disk_write+0x90>
			if (!xmit_datablock(0, 0xFD)) count = 1;	/* STOP_TRAN token */
    5014:	1e 5f       	subi	r17, 0xFE	; 254
    5016:	21 97       	sbiw	r28, 0x01	; 1
    5018:	c1 f7       	brne	.-16     	; 0x500a <mmc_disk_write+0x80>
    501a:	6d ef       	ldi	r22, 0xFD	; 253
    501c:	80 e0       	ldi	r24, 0x00	; 0
    501e:	90 e0       	ldi	r25, 0x00	; 0
    5020:	28 de       	rcall	.-944    	; 0x4c72 <xmit_datablock>
	if (!(CardType & CT_BLOCK)) sector *= 512;	/* Convert to byte address if needed */

	if (count == 1) {	/* Single block write */
		if ((send_cmd(CMD24, sector) == 0)	/* WRITE_BLOCK */
			&& xmit_datablock(buff, 0xFE)) {
			count = 0;
    5022:	89 2b       	or	r24, r25
    5024:	21 f0       	breq	.+8      	; 0x502e <mmc_disk_write+0xa4>
    5026:	05 c0       	rjmp	.+10     	; 0x5032 <mmc_disk_write+0xa8>
		if (send_cmd(CMD25, sector) == 0) {	/* WRITE_MULTIPLE_BLOCK */
			do {
				if (!xmit_datablock(buff, 0xFC)) break;
				buff += 512;
			} while (--count);
			if (!xmit_datablock(0, 0xFD)) count = 1;	/* STOP_TRAN token */
    5028:	c0 e0       	ldi	r28, 0x00	; 0
    502a:	d0 e0       	ldi	r29, 0x00	; 0
		}
	}
	deselect();
    502c:	02 c0       	rjmp	.+4      	; 0x5032 <mmc_disk_write+0xa8>
    502e:	c1 e0       	ldi	r28, 0x01	; 1

	return count ? RES_ERROR : RES_OK;
    5030:	d0 e0       	ldi	r29, 0x00	; 0
    5032:	e0 dd       	rcall	.-1088   	; 0x4bf4 <deselect>
    5034:	81 e0       	ldi	r24, 0x01	; 1
    5036:	cd 2b       	or	r28, r29
    5038:	09 f4       	brne	.+2      	; 0x503c <mmc_disk_write+0xb2>
    503a:	80 e0       	ldi	r24, 0x00	; 0
	const BYTE *buff,	/* Pointer to the data to be written */
	DWORD sector,		/* Start sector number (LBA) */
	UINT count			/* Sector count (1..128) */
)
{
	if (!count) return RES_PARERR;
    503c:	90 e0       	ldi	r25, 0x00	; 0
    503e:	08 c0       	rjmp	.+16     	; 0x5050 <mmc_disk_write+0xc6>
    5040:	84 e0       	ldi	r24, 0x04	; 4
	if (Stat & STA_NOINIT) return RES_NOTRDY;
    5042:	90 e0       	ldi	r25, 0x00	; 0
    5044:	05 c0       	rjmp	.+10     	; 0x5050 <mmc_disk_write+0xc6>
    5046:	83 e0       	ldi	r24, 0x03	; 3
	if (Stat & STA_PROTECT) return RES_WRPRT;
    5048:	90 e0       	ldi	r25, 0x00	; 0
    504a:	02 c0       	rjmp	.+4      	; 0x5050 <mmc_disk_write+0xc6>
		}
	}
	deselect();

	return count ? RES_ERROR : RES_OK;
}
    504c:	82 e0       	ldi	r24, 0x02	; 2
    504e:	90 e0       	ldi	r25, 0x00	; 0
    5050:	df 91       	pop	r29
    5052:	cf 91       	pop	r28
    5054:	1f 91       	pop	r17
    5056:	0f 91       	pop	r16
    5058:	ff 90       	pop	r15
    505a:	ef 90       	pop	r14
    505c:	df 90       	pop	r13
    505e:	cf 90       	pop	r12
    5060:	08 95       	ret

00005062 <mmc_disk_ioctl>:
#if _USE_IOCTL
DRESULT mmc_disk_ioctl (
	BYTE cmd,		/* Control code */
	void *buff		/* Buffer to send/receive control data */
)
{
    5062:	8f 92       	push	r8
    5064:	9f 92       	push	r9
    5066:	af 92       	push	r10
    5068:	bf 92       	push	r11
    506a:	cf 92       	push	r12
    506c:	df 92       	push	r13
    506e:	ef 92       	push	r14
    5070:	ff 92       	push	r15
    5072:	0f 93       	push	r16
    5074:	1f 93       	push	r17
    5076:	cf 93       	push	r28
    5078:	df 93       	push	r29
    507a:	cd b7       	in	r28, 0x3d	; 61
    507c:	de b7       	in	r29, 0x3e	; 62
    507e:	60 97       	sbiw	r28, 0x10	; 16
    5080:	0f b6       	in	r0, 0x3f	; 63
    5082:	f8 94       	cli
    5084:	de bf       	out	0x3e, r29	; 62
    5086:	0f be       	out	0x3f, r0	; 63
    5088:	cd bf       	out	0x3d, r28	; 61
    508a:	e8 2f       	mov	r30, r24
    508c:	8b 01       	movw	r16, r22
	SDIO_CTRL *sdi;
	BYTE rc, *bp;
	UINT dc;
#endif

	if (Stat & STA_NOINIT) return RES_NOTRDY;
    508e:	80 91 0c 01 	lds	r24, 0x010C	; 0x80010c <Stat>
    5092:	80 fd       	sbrc	r24, 0
    5094:	31 c3       	rjmp	.+1634   	; 0x56f8 <mmc_disk_ioctl+0x696>

	res = RES_ERROR;
	switch (cmd) {
    5096:	8e 2f       	mov	r24, r30
    5098:	90 e0       	ldi	r25, 0x00	; 0
    509a:	8a 33       	cpi	r24, 0x3A	; 58
    509c:	91 05       	cpc	r25, r1
    509e:	08 f0       	brcs	.+2      	; 0x50a2 <mmc_disk_ioctl+0x40>
    50a0:	31 c3       	rjmp	.+1634   	; 0x5704 <mmc_disk_ioctl+0x6a2>
    50a2:	fc 01       	movw	r30, r24
    50a4:	ec 5c       	subi	r30, 0xCC	; 204
    50a6:	ff 4f       	sbci	r31, 0xFF	; 255
	case CTRL_SYNC :		/* Make sure that no pending write process. Do not remove this or written sector might not left updated. */
		if (select()) res = RES_OK;
    50a8:	5d c4       	rjmp	.+2234   	; 0x5964 <__tablejump2__>
    50aa:	aa dd       	rcall	.-1196   	; 0x4c00 <select>
    50ac:	89 2b       	or	r24, r25
    50ae:	19 f4       	brne	.+6      	; 0x50b6 <mmc_disk_ioctl+0x54>
	UINT dc;
#endif

	if (Stat & STA_NOINIT) return RES_NOTRDY;

	res = RES_ERROR;
    50b0:	01 e0       	ldi	r16, 0x01	; 1
    50b2:	10 e0       	ldi	r17, 0x00	; 0
	switch (cmd) {
	case CTRL_SYNC :		/* Make sure that no pending write process. Do not remove this or written sector might not left updated. */
		if (select()) res = RES_OK;
    50b4:	02 c0       	rjmp	.+4      	; 0x50ba <mmc_disk_ioctl+0x58>
		deselect();
    50b6:	00 e0       	ldi	r16, 0x00	; 0
    50b8:	10 e0       	ldi	r17, 0x00	; 0
		break;
    50ba:	9c dd       	rcall	.-1224   	; 0x4bf4 <deselect>
    50bc:	e0 2e       	mov	r14, r16
    50be:	f1 2e       	mov	r15, r17

	case GET_SECTOR_COUNT :	/* Get number of sectors on the disk (DWORD) */
		if ((send_cmd(CMD9, 0) == 0) && rcvr_datablock(csd, 16)) {
    50c0:	3d c3       	rjmp	.+1658   	; 0x573c <mmc_disk_ioctl+0x6da>
    50c2:	40 e0       	ldi	r20, 0x00	; 0
    50c4:	50 e0       	ldi	r21, 0x00	; 0
    50c6:	ba 01       	movw	r22, r20
    50c8:	89 e0       	ldi	r24, 0x09	; 9
    50ca:	f9 dd       	rcall	.-1038   	; 0x4cbe <send_cmd>
    50cc:	81 11       	cpse	r24, r1
    50ce:	6f c0       	rjmp	.+222    	; 0x51ae <mmc_disk_ioctl+0x14c>
    50d0:	60 e1       	ldi	r22, 0x10	; 16
    50d2:	70 e0       	ldi	r23, 0x00	; 0
    50d4:	ce 01       	movw	r24, r28
    50d6:	01 96       	adiw	r24, 0x01	; 1
    50d8:	a8 dd       	rcall	.-1200   	; 0x4c2a <rcvr_datablock>
    50da:	89 2b       	or	r24, r25
			if ((csd[0] >> 6) == 1) {	/* SDC ver 2.00 */
    50dc:	09 f4       	brne	.+2      	; 0x50e0 <mmc_disk_ioctl+0x7e>
    50de:	6a c0       	rjmp	.+212    	; 0x51b4 <mmc_disk_ioctl+0x152>
    50e0:	89 81       	ldd	r24, Y+1	; 0x01
    50e2:	82 95       	swap	r24
    50e4:	86 95       	lsr	r24
    50e6:	86 95       	lsr	r24
    50e8:	83 70       	andi	r24, 0x03	; 3
				csize = csd[9] + ((WORD)csd[8] << 8) + ((DWORD)(csd[7] & 63) << 16) + 1;
    50ea:	81 30       	cpi	r24, 0x01	; 1
    50ec:	39 f5       	brne	.+78     	; 0x513c <mmc_disk_ioctl+0xda>
    50ee:	8a 85       	ldd	r24, Y+10	; 0x0a
    50f0:	29 85       	ldd	r18, Y+9	; 0x09
    50f2:	30 e0       	ldi	r19, 0x00	; 0
    50f4:	32 2f       	mov	r19, r18
    50f6:	22 27       	eor	r18, r18
    50f8:	28 0f       	add	r18, r24
    50fa:	31 1d       	adc	r19, r1
    50fc:	88 85       	ldd	r24, Y+8	; 0x08
    50fe:	8f 73       	andi	r24, 0x3F	; 63
    5100:	90 e0       	ldi	r25, 0x00	; 0
    5102:	a0 e0       	ldi	r26, 0x00	; 0
    5104:	b0 e0       	ldi	r27, 0x00	; 0
    5106:	dc 01       	movw	r26, r24
    5108:	99 27       	eor	r25, r25
    510a:	88 27       	eor	r24, r24
    510c:	82 0f       	add	r24, r18
    510e:	93 1f       	adc	r25, r19
    5110:	a1 1d       	adc	r26, r1
    5112:	b1 1d       	adc	r27, r1
    5114:	01 96       	adiw	r24, 0x01	; 1
				*(DWORD*)buff = csize << 10;
    5116:	a1 1d       	adc	r26, r1
    5118:	b1 1d       	adc	r27, r1
    511a:	07 2e       	mov	r0, r23
    511c:	7a e0       	ldi	r23, 0x0A	; 10
    511e:	88 0f       	add	r24, r24
    5120:	99 1f       	adc	r25, r25
    5122:	aa 1f       	adc	r26, r26
    5124:	bb 1f       	adc	r27, r27
    5126:	7a 95       	dec	r23
    5128:	d1 f7       	brne	.-12     	; 0x511e <mmc_disk_ioctl+0xbc>
    512a:	70 2d       	mov	r23, r0
    512c:	f8 01       	movw	r30, r16
    512e:	80 83       	st	Z, r24
    5130:	91 83       	std	Z+1, r25	; 0x01
			} else {					/* SDC ver 1.XX or MMC*/
				n = (csd[5] & 15) + ((csd[10] & 128) >> 7) + ((csd[9] & 3) << 1) + 2;
				csize = (csd[8] >> 6) + ((WORD)csd[7] << 2) + ((WORD)(csd[6] & 3) << 10) + 1;
				*(DWORD*)buff = csize << (n - 9);
			}
			res = RES_OK;
    5132:	a2 83       	std	Z+2, r26	; 0x02
    5134:	b3 83       	std	Z+3, r27	; 0x03
    5136:	00 e0       	ldi	r16, 0x00	; 0
		if ((send_cmd(CMD9, 0) == 0) && rcvr_datablock(csd, 16)) {
			if ((csd[0] >> 6) == 1) {	/* SDC ver 2.00 */
				csize = csd[9] + ((WORD)csd[8] << 8) + ((DWORD)(csd[7] & 63) << 16) + 1;
				*(DWORD*)buff = csize << 10;
			} else {					/* SDC ver 1.XX or MMC*/
				n = (csd[5] & 15) + ((csd[10] & 128) >> 7) + ((csd[9] & 3) << 1) + 2;
    5138:	10 e0       	ldi	r17, 0x00	; 0
    513a:	3e c0       	rjmp	.+124    	; 0x51b8 <mmc_disk_ioctl+0x156>
    513c:	2e 81       	ldd	r18, Y+6	; 0x06
    513e:	9b 85       	ldd	r25, Y+11	; 0x0b
    5140:	99 1f       	adc	r25, r25
    5142:	99 27       	eor	r25, r25
    5144:	99 1f       	adc	r25, r25
    5146:	8a 85       	ldd	r24, Y+10	; 0x0a
    5148:	2f 70       	andi	r18, 0x0F	; 15
    514a:	29 0f       	add	r18, r25
    514c:	83 70       	andi	r24, 0x03	; 3
    514e:	88 0f       	add	r24, r24
				csize = (csd[8] >> 6) + ((WORD)csd[7] << 2) + ((WORD)(csd[6] & 3) << 10) + 1;
    5150:	28 0f       	add	r18, r24
    5152:	2e 5f       	subi	r18, 0xFE	; 254
    5154:	39 85       	ldd	r19, Y+9	; 0x09
    5156:	88 85       	ldd	r24, Y+8	; 0x08
    5158:	90 e0       	ldi	r25, 0x00	; 0
    515a:	88 0f       	add	r24, r24
    515c:	99 1f       	adc	r25, r25
    515e:	88 0f       	add	r24, r24
    5160:	99 1f       	adc	r25, r25
    5162:	32 95       	swap	r19
    5164:	36 95       	lsr	r19
    5166:	36 95       	lsr	r19
    5168:	33 70       	andi	r19, 0x03	; 3
    516a:	ac 01       	movw	r20, r24
    516c:	43 0f       	add	r20, r19
    516e:	51 1d       	adc	r21, r1
    5170:	9f 81       	ldd	r25, Y+7	; 0x07
    5172:	93 70       	andi	r25, 0x03	; 3
    5174:	89 2f       	mov	r24, r25
    5176:	90 e0       	ldi	r25, 0x00	; 0
    5178:	98 2f       	mov	r25, r24
    517a:	88 27       	eor	r24, r24
    517c:	99 0f       	add	r25, r25
    517e:	99 0f       	add	r25, r25
    5180:	84 0f       	add	r24, r20
    5182:	95 1f       	adc	r25, r21
    5184:	01 96       	adiw	r24, 0x01	; 1
				*(DWORD*)buff = csize << (n - 9);
    5186:	a0 e0       	ldi	r26, 0x00	; 0
    5188:	b0 e0       	ldi	r27, 0x00	; 0
    518a:	30 e0       	ldi	r19, 0x00	; 0
    518c:	29 50       	subi	r18, 0x09	; 9
    518e:	31 09       	sbc	r19, r1
    5190:	04 c0       	rjmp	.+8      	; 0x519a <mmc_disk_ioctl+0x138>
    5192:	88 0f       	add	r24, r24
    5194:	99 1f       	adc	r25, r25
    5196:	aa 1f       	adc	r26, r26
    5198:	bb 1f       	adc	r27, r27
    519a:	2a 95       	dec	r18
    519c:	d2 f7       	brpl	.-12     	; 0x5192 <mmc_disk_ioctl+0x130>
    519e:	f8 01       	movw	r30, r16
    51a0:	80 83       	st	Z, r24
    51a2:	91 83       	std	Z+1, r25	; 0x01
			}
			res = RES_OK;
    51a4:	a2 83       	std	Z+2, r26	; 0x02
    51a6:	b3 83       	std	Z+3, r27	; 0x03
	UINT dc;
#endif

	if (Stat & STA_NOINIT) return RES_NOTRDY;

	res = RES_ERROR;
    51a8:	00 e0       	ldi	r16, 0x00	; 0
    51aa:	10 e0       	ldi	r17, 0x00	; 0
    51ac:	05 c0       	rjmp	.+10     	; 0x51b8 <mmc_disk_ioctl+0x156>
    51ae:	01 e0       	ldi	r16, 0x01	; 1
				csize = (csd[8] >> 6) + ((WORD)csd[7] << 2) + ((WORD)(csd[6] & 3) << 10) + 1;
				*(DWORD*)buff = csize << (n - 9);
			}
			res = RES_OK;
		}
		deselect();
    51b0:	10 e0       	ldi	r17, 0x00	; 0
    51b2:	02 c0       	rjmp	.+4      	; 0x51b8 <mmc_disk_ioctl+0x156>
		break;
    51b4:	01 e0       	ldi	r16, 0x01	; 1
    51b6:	10 e0       	ldi	r17, 0x00	; 0
    51b8:	1d dd       	rcall	.-1478   	; 0x4bf4 <deselect>

	case GET_BLOCK_SIZE :	/* Get erase block size in unit of sector (DWORD) */
		if (CardType & CT_SD2) {	/* SDv2? */
    51ba:	e0 2e       	mov	r14, r16
    51bc:	f1 2e       	mov	r15, r17
    51be:	be c2       	rjmp	.+1404   	; 0x573c <mmc_disk_ioctl+0x6da>
			if (send_cmd(ACMD13, 0) == 0) {	/* Read SD status */
    51c0:	80 91 11 02 	lds	r24, 0x0211	; 0x800211 <CardType>
    51c4:	82 ff       	sbrs	r24, 2
    51c6:	33 c0       	rjmp	.+102    	; 0x522e <mmc_disk_ioctl+0x1cc>
    51c8:	40 e0       	ldi	r20, 0x00	; 0
    51ca:	50 e0       	ldi	r21, 0x00	; 0
				xchg_spi(0xFF);
    51cc:	ba 01       	movw	r22, r20
    51ce:	8d e8       	ldi	r24, 0x8D	; 141
    51d0:	76 dd       	rcall	.-1300   	; 0x4cbe <send_cmd>
				if (rcvr_datablock(csd, 16)) {				/* Read partial block */
    51d2:	81 11       	cpse	r24, r1
    51d4:	8a c0       	rjmp	.+276    	; 0x52ea <mmc_disk_ioctl+0x288>
    51d6:	8f ef       	ldi	r24, 0xFF	; 255
    51d8:	c0 dc       	rcall	.-1664   	; 0x4b5a <xchg_spi>
    51da:	60 e1       	ldi	r22, 0x10	; 16
    51dc:	70 e0       	ldi	r23, 0x00	; 0
    51de:	ce 01       	movw	r24, r28
	UINT dc;
#endif

	if (Stat & STA_NOINIT) return RES_NOTRDY;

	res = RES_ERROR;
    51e0:	01 96       	adiw	r24, 0x01	; 1
    51e2:	23 dd       	rcall	.-1466   	; 0x4c2a <rcvr_datablock>
    51e4:	89 2b       	or	r24, r25
	case GET_BLOCK_SIZE :	/* Get erase block size in unit of sector (DWORD) */
		if (CardType & CT_SD2) {	/* SDv2? */
			if (send_cmd(ACMD13, 0) == 0) {	/* Read SD status */
				xchg_spi(0xFF);
				if (rcvr_datablock(csd, 16)) {				/* Read partial block */
					for (n = 64 - 16; n; n--) xchg_spi(0xFF);	/* Purge trailing data */
    51e6:	39 f4       	brne	.+14     	; 0x51f6 <mmc_disk_ioctl+0x194>
    51e8:	01 e0       	ldi	r16, 0x01	; 1
    51ea:	10 e0       	ldi	r17, 0x00	; 0
    51ec:	86 c0       	rjmp	.+268    	; 0x52fa <mmc_disk_ioctl+0x298>
    51ee:	8f ef       	ldi	r24, 0xFF	; 255
    51f0:	b4 dc       	rcall	.-1688   	; 0x4b5a <xchg_spi>
    51f2:	fa 94       	dec	r15
    51f4:	04 c0       	rjmp	.+8      	; 0x51fe <mmc_disk_ioctl+0x19c>
    51f6:	0f 2e       	mov	r0, r31
    51f8:	f0 e3       	ldi	r31, 0x30	; 48
    51fa:	ff 2e       	mov	r15, r31
					*(DWORD*)buff = 16UL << (csd[10] >> 4);
    51fc:	f0 2d       	mov	r31, r0
    51fe:	f1 10       	cpse	r15, r1
    5200:	f6 cf       	rjmp	.-20     	; 0x51ee <mmc_disk_ioctl+0x18c>
    5202:	2b 85       	ldd	r18, Y+11	; 0x0b
    5204:	22 95       	swap	r18
    5206:	2f 70       	andi	r18, 0x0F	; 15
    5208:	80 e1       	ldi	r24, 0x10	; 16
    520a:	90 e0       	ldi	r25, 0x00	; 0
    520c:	a0 e0       	ldi	r26, 0x00	; 0
    520e:	b0 e0       	ldi	r27, 0x00	; 0
    5210:	04 c0       	rjmp	.+8      	; 0x521a <mmc_disk_ioctl+0x1b8>
    5212:	88 0f       	add	r24, r24
    5214:	99 1f       	adc	r25, r25
    5216:	aa 1f       	adc	r26, r26
    5218:	bb 1f       	adc	r27, r27
    521a:	2a 95       	dec	r18
    521c:	d2 f7       	brpl	.-12     	; 0x5212 <mmc_disk_ioctl+0x1b0>
    521e:	f8 01       	movw	r30, r16
					res = RES_OK;
    5220:	80 83       	st	Z, r24
    5222:	91 83       	std	Z+1, r25	; 0x01
    5224:	a2 83       	std	Z+2, r26	; 0x02
				}
			}
		} else {					/* SDv1 or MMCv3 */
			if ((send_cmd(CMD9, 0) == 0) && rcvr_datablock(csd, 16)) {	/* Read CSD */
    5226:	b3 83       	std	Z+3, r27	; 0x03
    5228:	00 e0       	ldi	r16, 0x00	; 0
    522a:	10 e0       	ldi	r17, 0x00	; 0
    522c:	66 c0       	rjmp	.+204    	; 0x52fa <mmc_disk_ioctl+0x298>
    522e:	40 e0       	ldi	r20, 0x00	; 0
    5230:	50 e0       	ldi	r21, 0x00	; 0
    5232:	ba 01       	movw	r22, r20
    5234:	89 e0       	ldi	r24, 0x09	; 9
    5236:	43 dd       	rcall	.-1402   	; 0x4cbe <send_cmd>
    5238:	81 11       	cpse	r24, r1
    523a:	5a c0       	rjmp	.+180    	; 0x52f0 <mmc_disk_ioctl+0x28e>
    523c:	60 e1       	ldi	r22, 0x10	; 16
    523e:	70 e0       	ldi	r23, 0x00	; 0
    5240:	ce 01       	movw	r24, r28
    5242:	01 96       	adiw	r24, 0x01	; 1
    5244:	f2 dc       	rcall	.-1564   	; 0x4c2a <rcvr_datablock>
				if (CardType & CT_SD1) {	/* SDv1 */
    5246:	89 2b       	or	r24, r25
    5248:	09 f4       	brne	.+2      	; 0x524c <mmc_disk_ioctl+0x1ea>
    524a:	55 c0       	rjmp	.+170    	; 0x52f6 <mmc_disk_ioctl+0x294>
    524c:	80 91 11 02 	lds	r24, 0x0211	; 0x800211 <CardType>
					*(DWORD*)buff = (((csd[10] & 63) << 1) + ((WORD)(csd[11] & 128) >> 7) + 1) << ((csd[13] >> 6) - 1);
    5250:	81 ff       	sbrs	r24, 1
    5252:	20 c0       	rjmp	.+64     	; 0x5294 <mmc_disk_ioctl+0x232>
    5254:	8b 85       	ldd	r24, Y+11	; 0x0b
    5256:	8f 73       	andi	r24, 0x3F	; 63
    5258:	90 e0       	ldi	r25, 0x00	; 0
    525a:	88 0f       	add	r24, r24
    525c:	99 1f       	adc	r25, r25
    525e:	2c 85       	ldd	r18, Y+12	; 0x0c
    5260:	27 fd       	sbrc	r18, 7
    5262:	01 96       	adiw	r24, 0x01	; 1
    5264:	01 96       	adiw	r24, 0x01	; 1
    5266:	2e 85       	ldd	r18, Y+14	; 0x0e
    5268:	22 95       	swap	r18
    526a:	26 95       	lsr	r18
    526c:	26 95       	lsr	r18
    526e:	23 70       	andi	r18, 0x03	; 3
    5270:	30 e0       	ldi	r19, 0x00	; 0
    5272:	21 50       	subi	r18, 0x01	; 1
    5274:	31 09       	sbc	r19, r1
    5276:	02 c0       	rjmp	.+4      	; 0x527c <mmc_disk_ioctl+0x21a>
    5278:	88 0f       	add	r24, r24
    527a:	99 1f       	adc	r25, r25
    527c:	2a 95       	dec	r18
    527e:	e2 f7       	brpl	.-8      	; 0x5278 <mmc_disk_ioctl+0x216>
    5280:	a0 e0       	ldi	r26, 0x00	; 0
    5282:	b0 e0       	ldi	r27, 0x00	; 0
    5284:	f8 01       	movw	r30, r16
    5286:	80 83       	st	Z, r24
				} else {					/* MMCv3 */
					*(DWORD*)buff = ((WORD)((csd[10] & 124) >> 2) + 1) * (((csd[11] & 3) << 3) + ((csd[11] & 224) >> 5) + 1);
				}
				res = RES_OK;
    5288:	91 83       	std	Z+1, r25	; 0x01
    528a:	a2 83       	std	Z+2, r26	; 0x02
    528c:	b3 83       	std	Z+3, r27	; 0x03
		} else {					/* SDv1 or MMCv3 */
			if ((send_cmd(CMD9, 0) == 0) && rcvr_datablock(csd, 16)) {	/* Read CSD */
				if (CardType & CT_SD1) {	/* SDv1 */
					*(DWORD*)buff = (((csd[10] & 63) << 1) + ((WORD)(csd[11] & 128) >> 7) + 1) << ((csd[13] >> 6) - 1);
				} else {					/* MMCv3 */
					*(DWORD*)buff = ((WORD)((csd[10] & 124) >> 2) + 1) * (((csd[11] & 3) << 3) + ((csd[11] & 224) >> 5) + 1);
    528e:	00 e0       	ldi	r16, 0x00	; 0
    5290:	10 e0       	ldi	r17, 0x00	; 0
    5292:	33 c0       	rjmp	.+102    	; 0x52fa <mmc_disk_ioctl+0x298>
    5294:	8b 85       	ldd	r24, Y+11	; 0x0b
    5296:	8c 77       	andi	r24, 0x7C	; 124
    5298:	90 e0       	ldi	r25, 0x00	; 0
    529a:	95 95       	asr	r25
    529c:	87 95       	ror	r24
    529e:	95 95       	asr	r25
    52a0:	87 95       	ror	r24
    52a2:	01 96       	adiw	r24, 0x01	; 1
    52a4:	4c 85       	ldd	r20, Y+12	; 0x0c
    52a6:	24 2f       	mov	r18, r20
    52a8:	23 70       	andi	r18, 0x03	; 3
    52aa:	30 e0       	ldi	r19, 0x00	; 0
    52ac:	22 0f       	add	r18, r18
    52ae:	33 1f       	adc	r19, r19
    52b0:	22 0f       	add	r18, r18
    52b2:	33 1f       	adc	r19, r19
    52b4:	22 0f       	add	r18, r18
    52b6:	33 1f       	adc	r19, r19
    52b8:	42 95       	swap	r20
    52ba:	46 95       	lsr	r20
    52bc:	47 70       	andi	r20, 0x07	; 7
    52be:	24 0f       	add	r18, r20
    52c0:	31 1d       	adc	r19, r1
    52c2:	2f 5f       	subi	r18, 0xFF	; 255
    52c4:	3f 4f       	sbci	r19, 0xFF	; 255
    52c6:	28 9f       	mul	r18, r24
    52c8:	a0 01       	movw	r20, r0
    52ca:	29 9f       	mul	r18, r25
    52cc:	50 0d       	add	r21, r0
    52ce:	38 9f       	mul	r19, r24
    52d0:	50 0d       	add	r21, r0
    52d2:	11 24       	eor	r1, r1
    52d4:	ca 01       	movw	r24, r20
    52d6:	a0 e0       	ldi	r26, 0x00	; 0
    52d8:	b0 e0       	ldi	r27, 0x00	; 0
    52da:	f8 01       	movw	r30, r16
				}
				res = RES_OK;
    52dc:	80 83       	st	Z, r24
    52de:	91 83       	std	Z+1, r25	; 0x01
    52e0:	a2 83       	std	Z+2, r26	; 0x02
	UINT dc;
#endif

	if (Stat & STA_NOINIT) return RES_NOTRDY;

	res = RES_ERROR;
    52e2:	b3 83       	std	Z+3, r27	; 0x03
    52e4:	00 e0       	ldi	r16, 0x00	; 0
    52e6:	10 e0       	ldi	r17, 0x00	; 0
    52e8:	08 c0       	rjmp	.+16     	; 0x52fa <mmc_disk_ioctl+0x298>
    52ea:	01 e0       	ldi	r16, 0x01	; 1
    52ec:	10 e0       	ldi	r17, 0x00	; 0
    52ee:	05 c0       	rjmp	.+10     	; 0x52fa <mmc_disk_ioctl+0x298>
    52f0:	01 e0       	ldi	r16, 0x01	; 1
					*(DWORD*)buff = ((WORD)((csd[10] & 124) >> 2) + 1) * (((csd[11] & 3) << 3) + ((csd[11] & 224) >> 5) + 1);
				}
				res = RES_OK;
			}
		}
		deselect();
    52f2:	10 e0       	ldi	r17, 0x00	; 0
		break;
    52f4:	02 c0       	rjmp	.+4      	; 0x52fa <mmc_disk_ioctl+0x298>
    52f6:	01 e0       	ldi	r16, 0x01	; 1
    52f8:	10 e0       	ldi	r17, 0x00	; 0

	case CTRL_TRIM:		/* Erase a block of sectors (used when _USE_TRIM in ffconf.h is 1) */
		if (!(CardType & CT_SDC)) break;				/* Check if the card is SDC */
    52fa:	7c dc       	rcall	.-1800   	; 0x4bf4 <deselect>
    52fc:	e0 2e       	mov	r14, r16
    52fe:	f1 2e       	mov	r15, r17
    5300:	1d c2       	rjmp	.+1082   	; 0x573c <mmc_disk_ioctl+0x6da>
    5302:	80 91 11 02 	lds	r24, 0x0211	; 0x800211 <CardType>
		if (mmc_disk_ioctl(MMC_GET_CSD, csd)) break;	/* Get CSD */
    5306:	86 70       	andi	r24, 0x06	; 6
    5308:	09 f4       	brne	.+2      	; 0x530c <mmc_disk_ioctl+0x2aa>
    530a:	01 c2       	rjmp	.+1026   	; 0x570e <mmc_disk_ioctl+0x6ac>
    530c:	be 01       	movw	r22, r28
    530e:	6f 5f       	subi	r22, 0xFF	; 255
    5310:	7f 4f       	sbci	r23, 0xFF	; 255
    5312:	83 e3       	ldi	r24, 0x33	; 51
    5314:	a6 de       	rcall	.-692    	; 0x5062 <mmc_disk_ioctl>
    5316:	7c 01       	movw	r14, r24
		if (!(csd[0] >> 6) && !(csd[10] & 0x40)) break;	/* Check if sector erase can be applied to the card */
    5318:	89 2b       	or	r24, r25
    531a:	09 f0       	breq	.+2      	; 0x531e <mmc_disk_ioctl+0x2bc>
    531c:	fc c1       	rjmp	.+1016   	; 0x5716 <mmc_disk_ioctl+0x6b4>
    531e:	89 81       	ldd	r24, Y+1	; 0x01
    5320:	82 95       	swap	r24
    5322:	86 95       	lsr	r24
    5324:	86 95       	lsr	r24
    5326:	83 70       	andi	r24, 0x03	; 3
    5328:	19 f4       	brne	.+6      	; 0x5330 <mmc_disk_ioctl+0x2ce>
		dp = buff; st = dp[0]; ed = dp[1];				/* Load sector block */
    532a:	8b 85       	ldd	r24, Y+11	; 0x0b
    532c:	86 ff       	sbrs	r24, 6
    532e:	f7 c1       	rjmp	.+1006   	; 0x571e <mmc_disk_ioctl+0x6bc>
    5330:	d8 01       	movw	r26, r16
    5332:	4d 91       	ld	r20, X+
    5334:	5d 91       	ld	r21, X+
    5336:	6d 91       	ld	r22, X+
    5338:	7c 91       	ld	r23, X
    533a:	13 97       	sbiw	r26, 0x03	; 3
    533c:	14 96       	adiw	r26, 0x04	; 4
    533e:	8d 90       	ld	r8, X+
    5340:	9d 90       	ld	r9, X+
		if (!(CardType & CT_BLOCK)) {
    5342:	ad 90       	ld	r10, X+
    5344:	bc 90       	ld	r11, X
    5346:	17 97       	sbiw	r26, 0x07	; 7
    5348:	80 91 11 02 	lds	r24, 0x0211	; 0x800211 <CardType>
			st *= 512; ed *= 512;
    534c:	83 fd       	sbrc	r24, 3
    534e:	12 c0       	rjmp	.+36     	; 0x5374 <mmc_disk_ioctl+0x312>
    5350:	03 2e       	mov	r0, r19
    5352:	39 e0       	ldi	r19, 0x09	; 9
    5354:	44 0f       	add	r20, r20
    5356:	55 1f       	adc	r21, r21
    5358:	66 1f       	adc	r22, r22
    535a:	77 1f       	adc	r23, r23
    535c:	3a 95       	dec	r19
    535e:	d1 f7       	brne	.-12     	; 0x5354 <mmc_disk_ioctl+0x2f2>
    5360:	30 2d       	mov	r19, r0
    5362:	07 2e       	mov	r0, r23
    5364:	79 e0       	ldi	r23, 0x09	; 9
    5366:	88 0c       	add	r8, r8
		}
		if (send_cmd(CMD32, st) == 0 && send_cmd(CMD33, ed) == 0 && send_cmd(CMD38, 0) == 0 && wait_ready(30000)) {	/* Erase sector block */
    5368:	99 1c       	adc	r9, r9
    536a:	aa 1c       	adc	r10, r10
    536c:	bb 1c       	adc	r11, r11
    536e:	7a 95       	dec	r23
    5370:	d1 f7       	brne	.-12     	; 0x5366 <mmc_disk_ioctl+0x304>
    5372:	70 2d       	mov	r23, r0
    5374:	80 e2       	ldi	r24, 0x20	; 32
    5376:	a3 dc       	rcall	.-1722   	; 0x4cbe <send_cmd>
    5378:	81 11       	cpse	r24, r1
    537a:	d5 c1       	rjmp	.+938    	; 0x5726 <mmc_disk_ioctl+0x6c4>
    537c:	b5 01       	movw	r22, r10
    537e:	a4 01       	movw	r20, r8
    5380:	81 e2       	ldi	r24, 0x21	; 33
    5382:	9d dc       	rcall	.-1734   	; 0x4cbe <send_cmd>
    5384:	81 11       	cpse	r24, r1
    5386:	d3 c1       	rjmp	.+934    	; 0x572e <mmc_disk_ioctl+0x6cc>
    5388:	40 e0       	ldi	r20, 0x00	; 0
    538a:	50 e0       	ldi	r21, 0x00	; 0
    538c:	ba 01       	movw	r22, r20
    538e:	86 e2       	ldi	r24, 0x26	; 38
    5390:	96 dc       	rcall	.-1748   	; 0x4cbe <send_cmd>
    5392:	81 11       	cpse	r24, r1
    5394:	d0 c1       	rjmp	.+928    	; 0x5736 <mmc_disk_ioctl+0x6d4>
	UINT dc;
#endif

	if (Stat & STA_NOINIT) return RES_NOTRDY;

	res = RES_ERROR;
    5396:	80 e3       	ldi	r24, 0x30	; 48
    5398:	95 e7       	ldi	r25, 0x75	; 117
    539a:	11 dc       	rcall	.-2014   	; 0x4bbe <wait_ready>
		break;

	/* Following commands are never used by FatFs module */

	case MMC_GET_TYPE :		/* Get card type flags (1 byte) */
		*ptr = CardType;
    539c:	89 2b       	or	r24, r25
    539e:	09 f0       	breq	.+2      	; 0x53a2 <mmc_disk_ioctl+0x340>
    53a0:	cd c1       	rjmp	.+922    	; 0x573c <mmc_disk_ioctl+0x6da>
    53a2:	ee 24       	eor	r14, r14
		res = RES_OK;
    53a4:	e3 94       	inc	r14
    53a6:	f1 2c       	mov	r15, r1
		break;
    53a8:	c9 c1       	rjmp	.+914    	; 0x573c <mmc_disk_ioctl+0x6da>

	case MMC_GET_CSD :		/* Receive CSD as a data block (16 bytes) */
		if (send_cmd(CMD9, 0) == 0 && rcvr_datablock(ptr, 16)) {	/* READ_CSD */
    53aa:	80 91 11 02 	lds	r24, 0x0211	; 0x800211 <CardType>
    53ae:	fb 01       	movw	r30, r22
    53b0:	80 83       	st	Z, r24
    53b2:	e1 2c       	mov	r14, r1
    53b4:	f1 2c       	mov	r15, r1
    53b6:	c2 c1       	rjmp	.+900    	; 0x573c <mmc_disk_ioctl+0x6da>
    53b8:	40 e0       	ldi	r20, 0x00	; 0
    53ba:	50 e0       	ldi	r21, 0x00	; 0
    53bc:	ba 01       	movw	r22, r20
    53be:	89 e0       	ldi	r24, 0x09	; 9
    53c0:	7e dc       	rcall	.-1796   	; 0x4cbe <send_cmd>
    53c2:	81 11       	cpse	r24, r1
	UINT dc;
#endif

	if (Stat & STA_NOINIT) return RES_NOTRDY;

	res = RES_ERROR;
    53c4:	09 c0       	rjmp	.+18     	; 0x53d8 <mmc_disk_ioctl+0x376>
    53c6:	60 e1       	ldi	r22, 0x10	; 16
    53c8:	70 e0       	ldi	r23, 0x00	; 0
    53ca:	c8 01       	movw	r24, r16
    53cc:	2e dc       	rcall	.-1956   	; 0x4c2a <rcvr_datablock>
		res = RES_OK;
		break;

	case MMC_GET_CSD :		/* Receive CSD as a data block (16 bytes) */
		if (send_cmd(CMD9, 0) == 0 && rcvr_datablock(ptr, 16)) {	/* READ_CSD */
			res = RES_OK;
    53ce:	89 2b       	or	r24, r25
    53d0:	31 f4       	brne	.+12     	; 0x53de <mmc_disk_ioctl+0x37c>
		}
		deselect();
    53d2:	01 e0       	ldi	r16, 0x01	; 1
    53d4:	10 e0       	ldi	r17, 0x00	; 0
		break;
    53d6:	05 c0       	rjmp	.+10     	; 0x53e2 <mmc_disk_ioctl+0x380>
    53d8:	01 e0       	ldi	r16, 0x01	; 1

	case MMC_GET_CID :		/* Receive CID as a data block (16 bytes) */
		if (send_cmd(CMD10, 0) == 0 && rcvr_datablock(ptr, 16)) {	/* READ_CID */
    53da:	10 e0       	ldi	r17, 0x00	; 0
    53dc:	02 c0       	rjmp	.+4      	; 0x53e2 <mmc_disk_ioctl+0x380>
    53de:	00 e0       	ldi	r16, 0x00	; 0
    53e0:	10 e0       	ldi	r17, 0x00	; 0
    53e2:	08 dc       	rcall	.-2032   	; 0x4bf4 <deselect>
    53e4:	e0 2e       	mov	r14, r16
    53e6:	f1 2e       	mov	r15, r17
    53e8:	a9 c1       	rjmp	.+850    	; 0x573c <mmc_disk_ioctl+0x6da>
    53ea:	40 e0       	ldi	r20, 0x00	; 0
    53ec:	50 e0       	ldi	r21, 0x00	; 0
    53ee:	ba 01       	movw	r22, r20
    53f0:	8a e0       	ldi	r24, 0x0A	; 10
	UINT dc;
#endif

	if (Stat & STA_NOINIT) return RES_NOTRDY;

	res = RES_ERROR;
    53f2:	65 dc       	rcall	.-1846   	; 0x4cbe <send_cmd>
    53f4:	81 11       	cpse	r24, r1
    53f6:	09 c0       	rjmp	.+18     	; 0x540a <mmc_disk_ioctl+0x3a8>
    53f8:	60 e1       	ldi	r22, 0x10	; 16
    53fa:	70 e0       	ldi	r23, 0x00	; 0
		deselect();
		break;

	case MMC_GET_CID :		/* Receive CID as a data block (16 bytes) */
		if (send_cmd(CMD10, 0) == 0 && rcvr_datablock(ptr, 16)) {	/* READ_CID */
			res = RES_OK;
    53fc:	c8 01       	movw	r24, r16
    53fe:	15 dc       	rcall	.-2006   	; 0x4c2a <rcvr_datablock>
		}
		deselect();
    5400:	89 2b       	or	r24, r25
    5402:	31 f4       	brne	.+12     	; 0x5410 <mmc_disk_ioctl+0x3ae>
		break;
    5404:	01 e0       	ldi	r16, 0x01	; 1
    5406:	10 e0       	ldi	r17, 0x00	; 0
    5408:	05 c0       	rjmp	.+10     	; 0x5414 <mmc_disk_ioctl+0x3b2>

	case MMC_GET_OCR :		/* Receive OCR as an R3 resp (4 bytes) */
		if (send_cmd(CMD58, 0) == 0) {	/* READ_OCR */
    540a:	01 e0       	ldi	r16, 0x01	; 1
    540c:	10 e0       	ldi	r17, 0x00	; 0
    540e:	02 c0       	rjmp	.+4      	; 0x5414 <mmc_disk_ioctl+0x3b2>
    5410:	00 e0       	ldi	r16, 0x00	; 0
    5412:	10 e0       	ldi	r17, 0x00	; 0
    5414:	ef db       	rcall	.-2082   	; 0x4bf4 <deselect>
    5416:	e0 2e       	mov	r14, r16
	UINT dc;
#endif

	if (Stat & STA_NOINIT) return RES_NOTRDY;

	res = RES_ERROR;
    5418:	f1 2e       	mov	r15, r17
    541a:	90 c1       	rjmp	.+800    	; 0x573c <mmc_disk_ioctl+0x6da>
    541c:	40 e0       	ldi	r20, 0x00	; 0
		deselect();
		break;

	case MMC_GET_OCR :		/* Receive OCR as an R3 resp (4 bytes) */
		if (send_cmd(CMD58, 0) == 0) {	/* READ_OCR */
			for (n = 4; n; n--) *ptr++ = xchg_spi(0xFF);
    541e:	50 e0       	ldi	r21, 0x00	; 0
    5420:	ba 01       	movw	r22, r20
    5422:	8a e3       	ldi	r24, 0x3A	; 58
    5424:	4c dc       	rcall	.-1896   	; 0x4cbe <send_cmd>
    5426:	88 23       	and	r24, r24
    5428:	71 f0       	breq	.+28     	; 0x5446 <mmc_disk_ioctl+0x3e4>
    542a:	01 e0       	ldi	r16, 0x01	; 1
    542c:	10 e0       	ldi	r17, 0x00	; 0
    542e:	12 c0       	rjmp	.+36     	; 0x5454 <mmc_disk_ioctl+0x3f2>
    5430:	68 01       	movw	r12, r16
    5432:	ff ef       	ldi	r31, 0xFF	; 255
    5434:	cf 1a       	sub	r12, r31
    5436:	df 0a       	sbc	r13, r31
    5438:	8f ef       	ldi	r24, 0xFF	; 255
			res = RES_OK;
    543a:	8f db       	rcall	.-2274   	; 0x4b5a <xchg_spi>
    543c:	d8 01       	movw	r26, r16
		}
		deselect();
    543e:	8c 93       	st	X, r24
		break;
    5440:	fa 94       	dec	r15
    5442:	86 01       	movw	r16, r12
    5444:	03 c0       	rjmp	.+6      	; 0x544c <mmc_disk_ioctl+0x3ea>

	case MMC_GET_SDSTAT :	/* Receive SD statsu as a data block (64 bytes) */
		if (send_cmd(ACMD13, 0) == 0) {	/* SD_STATUS */
    5446:	68 94       	set
    5448:	ff 24       	eor	r15, r15
    544a:	f2 f8       	bld	r15, 2
    544c:	f1 10       	cpse	r15, r1
    544e:	f0 cf       	rjmp	.-32     	; 0x5430 <mmc_disk_ioctl+0x3ce>
    5450:	00 e0       	ldi	r16, 0x00	; 0
    5452:	10 e0       	ldi	r17, 0x00	; 0
    5454:	cf db       	rcall	.-2146   	; 0x4bf4 <deselect>
			xchg_spi(0xFF);
    5456:	e0 2e       	mov	r14, r16
    5458:	f1 2e       	mov	r15, r17
    545a:	70 c1       	rjmp	.+736    	; 0x573c <mmc_disk_ioctl+0x6da>
			if (rcvr_datablock(ptr, 64)) res = RES_OK;
    545c:	40 e0       	ldi	r20, 0x00	; 0
    545e:	50 e0       	ldi	r21, 0x00	; 0
    5460:	ba 01       	movw	r22, r20
    5462:	8d e8       	ldi	r24, 0x8D	; 141
    5464:	2c dc       	rcall	.-1960   	; 0x4cbe <send_cmd>
    5466:	81 11       	cpse	r24, r1
    5468:	0b c0       	rjmp	.+22     	; 0x5480 <mmc_disk_ioctl+0x41e>
	UINT dc;
#endif

	if (Stat & STA_NOINIT) return RES_NOTRDY;

	res = RES_ERROR;
    546a:	8f ef       	ldi	r24, 0xFF	; 255
    546c:	76 db       	rcall	.-2324   	; 0x4b5a <xchg_spi>
    546e:	60 e4       	ldi	r22, 0x40	; 64
    5470:	70 e0       	ldi	r23, 0x00	; 0
    5472:	c8 01       	movw	r24, r16
    5474:	da db       	rcall	.-2124   	; 0x4c2a <rcvr_datablock>
		break;

	case MMC_GET_SDSTAT :	/* Receive SD statsu as a data block (64 bytes) */
		if (send_cmd(ACMD13, 0) == 0) {	/* SD_STATUS */
			xchg_spi(0xFF);
			if (rcvr_datablock(ptr, 64)) res = RES_OK;
    5476:	89 2b       	or	r24, r25
    5478:	31 f4       	brne	.+12     	; 0x5486 <mmc_disk_ioctl+0x424>
		}
		deselect();
    547a:	01 e0       	ldi	r16, 0x01	; 1
    547c:	10 e0       	ldi	r17, 0x00	; 0
		break;
    547e:	05 c0       	rjmp	.+10     	; 0x548a <mmc_disk_ioctl+0x428>
    5480:	01 e0       	ldi	r16, 0x01	; 1
    5482:	10 e0       	ldi	r17, 0x00	; 0

	case CTRL_POWER_OFF :	/* Power off */
		power_off();
		Stat |= STA_NOINIT;
    5484:	02 c0       	rjmp	.+4      	; 0x548a <mmc_disk_ioctl+0x428>
    5486:	00 e0       	ldi	r16, 0x00	; 0
    5488:	10 e0       	ldi	r17, 0x00	; 0
    548a:	b4 db       	rcall	.-2200   	; 0x4bf4 <deselect>
    548c:	e0 2e       	mov	r14, r16
		res = RES_OK;
    548e:	f1 2e       	mov	r15, r17
    5490:	55 c1       	rjmp	.+682    	; 0x573c <mmc_disk_ioctl+0x6da>
		break;
    5492:	80 91 0c 01 	lds	r24, 0x010C	; 0x80010c <Stat>
#if _USE_ISDIO
	case ISDIO_READ:
		sdi = buff;
		if (send_cmd(CMD48, 0x80000000 | (DWORD)sdi->func << 28 | (DWORD)sdi->addr << 9 | ((sdi->ndata - 1) & 0x1FF)) == 0) {
    5496:	81 60       	ori	r24, 0x01	; 1
    5498:	80 93 0c 01 	sts	0x010C, r24	; 0x80010c <Stat>
    549c:	e1 2c       	mov	r14, r1
    549e:	f1 2c       	mov	r15, r1
    54a0:	4d c1       	rjmp	.+666    	; 0x573c <mmc_disk_ioctl+0x6da>
    54a2:	fb 01       	movw	r30, r22
    54a4:	40 81       	ld	r20, Z
    54a6:	50 e0       	ldi	r21, 0x00	; 0
    54a8:	60 e0       	ldi	r22, 0x00	; 0
    54aa:	70 e0       	ldi	r23, 0x00	; 0
    54ac:	03 2e       	mov	r0, r19
    54ae:	3c e1       	ldi	r19, 0x1C	; 28
    54b0:	44 0f       	add	r20, r20
    54b2:	55 1f       	adc	r21, r21
    54b4:	66 1f       	adc	r22, r22
    54b6:	77 1f       	adc	r23, r23
    54b8:	3a 95       	dec	r19
    54ba:	d1 f7       	brne	.-12     	; 0x54b0 <mmc_disk_ioctl+0x44e>
    54bc:	30 2d       	mov	r19, r0
    54be:	83 81       	ldd	r24, Z+3	; 0x03
    54c0:	94 81       	ldd	r25, Z+4	; 0x04
    54c2:	a5 81       	ldd	r26, Z+5	; 0x05
    54c4:	b6 81       	ldd	r27, Z+6	; 0x06
    54c6:	07 2e       	mov	r0, r23
    54c8:	79 e0       	ldi	r23, 0x09	; 9
    54ca:	88 0f       	add	r24, r24
    54cc:	99 1f       	adc	r25, r25
    54ce:	aa 1f       	adc	r26, r26
    54d0:	bb 1f       	adc	r27, r27
    54d2:	7a 95       	dec	r23
    54d4:	d1 f7       	brne	.-12     	; 0x54ca <mmc_disk_ioctl+0x468>
    54d6:	70 2d       	mov	r23, r0
    54d8:	48 2b       	or	r20, r24
    54da:	59 2b       	or	r21, r25
    54dc:	6a 2b       	or	r22, r26
    54de:	7b 2b       	or	r23, r27
    54e0:	81 81       	ldd	r24, Z+1	; 0x01
    54e2:	92 81       	ldd	r25, Z+2	; 0x02
    54e4:	01 97       	sbiw	r24, 0x01	; 1
    54e6:	91 70       	andi	r25, 0x01	; 1
    54e8:	a0 e0       	ldi	r26, 0x00	; 0
    54ea:	b0 e0       	ldi	r27, 0x00	; 0
			for (Timer1 = 100; (rc = xchg_spi(0xFF)) == 0xFF && Timer1; ) ;
    54ec:	48 2b       	or	r20, r24
    54ee:	59 2b       	or	r21, r25
    54f0:	6a 2b       	or	r22, r26
    54f2:	7b 2b       	or	r23, r27
    54f4:	70 68       	ori	r23, 0x80	; 128
    54f6:	80 e3       	ldi	r24, 0x30	; 48
    54f8:	e2 db       	rcall	.-2108   	; 0x4cbe <send_cmd>
    54fa:	81 11       	cpse	r24, r1
    54fc:	3a c0       	rjmp	.+116    	; 0x5572 <mmc_disk_ioctl+0x510>
    54fe:	84 e6       	ldi	r24, 0x64	; 100
    5500:	80 93 13 02 	sts	0x0213, r24	; 0x800213 <Timer1>
			if (rc == 0xFE) {
    5504:	8f ef       	ldi	r24, 0xFF	; 255
    5506:	29 db       	rcall	.-2478   	; 0x4b5a <xchg_spi>
				for (bp = sdi->data, dc = sdi->ndata; dc; dc--) *bp++ = xchg_spi(0xFF);
    5508:	8f 3f       	cpi	r24, 0xFF	; 255
    550a:	21 f4       	brne	.+8      	; 0x5514 <mmc_disk_ioctl+0x4b2>
    550c:	90 91 13 02 	lds	r25, 0x0213	; 0x800213 <Timer1>
    5510:	91 11       	cpse	r25, r1
    5512:	f8 cf       	rjmp	.-16     	; 0x5504 <mmc_disk_ioctl+0x4a2>
    5514:	8e 3f       	cpi	r24, 0xFE	; 254
    5516:	81 f5       	brne	.+96     	; 0x5578 <mmc_disk_ioctl+0x516>
    5518:	d8 01       	movw	r26, r16
    551a:	17 96       	adiw	r26, 0x07	; 7
    551c:	cd 90       	ld	r12, X+
    551e:	dc 90       	ld	r13, X
    5520:	18 97       	sbiw	r26, 0x08	; 8
    5522:	11 96       	adiw	r26, 0x01	; 1
    5524:	ed 90       	ld	r14, X+
    5526:	fc 90       	ld	r15, X
    5528:	12 97       	sbiw	r26, 0x02	; 2
    552a:	0c c0       	rjmp	.+24     	; 0x5544 <mmc_disk_ioctl+0x4e2>
    552c:	56 01       	movw	r10, r12
    552e:	bf ef       	ldi	r27, 0xFF	; 255
    5530:	ab 1a       	sub	r10, r27
    5532:	bb 0a       	sbc	r11, r27
    5534:	8f ef       	ldi	r24, 0xFF	; 255
    5536:	11 db       	rcall	.-2526   	; 0x4b5a <xchg_spi>
				for (dc = 514 - sdi->ndata; dc; dc--) xchg_spi(0xFF);
    5538:	f6 01       	movw	r30, r12
    553a:	80 83       	st	Z, r24
    553c:	f1 e0       	ldi	r31, 0x01	; 1
    553e:	ef 1a       	sub	r14, r31
    5540:	f1 08       	sbc	r15, r1
    5542:	65 01       	movw	r12, r10
    5544:	e1 14       	cp	r14, r1
    5546:	f1 04       	cpc	r15, r1
    5548:	89 f7       	brne	.-30     	; 0x552c <mmc_disk_ioctl+0x4ca>
    554a:	d8 01       	movw	r26, r16
    554c:	11 96       	adiw	r26, 0x01	; 1
    554e:	8d 91       	ld	r24, X+
    5550:	9c 91       	ld	r25, X
    5552:	12 97       	sbiw	r26, 0x02	; 2
    5554:	02 e0       	ldi	r16, 0x02	; 2
    5556:	12 e0       	ldi	r17, 0x02	; 2
    5558:	08 1b       	sub	r16, r24
    555a:	19 0b       	sbc	r17, r25
				res = RES_OK;
    555c:	04 c0       	rjmp	.+8      	; 0x5566 <mmc_disk_ioctl+0x504>
    555e:	8f ef       	ldi	r24, 0xFF	; 255
    5560:	fc da       	rcall	.-2568   	; 0x4b5a <xchg_spi>
	UINT dc;
#endif

	if (Stat & STA_NOINIT) return RES_NOTRDY;

	res = RES_ERROR;
    5562:	01 50       	subi	r16, 0x01	; 1
    5564:	11 09       	sbc	r17, r1
    5566:	01 15       	cp	r16, r1
    5568:	11 05       	cpc	r17, r1
    556a:	c9 f7       	brne	.-14     	; 0x555e <mmc_disk_ioctl+0x4fc>
				for (bp = sdi->data, dc = sdi->ndata; dc; dc--) *bp++ = xchg_spi(0xFF);
				for (dc = 514 - sdi->ndata; dc; dc--) xchg_spi(0xFF);
				res = RES_OK;
			}
		}
		deselect();
    556c:	00 e0       	ldi	r16, 0x00	; 0
    556e:	10 e0       	ldi	r17, 0x00	; 0
		break;
    5570:	05 c0       	rjmp	.+10     	; 0x557c <mmc_disk_ioctl+0x51a>
    5572:	01 e0       	ldi	r16, 0x01	; 1
    5574:	10 e0       	ldi	r17, 0x00	; 0

	case ISDIO_WRITE:
		sdi = buff;
		if (send_cmd(CMD49, 0x80000000 | (DWORD)sdi->func << 28 | (DWORD)sdi->addr << 9 | ((sdi->ndata - 1) & 0x1FF)) == 0) {
    5576:	02 c0       	rjmp	.+4      	; 0x557c <mmc_disk_ioctl+0x51a>
    5578:	01 e0       	ldi	r16, 0x01	; 1
    557a:	10 e0       	ldi	r17, 0x00	; 0
    557c:	3b db       	rcall	.-2442   	; 0x4bf4 <deselect>
    557e:	e0 2e       	mov	r14, r16
    5580:	f1 2e       	mov	r15, r17
    5582:	dc c0       	rjmp	.+440    	; 0x573c <mmc_disk_ioctl+0x6da>
    5584:	fb 01       	movw	r30, r22
    5586:	40 81       	ld	r20, Z
    5588:	50 e0       	ldi	r21, 0x00	; 0
    558a:	60 e0       	ldi	r22, 0x00	; 0
    558c:	70 e0       	ldi	r23, 0x00	; 0
    558e:	03 2e       	mov	r0, r19
    5590:	3c e1       	ldi	r19, 0x1C	; 28
    5592:	44 0f       	add	r20, r20
    5594:	55 1f       	adc	r21, r21
    5596:	66 1f       	adc	r22, r22
    5598:	77 1f       	adc	r23, r23
    559a:	3a 95       	dec	r19
    559c:	d1 f7       	brne	.-12     	; 0x5592 <mmc_disk_ioctl+0x530>
    559e:	30 2d       	mov	r19, r0
    55a0:	83 81       	ldd	r24, Z+3	; 0x03
    55a2:	94 81       	ldd	r25, Z+4	; 0x04
    55a4:	a5 81       	ldd	r26, Z+5	; 0x05
    55a6:	b6 81       	ldd	r27, Z+6	; 0x06
    55a8:	07 2e       	mov	r0, r23
    55aa:	79 e0       	ldi	r23, 0x09	; 9
    55ac:	88 0f       	add	r24, r24
    55ae:	99 1f       	adc	r25, r25
    55b0:	aa 1f       	adc	r26, r26
    55b2:	bb 1f       	adc	r27, r27
    55b4:	7a 95       	dec	r23
    55b6:	d1 f7       	brne	.-12     	; 0x55ac <mmc_disk_ioctl+0x54a>
    55b8:	70 2d       	mov	r23, r0
    55ba:	48 2b       	or	r20, r24
    55bc:	59 2b       	or	r21, r25
    55be:	6a 2b       	or	r22, r26
    55c0:	7b 2b       	or	r23, r27
    55c2:	81 81       	ldd	r24, Z+1	; 0x01
    55c4:	92 81       	ldd	r25, Z+2	; 0x02
    55c6:	01 97       	sbiw	r24, 0x01	; 1
    55c8:	91 70       	andi	r25, 0x01	; 1
    55ca:	a0 e0       	ldi	r26, 0x00	; 0
			xchg_spi(0xFF); xchg_spi(0xFE);
    55cc:	b0 e0       	ldi	r27, 0x00	; 0
    55ce:	48 2b       	or	r20, r24
    55d0:	59 2b       	or	r21, r25
    55d2:	6a 2b       	or	r22, r26
    55d4:	7b 2b       	or	r23, r27
			for (bp = sdi->data, dc = sdi->ndata; dc; dc--) xchg_spi(*bp++);
    55d6:	70 68       	ori	r23, 0x80	; 128
    55d8:	81 e3       	ldi	r24, 0x31	; 49
    55da:	71 db       	rcall	.-2334   	; 0x4cbe <send_cmd>
    55dc:	81 11       	cpse	r24, r1
    55de:	34 c0       	rjmp	.+104    	; 0x5648 <mmc_disk_ioctl+0x5e6>
    55e0:	8f ef       	ldi	r24, 0xFF	; 255
    55e2:	bb da       	rcall	.-2698   	; 0x4b5a <xchg_spi>
    55e4:	8e ef       	ldi	r24, 0xFE	; 254
    55e6:	b9 da       	rcall	.-2702   	; 0x4b5a <xchg_spi>
    55e8:	d8 01       	movw	r26, r16
    55ea:	17 96       	adiw	r26, 0x07	; 7
    55ec:	ed 91       	ld	r30, X+
    55ee:	fc 91       	ld	r31, X
    55f0:	18 97       	sbiw	r26, 0x08	; 8
    55f2:	11 96       	adiw	r26, 0x01	; 1
    55f4:	ed 90       	ld	r14, X+
    55f6:	fc 90       	ld	r15, X
    55f8:	12 97       	sbiw	r26, 0x02	; 2
    55fa:	0a c0       	rjmp	.+20     	; 0x5610 <mmc_disk_ioctl+0x5ae>
    55fc:	6f 01       	movw	r12, r30
    55fe:	bf ef       	ldi	r27, 0xFF	; 255
    5600:	cb 1a       	sub	r12, r27
			for (dc = 514 - sdi->ndata; dc; dc--) xchg_spi(0xFF);
    5602:	db 0a       	sbc	r13, r27
    5604:	80 81       	ld	r24, Z
    5606:	a9 da       	rcall	.-2734   	; 0x4b5a <xchg_spi>
    5608:	e1 e0       	ldi	r30, 0x01	; 1
    560a:	ee 1a       	sub	r14, r30
    560c:	f1 08       	sbc	r15, r1
    560e:	f6 01       	movw	r30, r12
    5610:	e1 14       	cp	r14, r1
    5612:	f1 04       	cpc	r15, r1
    5614:	99 f7       	brne	.-26     	; 0x55fc <mmc_disk_ioctl+0x59a>
    5616:	d8 01       	movw	r26, r16
    5618:	11 96       	adiw	r26, 0x01	; 1
    561a:	8d 91       	ld	r24, X+
    561c:	9c 91       	ld	r25, X
    561e:	12 97       	sbiw	r26, 0x02	; 2
    5620:	02 e0       	ldi	r16, 0x02	; 2
    5622:	12 e0       	ldi	r17, 0x02	; 2
    5624:	08 1b       	sub	r16, r24
			if ((xchg_spi(0xFF) & 0x1F) == 0x05) res = RES_OK;
    5626:	19 0b       	sbc	r17, r25
    5628:	04 c0       	rjmp	.+8      	; 0x5632 <mmc_disk_ioctl+0x5d0>
    562a:	8f ef       	ldi	r24, 0xFF	; 255
    562c:	96 da       	rcall	.-2772   	; 0x4b5a <xchg_spi>
    562e:	01 50       	subi	r16, 0x01	; 1
    5630:	11 09       	sbc	r17, r1
	UINT dc;
#endif

	if (Stat & STA_NOINIT) return RES_NOTRDY;

	res = RES_ERROR;
    5632:	01 15       	cp	r16, r1
    5634:	11 05       	cpc	r17, r1
    5636:	c9 f7       	brne	.-14     	; 0x562a <mmc_disk_ioctl+0x5c8>
    5638:	8f ef       	ldi	r24, 0xFF	; 255
    563a:	8f da       	rcall	.-2786   	; 0x4b5a <xchg_spi>
    563c:	8f 71       	andi	r24, 0x1F	; 31
		sdi = buff;
		if (send_cmd(CMD49, 0x80000000 | (DWORD)sdi->func << 28 | (DWORD)sdi->addr << 9 | ((sdi->ndata - 1) & 0x1FF)) == 0) {
			xchg_spi(0xFF); xchg_spi(0xFE);
			for (bp = sdi->data, dc = sdi->ndata; dc; dc--) xchg_spi(*bp++);
			for (dc = 514 - sdi->ndata; dc; dc--) xchg_spi(0xFF);
			if ((xchg_spi(0xFF) & 0x1F) == 0x05) res = RES_OK;
    563e:	85 30       	cpi	r24, 0x05	; 5
    5640:	31 f0       	breq	.+12     	; 0x564e <mmc_disk_ioctl+0x5ec>
		}
		deselect();
    5642:	01 e0       	ldi	r16, 0x01	; 1
    5644:	10 e0       	ldi	r17, 0x00	; 0
		break;
    5646:	05 c0       	rjmp	.+10     	; 0x5652 <mmc_disk_ioctl+0x5f0>
    5648:	01 e0       	ldi	r16, 0x01	; 1

	case ISDIO_MRITE:
		sdi = buff;
		if (send_cmd(CMD49, 0x84000000 | (DWORD)sdi->func << 28 | (DWORD)sdi->addr << 9 | sdi->ndata >> 8) == 0) {
    564a:	10 e0       	ldi	r17, 0x00	; 0
    564c:	02 c0       	rjmp	.+4      	; 0x5652 <mmc_disk_ioctl+0x5f0>
    564e:	00 e0       	ldi	r16, 0x00	; 0
    5650:	10 e0       	ldi	r17, 0x00	; 0
    5652:	d0 da       	rcall	.-2656   	; 0x4bf4 <deselect>
    5654:	e0 2e       	mov	r14, r16
    5656:	f1 2e       	mov	r15, r17
    5658:	71 c0       	rjmp	.+226    	; 0x573c <mmc_disk_ioctl+0x6da>
    565a:	fb 01       	movw	r30, r22
    565c:	40 81       	ld	r20, Z
    565e:	50 e0       	ldi	r21, 0x00	; 0
    5660:	60 e0       	ldi	r22, 0x00	; 0
    5662:	70 e0       	ldi	r23, 0x00	; 0
    5664:	03 2e       	mov	r0, r19
    5666:	3c e1       	ldi	r19, 0x1C	; 28
    5668:	44 0f       	add	r20, r20
    566a:	55 1f       	adc	r21, r21
    566c:	66 1f       	adc	r22, r22
    566e:	77 1f       	adc	r23, r23
    5670:	3a 95       	dec	r19
    5672:	d1 f7       	brne	.-12     	; 0x5668 <mmc_disk_ioctl+0x606>
    5674:	30 2d       	mov	r19, r0
    5676:	83 81       	ldd	r24, Z+3	; 0x03
    5678:	94 81       	ldd	r25, Z+4	; 0x04
    567a:	a5 81       	ldd	r26, Z+5	; 0x05
    567c:	b6 81       	ldd	r27, Z+6	; 0x06
    567e:	07 2e       	mov	r0, r23
    5680:	79 e0       	ldi	r23, 0x09	; 9
    5682:	88 0f       	add	r24, r24
    5684:	99 1f       	adc	r25, r25
    5686:	aa 1f       	adc	r26, r26
    5688:	bb 1f       	adc	r27, r27
    568a:	7a 95       	dec	r23
    568c:	d1 f7       	brne	.-12     	; 0x5682 <mmc_disk_ioctl+0x620>
    568e:	70 2d       	mov	r23, r0
    5690:	48 2b       	or	r20, r24
    5692:	59 2b       	or	r21, r25
    5694:	6a 2b       	or	r22, r26
    5696:	7b 2b       	or	r23, r27
			xchg_spi(0xFF); xchg_spi(0xFE);
    5698:	82 81       	ldd	r24, Z+2	; 0x02
    569a:	90 e0       	ldi	r25, 0x00	; 0
    569c:	a0 e0       	ldi	r26, 0x00	; 0
    569e:	b0 e0       	ldi	r27, 0x00	; 0
    56a0:	48 2b       	or	r20, r24
    56a2:	59 2b       	or	r21, r25
			xchg_spi(sdi->ndata);
    56a4:	6a 2b       	or	r22, r26
    56a6:	7b 2b       	or	r23, r27
    56a8:	74 68       	ori	r23, 0x84	; 132
    56aa:	81 e3       	ldi	r24, 0x31	; 49
    56ac:	08 db       	rcall	.-2544   	; 0x4cbe <send_cmd>
			for (dc = 513; dc; dc--) xchg_spi(0xFF);
    56ae:	81 11       	cpse	r24, r1
    56b0:	1a c0       	rjmp	.+52     	; 0x56e6 <mmc_disk_ioctl+0x684>
    56b2:	8f ef       	ldi	r24, 0xFF	; 255
    56b4:	52 da       	rcall	.-2908   	; 0x4b5a <xchg_spi>
    56b6:	8e ef       	ldi	r24, 0xFE	; 254
    56b8:	50 da       	rcall	.-2912   	; 0x4b5a <xchg_spi>
    56ba:	d8 01       	movw	r26, r16
    56bc:	11 96       	adiw	r26, 0x01	; 1
    56be:	8c 91       	ld	r24, X
    56c0:	4c da       	rcall	.-2920   	; 0x4b5a <xchg_spi>
    56c2:	01 e0       	ldi	r16, 0x01	; 1
			if ((xchg_spi(0xFF) & 0x1F) == 0x05) res = RES_OK;
    56c4:	12 e0       	ldi	r17, 0x02	; 2
    56c6:	04 c0       	rjmp	.+8      	; 0x56d0 <mmc_disk_ioctl+0x66e>
    56c8:	8f ef       	ldi	r24, 0xFF	; 255
    56ca:	47 da       	rcall	.-2930   	; 0x4b5a <xchg_spi>
    56cc:	01 50       	subi	r16, 0x01	; 1
    56ce:	11 09       	sbc	r17, r1
	UINT dc;
#endif

	if (Stat & STA_NOINIT) return RES_NOTRDY;

	res = RES_ERROR;
    56d0:	01 15       	cp	r16, r1
    56d2:	11 05       	cpc	r17, r1
    56d4:	c9 f7       	brne	.-14     	; 0x56c8 <mmc_disk_ioctl+0x666>
    56d6:	8f ef       	ldi	r24, 0xFF	; 255
    56d8:	40 da       	rcall	.-2944   	; 0x4b5a <xchg_spi>
    56da:	8f 71       	andi	r24, 0x1F	; 31
		sdi = buff;
		if (send_cmd(CMD49, 0x84000000 | (DWORD)sdi->func << 28 | (DWORD)sdi->addr << 9 | sdi->ndata >> 8) == 0) {
			xchg_spi(0xFF); xchg_spi(0xFE);
			xchg_spi(sdi->ndata);
			for (dc = 513; dc; dc--) xchg_spi(0xFF);
			if ((xchg_spi(0xFF) & 0x1F) == 0x05) res = RES_OK;
    56dc:	85 30       	cpi	r24, 0x05	; 5
    56de:	31 f0       	breq	.+12     	; 0x56ec <mmc_disk_ioctl+0x68a>
		}
		deselect();
    56e0:	01 e0       	ldi	r16, 0x01	; 1
    56e2:	10 e0       	ldi	r17, 0x00	; 0
		break;
    56e4:	05 c0       	rjmp	.+10     	; 0x56f0 <mmc_disk_ioctl+0x68e>
    56e6:	01 e0       	ldi	r16, 0x01	; 1
    56e8:	10 e0       	ldi	r17, 0x00	; 0
	SDIO_CTRL *sdi;
	BYTE rc, *bp;
	UINT dc;
#endif

	if (Stat & STA_NOINIT) return RES_NOTRDY;
    56ea:	02 c0       	rjmp	.+4      	; 0x56f0 <mmc_disk_ioctl+0x68e>
    56ec:	00 e0       	ldi	r16, 0x00	; 0
    56ee:	10 e0       	ldi	r17, 0x00	; 0
    56f0:	81 da       	rcall	.-2814   	; 0x4bf4 <deselect>
    56f2:	e0 2e       	mov	r14, r16
    56f4:	f1 2e       	mov	r15, r17
		}
		deselect();
		break;
#endif
	default:
		res = RES_PARERR;
    56f6:	22 c0       	rjmp	.+68     	; 0x573c <mmc_disk_ioctl+0x6da>
    56f8:	0f 2e       	mov	r0, r31
    56fa:	f3 e0       	ldi	r31, 0x03	; 3
    56fc:	ef 2e       	mov	r14, r31
    56fe:	f1 2c       	mov	r15, r1
	UINT dc;
#endif

	if (Stat & STA_NOINIT) return RES_NOTRDY;

	res = RES_ERROR;
    5700:	f0 2d       	mov	r31, r0
    5702:	1c c0       	rjmp	.+56     	; 0x573c <mmc_disk_ioctl+0x6da>
    5704:	68 94       	set
    5706:	ee 24       	eor	r14, r14
    5708:	e2 f8       	bld	r14, 2
    570a:	f1 2c       	mov	r15, r1
    570c:	17 c0       	rjmp	.+46     	; 0x573c <mmc_disk_ioctl+0x6da>
    570e:	ee 24       	eor	r14, r14
    5710:	e3 94       	inc	r14
    5712:	f1 2c       	mov	r15, r1
    5714:	13 c0       	rjmp	.+38     	; 0x573c <mmc_disk_ioctl+0x6da>
    5716:	ee 24       	eor	r14, r14
    5718:	e3 94       	inc	r14
    571a:	f1 2c       	mov	r15, r1
    571c:	0f c0       	rjmp	.+30     	; 0x573c <mmc_disk_ioctl+0x6da>
    571e:	ee 24       	eor	r14, r14
    5720:	e3 94       	inc	r14
    5722:	f1 2c       	mov	r15, r1
    5724:	0b c0       	rjmp	.+22     	; 0x573c <mmc_disk_ioctl+0x6da>
    5726:	ee 24       	eor	r14, r14
    5728:	e3 94       	inc	r14
    572a:	f1 2c       	mov	r15, r1
    572c:	07 c0       	rjmp	.+14     	; 0x573c <mmc_disk_ioctl+0x6da>
	default:
		res = RES_PARERR;
	}

	return res;
}
    572e:	ee 24       	eor	r14, r14
    5730:	e3 94       	inc	r14
    5732:	f1 2c       	mov	r15, r1
    5734:	03 c0       	rjmp	.+6      	; 0x573c <mmc_disk_ioctl+0x6da>
    5736:	ee 24       	eor	r14, r14
    5738:	e3 94       	inc	r14
    573a:	f1 2c       	mov	r15, r1
    573c:	c7 01       	movw	r24, r14
    573e:	60 96       	adiw	r28, 0x10	; 16
    5740:	0f b6       	in	r0, 0x3f	; 63
    5742:	f8 94       	cli
    5744:	de bf       	out	0x3e, r29	; 62
    5746:	0f be       	out	0x3f, r0	; 63
    5748:	cd bf       	out	0x3d, r28	; 61
    574a:	df 91       	pop	r29
    574c:	cf 91       	pop	r28
    574e:	1f 91       	pop	r17
    5750:	0f 91       	pop	r16
    5752:	ff 90       	pop	r15
    5754:	ef 90       	pop	r14
    5756:	df 90       	pop	r13
    5758:	cf 90       	pop	r12
    575a:	bf 90       	pop	r11
    575c:	af 90       	pop	r10
    575e:	9f 90       	pop	r9
    5760:	8f 90       	pop	r8
    5762:	08 95       	ret

00005764 <mmc_disk_timerproc>:
void mmc_disk_timerproc (void)
{
	BYTE n, s;


	n = Timer1;				/* 100Hz decrement timer */
    5764:	80 91 13 02 	lds	r24, 0x0213	; 0x800213 <Timer1>
	if (n) Timer1 = --n;
    5768:	88 23       	and	r24, r24
    576a:	19 f0       	breq	.+6      	; 0x5772 <mmc_disk_timerproc+0xe>
    576c:	81 50       	subi	r24, 0x01	; 1
    576e:	80 93 13 02 	sts	0x0213, r24	; 0x800213 <Timer1>
	n = Timer2;
    5772:	80 91 12 02 	lds	r24, 0x0212	; 0x800212 <Timer2>
	if (n) Timer2 = --n;
    5776:	88 23       	and	r24, r24
    5778:	19 f0       	breq	.+6      	; 0x5780 <mmc_disk_timerproc+0x1c>
    577a:	81 50       	subi	r24, 0x01	; 1
    577c:	80 93 12 02 	sts	0x0212, r24	; 0x800212 <Timer2>

	s = Stat;
    5780:	80 91 0c 01 	lds	r24, 0x010C	; 0x80010c <Stat>
		s |= STA_PROTECT;
	} else {				/* Write enabled */
		s &= ~STA_PROTECT;
	}
	if (MMC_CD) {			/* Card inserted */
		s &= ~STA_NODISK;
    5784:	89 7f       	andi	r24, 0xF9	; 249
	} else {				/* Socket empty */
		s |= (STA_NODISK | STA_NOINIT);
	}
	Stat = s;				/* Update MMC status */
    5786:	80 93 0c 01 	sts	0x010C, r24	; 0x80010c <Stat>
    578a:	08 95       	ret

0000578c <toggle_e>:

    while ( (c = pgm_read_byte(progmem_s++)) ) {
        lcd_putc(c);
    }

}/* lcd_puts_p */
    578c:	8b b1       	in	r24, 0x0b	; 11
    578e:	80 68       	ori	r24, 0x80	; 128
    5790:	8b b9       	out	0x0b, r24	; 11
    5792:	82 e0       	ldi	r24, 0x02	; 2
    5794:	8a 95       	dec	r24
    5796:	f1 f7       	brne	.-4      	; 0x5794 <toggle_e+0x8>
    5798:	00 c0       	rjmp	.+0      	; 0x579a <toggle_e+0xe>
    579a:	8b b1       	in	r24, 0x0b	; 11
    579c:	8f 77       	andi	r24, 0x7F	; 127
    579e:	8b b9       	out	0x0b, r24	; 11
    57a0:	08 95       	ret

000057a2 <lcd_write>:
    57a2:	cf 93       	push	r28
    57a4:	df 93       	push	r29
    57a6:	d8 2f       	mov	r29, r24
    57a8:	66 23       	and	r22, r22
    57aa:	21 f0       	breq	.+8      	; 0x57b4 <lcd_write+0x12>
    57ac:	8b b1       	in	r24, 0x0b	; 11
    57ae:	80 62       	ori	r24, 0x20	; 32
    57b0:	8b b9       	out	0x0b, r24	; 11
    57b2:	03 c0       	rjmp	.+6      	; 0x57ba <lcd_write+0x18>
    57b4:	8b b1       	in	r24, 0x0b	; 11
    57b6:	8f 7d       	andi	r24, 0xDF	; 223
    57b8:	8b b9       	out	0x0b, r24	; 11
    57ba:	8b b1       	in	r24, 0x0b	; 11
    57bc:	8f 7b       	andi	r24, 0xBF	; 191
    57be:	8b b9       	out	0x0b, r24	; 11
    57c0:	87 b1       	in	r24, 0x07	; 7
    57c2:	8f 60       	ori	r24, 0x0F	; 15
    57c4:	87 b9       	out	0x07, r24	; 7
    57c6:	c8 b1       	in	r28, 0x08	; 8
    57c8:	c0 7f       	andi	r28, 0xF0	; 240
    57ca:	8d 2f       	mov	r24, r29
    57cc:	82 95       	swap	r24
    57ce:	8f 70       	andi	r24, 0x0F	; 15
    57d0:	8c 2b       	or	r24, r28
    57d2:	88 b9       	out	0x08, r24	; 8
    57d4:	db df       	rcall	.-74     	; 0x578c <toggle_e>
    57d6:	df 70       	andi	r29, 0x0F	; 15
    57d8:	dc 2b       	or	r29, r28
    57da:	d8 b9       	out	0x08, r29	; 8
    57dc:	d7 df       	rcall	.-82     	; 0x578c <toggle_e>
    57de:	cf 60       	ori	r28, 0x0F	; 15
    57e0:	c8 b9       	out	0x08, r28	; 8
    57e2:	df 91       	pop	r29
    57e4:	cf 91       	pop	r28
    57e6:	08 95       	ret

000057e8 <lcd_read>:
    57e8:	88 23       	and	r24, r24
    57ea:	21 f0       	breq	.+8      	; 0x57f4 <lcd_read+0xc>
    57ec:	8b b1       	in	r24, 0x0b	; 11
    57ee:	80 62       	ori	r24, 0x20	; 32
    57f0:	8b b9       	out	0x0b, r24	; 11
    57f2:	03 c0       	rjmp	.+6      	; 0x57fa <lcd_read+0x12>
    57f4:	8b b1       	in	r24, 0x0b	; 11
    57f6:	8f 7d       	andi	r24, 0xDF	; 223
    57f8:	8b b9       	out	0x0b, r24	; 11
    57fa:	8b b1       	in	r24, 0x0b	; 11
    57fc:	80 64       	ori	r24, 0x40	; 64
    57fe:	8b b9       	out	0x0b, r24	; 11
    5800:	87 b1       	in	r24, 0x07	; 7
    5802:	80 7f       	andi	r24, 0xF0	; 240
    5804:	87 b9       	out	0x07, r24	; 7
    5806:	8b b1       	in	r24, 0x0b	; 11
    5808:	80 68       	ori	r24, 0x80	; 128
    580a:	8b b9       	out	0x0b, r24	; 11
    580c:	82 e0       	ldi	r24, 0x02	; 2
    580e:	8a 95       	dec	r24
    5810:	f1 f7       	brne	.-4      	; 0x580e <lcd_read+0x26>
    5812:	00 c0       	rjmp	.+0      	; 0x5814 <lcd_read+0x2c>
    5814:	96 b1       	in	r25, 0x06	; 6
    5816:	92 95       	swap	r25
    5818:	90 7f       	andi	r25, 0xF0	; 240
    581a:	8b b1       	in	r24, 0x0b	; 11
    581c:	8f 77       	andi	r24, 0x7F	; 127
    581e:	8b b9       	out	0x0b, r24	; 11
    5820:	82 e0       	ldi	r24, 0x02	; 2
    5822:	8a 95       	dec	r24
    5824:	f1 f7       	brne	.-4      	; 0x5822 <lcd_read+0x3a>
    5826:	00 c0       	rjmp	.+0      	; 0x5828 <lcd_read+0x40>
    5828:	8b b1       	in	r24, 0x0b	; 11
    582a:	80 68       	ori	r24, 0x80	; 128
    582c:	8b b9       	out	0x0b, r24	; 11
    582e:	82 e0       	ldi	r24, 0x02	; 2
    5830:	8a 95       	dec	r24
    5832:	f1 f7       	brne	.-4      	; 0x5830 <lcd_read+0x48>
    5834:	00 c0       	rjmp	.+0      	; 0x5836 <lcd_read+0x4e>
    5836:	86 b1       	in	r24, 0x06	; 6
    5838:	8f 70       	andi	r24, 0x0F	; 15
    583a:	2b b1       	in	r18, 0x0b	; 11
    583c:	2f 77       	andi	r18, 0x7F	; 127
    583e:	2b b9       	out	0x0b, r18	; 11
    5840:	89 2b       	or	r24, r25
    5842:	08 95       	ret

00005844 <lcd_waitbusy>:
    5844:	80 e0       	ldi	r24, 0x00	; 0
    5846:	d0 df       	rcall	.-96     	; 0x57e8 <lcd_read>
    5848:	88 23       	and	r24, r24
    584a:	e4 f3       	brlt	.-8      	; 0x5844 <lcd_waitbusy>
    584c:	8a e0       	ldi	r24, 0x0A	; 10
    584e:	8a 95       	dec	r24
    5850:	f1 f7       	brne	.-4      	; 0x584e <lcd_waitbusy+0xa>
    5852:	00 c0       	rjmp	.+0      	; 0x5854 <lcd_waitbusy+0x10>
    5854:	80 e0       	ldi	r24, 0x00	; 0
    5856:	c8 cf       	rjmp	.-112    	; 0x57e8 <lcd_read>
    5858:	08 95       	ret

0000585a <lcd_command>:
    585a:	cf 93       	push	r28
    585c:	c8 2f       	mov	r28, r24
    585e:	f2 df       	rcall	.-28     	; 0x5844 <lcd_waitbusy>
    5860:	60 e0       	ldi	r22, 0x00	; 0
    5862:	8c 2f       	mov	r24, r28
    5864:	9e df       	rcall	.-196    	; 0x57a2 <lcd_write>
    5866:	cf 91       	pop	r28
    5868:	08 95       	ret

0000586a <lcd_gotoxy>:
    586a:	61 11       	cpse	r22, r1
    586c:	03 c0       	rjmp	.+6      	; 0x5874 <lcd_gotoxy+0xa>
    586e:	80 58       	subi	r24, 0x80	; 128
    5870:	f4 cf       	rjmp	.-24     	; 0x585a <lcd_command>
    5872:	08 95       	ret
    5874:	80 54       	subi	r24, 0x40	; 64
    5876:	f1 cf       	rjmp	.-30     	; 0x585a <lcd_command>
    5878:	08 95       	ret

0000587a <lcd_clrscr>:
    587a:	81 e0       	ldi	r24, 0x01	; 1
    587c:	ee cf       	rjmp	.-36     	; 0x585a <lcd_command>
    587e:	08 95       	ret

00005880 <lcd_putc>:
    5880:	cf 93       	push	r28
    5882:	c8 2f       	mov	r28, r24
    5884:	df df       	rcall	.-66     	; 0x5844 <lcd_waitbusy>
    5886:	ca 30       	cpi	r28, 0x0A	; 10
    5888:	41 f4       	brne	.+16     	; 0x589a <lcd_putc+0x1a>
    588a:	80 34       	cpi	r24, 0x40	; 64
    588c:	10 f4       	brcc	.+4      	; 0x5892 <lcd_putc+0x12>
    588e:	80 e4       	ldi	r24, 0x40	; 64
    5890:	01 c0       	rjmp	.+2      	; 0x5894 <lcd_putc+0x14>
    5892:	80 e0       	ldi	r24, 0x00	; 0
    5894:	80 58       	subi	r24, 0x80	; 128
    5896:	e1 df       	rcall	.-62     	; 0x585a <lcd_command>
    5898:	03 c0       	rjmp	.+6      	; 0x58a0 <lcd_putc+0x20>
    589a:	61 e0       	ldi	r22, 0x01	; 1
    589c:	8c 2f       	mov	r24, r28
    589e:	81 df       	rcall	.-254    	; 0x57a2 <lcd_write>
    58a0:	cf 91       	pop	r28
    58a2:	08 95       	ret

000058a4 <lcd_init>:
                   LCD_DISP_ON_CURSOR      display on, cursor on
                   LCD_DISP_CURSOR_BLINK   display on, cursor on flashing
Returns:  none
*************************************************************************/
void lcd_init(uint8_t dispAttr)
{
    58a4:	cf 93       	push	r28
    58a6:	c8 2f       	mov	r28, r24
    }
    else if ( ( &LCD_DATA0_PORT == &LCD_DATA1_PORT) && ( &LCD_DATA1_PORT == &LCD_DATA2_PORT ) && ( &LCD_DATA2_PORT == &LCD_DATA3_PORT )
           && (LCD_DATA0_PIN == 0 ) && (LCD_DATA1_PIN == 1) && (LCD_DATA2_PIN == 2) && (LCD_DATA3_PIN == 3) )
    {
        /* configure all port bits as output (all LCD data lines on same port, but control lines on different ports) */
        DDR(LCD_DATA0_PORT) |= 0x0F;
    58a8:	87 b1       	in	r24, 0x07	; 7
    58aa:	8f 60       	ori	r24, 0x0F	; 15
    58ac:	87 b9       	out	0x07, r24	; 7
        DDR(LCD_RS_PORT)    |= _BV(LCD_RS_PIN);
    58ae:	8a b1       	in	r24, 0x0a	; 10
    58b0:	80 62       	ori	r24, 0x20	; 32
    58b2:	8a b9       	out	0x0a, r24	; 10
        DDR(LCD_RW_PORT)    |= _BV(LCD_RW_PIN);
    58b4:	8a b1       	in	r24, 0x0a	; 10
    58b6:	80 64       	ori	r24, 0x40	; 64
    58b8:	8a b9       	out	0x0a, r24	; 10
        DDR(LCD_E_PORT)     |= _BV(LCD_E_PIN);
    58ba:	8a b1       	in	r24, 0x0a	; 10
    58bc:	80 68       	ori	r24, 0x80	; 128
    58be:	8a b9       	out	0x0a, r24	; 10
	#else
		//round up by default
		__ticks_dc = (uint32_t)(ceil(fabs(__tmp)));
	#endif

	__builtin_avr_delay_cycles(__ticks_dc);
    58c0:	8f ef       	ldi	r24, 0xFF	; 255
    58c2:	9c e7       	ldi	r25, 0x7C	; 124
    58c4:	01 97       	sbiw	r24, 0x01	; 1
    58c6:	f1 f7       	brne	.-4      	; 0x58c4 <lcd_init+0x20>
    58c8:	00 c0       	rjmp	.+0      	; 0x58ca <lcd_init+0x26>
    58ca:	00 00       	nop
        DDR(LCD_DATA3_PORT) |= _BV(LCD_DATA3_PIN);
    }
    delay(LCD_DELAY_BOOTUP);             /* wait 16ms or more after power-on       */
    
    /* initial write to lcd is 8bit */
    LCD_DATA1_PORT |= _BV(LCD_DATA1_PIN);    // LCD_FUNCTION>>4;
    58cc:	88 b1       	in	r24, 0x08	; 8
    58ce:	82 60       	ori	r24, 0x02	; 2
    58d0:	88 b9       	out	0x08, r24	; 8
    LCD_DATA0_PORT |= _BV(LCD_DATA0_PIN);    // LCD_FUNCTION_8BIT>>4;
    58d2:	88 b1       	in	r24, 0x08	; 8
    58d4:	81 60       	ori	r24, 0x01	; 1
    lcd_e_toggle();
    58d6:	88 b9       	out	0x08, r24	; 8
    58d8:	59 df       	rcall	.-334    	; 0x578c <toggle_e>
    58da:	8f e0       	ldi	r24, 0x0F	; 15
    58dc:	97 e2       	ldi	r25, 0x27	; 39
    58de:	01 97       	sbiw	r24, 0x01	; 1
    58e0:	f1 f7       	brne	.-4      	; 0x58de <lcd_init+0x3a>
    delay(LCD_DELAY_INIT);               /* delay, busy flag can't be checked here */
   
    /* repeat last command */ 
    lcd_e_toggle();      
    58e2:	00 c0       	rjmp	.+0      	; 0x58e4 <lcd_init+0x40>
    58e4:	00 00       	nop
    58e6:	52 df       	rcall	.-348    	; 0x578c <toggle_e>
    58e8:	9a ea       	ldi	r25, 0xAA	; 170
    58ea:	9a 95       	dec	r25
    delay(LCD_DELAY_INIT_REP);           /* delay, busy flag can't be checked here */
    
    /* repeat last command a third time */
    lcd_e_toggle();      
    58ec:	f1 f7       	brne	.-4      	; 0x58ea <lcd_init+0x46>
    58ee:	00 c0       	rjmp	.+0      	; 0x58f0 <lcd_init+0x4c>
    58f0:	4d df       	rcall	.-358    	; 0x578c <toggle_e>
    58f2:	8a ea       	ldi	r24, 0xAA	; 170
    58f4:	8a 95       	dec	r24
    delay(LCD_DELAY_INIT_REP);           /* delay, busy flag can't be checked here */

    /* now configure for 4bit mode */
    LCD_DATA0_PORT &= ~_BV(LCD_DATA0_PIN);   // LCD_FUNCTION_4BIT_1LINE>>4
    58f6:	f1 f7       	brne	.-4      	; 0x58f4 <lcd_init+0x50>
    58f8:	00 c0       	rjmp	.+0      	; 0x58fa <lcd_init+0x56>
    lcd_e_toggle();
    58fa:	88 b1       	in	r24, 0x08	; 8
    58fc:	8e 7f       	andi	r24, 0xFE	; 254
    58fe:	88 b9       	out	0x08, r24	; 8
    /* Display with KS0073 controller requires special commands for enabling 4 line mode */
	lcd_command(KS0073_EXTENDED_FUNCTION_REGISTER_ON);
	lcd_command(KS0073_4LINES_MODE);
	lcd_command(KS0073_EXTENDED_FUNCTION_REGISTER_OFF);
#else
    lcd_command(LCD_FUNCTION_DEFAULT);      /* function set: display lines  */
    5900:	45 df       	rcall	.-374    	; 0x578c <toggle_e>
#endif
    lcd_command(LCD_DISP_OFF);              /* display off                  */
    5902:	9a ea       	ldi	r25, 0xAA	; 170
    5904:	9a 95       	dec	r25
    lcd_clrscr();                           /* display clear                */ 
    5906:	f1 f7       	brne	.-4      	; 0x5904 <lcd_init+0x60>
    5908:	00 c0       	rjmp	.+0      	; 0x590a <lcd_init+0x66>
    lcd_command(LCD_MODE_DEFAULT);          /* set entry mode               */
    590a:	88 e2       	ldi	r24, 0x28	; 40
    590c:	a6 df       	rcall	.-180    	; 0x585a <lcd_command>
    590e:	88 e0       	ldi	r24, 0x08	; 8
    lcd_command(dispAttr);                  /* display/cursor control       */
    5910:	a4 df       	rcall	.-184    	; 0x585a <lcd_command>
    5912:	b3 df       	rcall	.-154    	; 0x587a <lcd_clrscr>
    5914:	86 e0       	ldi	r24, 0x06	; 6

}/* lcd_init */
    5916:	a1 df       	rcall	.-190    	; 0x585a <lcd_command>
    5918:	8c 2f       	mov	r24, r28
    591a:	9f df       	rcall	.-194    	; 0x585a <lcd_command>
    591c:	cf 91       	pop	r28
    591e:	08 95       	ret

00005920 <__udivmodsi4>:
    5920:	a1 e2       	ldi	r26, 0x21	; 33
    5922:	1a 2e       	mov	r1, r26
    5924:	aa 1b       	sub	r26, r26
    5926:	bb 1b       	sub	r27, r27
    5928:	fd 01       	movw	r30, r26
    592a:	0d c0       	rjmp	.+26     	; 0x5946 <__udivmodsi4_ep>

0000592c <__udivmodsi4_loop>:
    592c:	aa 1f       	adc	r26, r26
    592e:	bb 1f       	adc	r27, r27
    5930:	ee 1f       	adc	r30, r30
    5932:	ff 1f       	adc	r31, r31
    5934:	a2 17       	cp	r26, r18
    5936:	b3 07       	cpc	r27, r19
    5938:	e4 07       	cpc	r30, r20
    593a:	f5 07       	cpc	r31, r21
    593c:	20 f0       	brcs	.+8      	; 0x5946 <__udivmodsi4_ep>
    593e:	a2 1b       	sub	r26, r18
    5940:	b3 0b       	sbc	r27, r19
    5942:	e4 0b       	sbc	r30, r20
    5944:	f5 0b       	sbc	r31, r21

00005946 <__udivmodsi4_ep>:
    5946:	66 1f       	adc	r22, r22
    5948:	77 1f       	adc	r23, r23
    594a:	88 1f       	adc	r24, r24
    594c:	99 1f       	adc	r25, r25
    594e:	1a 94       	dec	r1
    5950:	69 f7       	brne	.-38     	; 0x592c <__udivmodsi4_loop>
    5952:	60 95       	com	r22
    5954:	70 95       	com	r23
    5956:	80 95       	com	r24
    5958:	90 95       	com	r25
    595a:	9b 01       	movw	r18, r22
    595c:	ac 01       	movw	r20, r24
    595e:	bd 01       	movw	r22, r26
    5960:	cf 01       	movw	r24, r30
    5962:	08 95       	ret

00005964 <__tablejump2__>:
    5964:	ee 0f       	add	r30, r30
    5966:	ff 1f       	adc	r31, r31
    5968:	05 90       	lpm	r0, Z+
    596a:	f4 91       	lpm	r31, Z
    596c:	e0 2d       	mov	r30, r0
    596e:	09 94       	ijmp

00005970 <__umulhisi3>:
    5970:	a2 9f       	mul	r26, r18
    5972:	b0 01       	movw	r22, r0
    5974:	b3 9f       	mul	r27, r19
    5976:	c0 01       	movw	r24, r0
    5978:	a3 9f       	mul	r26, r19
    597a:	70 0d       	add	r23, r0
    597c:	81 1d       	adc	r24, r1
    597e:	11 24       	eor	r1, r1
    5980:	91 1d       	adc	r25, r1
    5982:	b2 9f       	mul	r27, r18
    5984:	70 0d       	add	r23, r0
    5986:	81 1d       	adc	r24, r1
    5988:	11 24       	eor	r1, r1
    598a:	91 1d       	adc	r25, r1
    598c:	08 95       	ret

0000598e <__muluhisi3>:
    598e:	f0 df       	rcall	.-32     	; 0x5970 <__umulhisi3>
    5990:	a5 9f       	mul	r26, r21
    5992:	90 0d       	add	r25, r0
    5994:	b4 9f       	mul	r27, r20
    5996:	90 0d       	add	r25, r0
    5998:	a4 9f       	mul	r26, r20
    599a:	80 0d       	add	r24, r0
    599c:	91 1d       	adc	r25, r1
    599e:	11 24       	eor	r1, r1
    59a0:	08 95       	ret

000059a2 <strncmp_P>:
    59a2:	fb 01       	movw	r30, r22
    59a4:	dc 01       	movw	r26, r24
    59a6:	41 50       	subi	r20, 0x01	; 1
    59a8:	50 40       	sbci	r21, 0x00	; 0
    59aa:	30 f0       	brcs	.+12     	; 0x59b8 <strncmp_P+0x16>
    59ac:	8d 91       	ld	r24, X+
    59ae:	05 90       	lpm	r0, Z+
    59b0:	80 19       	sub	r24, r0
    59b2:	19 f4       	brne	.+6      	; 0x59ba <strncmp_P+0x18>
    59b4:	00 20       	and	r0, r0
    59b6:	b9 f7       	brne	.-18     	; 0x59a6 <strncmp_P+0x4>
    59b8:	88 1b       	sub	r24, r24
    59ba:	99 0b       	sbc	r25, r25
    59bc:	08 95       	ret

000059be <memset>:
    59be:	dc 01       	movw	r26, r24
    59c0:	01 c0       	rjmp	.+2      	; 0x59c4 <memset+0x6>
    59c2:	6d 93       	st	X+, r22
    59c4:	41 50       	subi	r20, 0x01	; 1
    59c6:	50 40       	sbci	r21, 0x00	; 0
    59c8:	e0 f7       	brcc	.-8      	; 0x59c2 <memset+0x4>
    59ca:	08 95       	ret

000059cc <strchr>:
    59cc:	fc 01       	movw	r30, r24
    59ce:	81 91       	ld	r24, Z+
    59d0:	86 17       	cp	r24, r22
    59d2:	21 f0       	breq	.+8      	; 0x59dc <strchr+0x10>
    59d4:	88 23       	and	r24, r24
    59d6:	d9 f7       	brne	.-10     	; 0x59ce <strchr+0x2>
    59d8:	99 27       	eor	r25, r25
    59da:	08 95       	ret
    59dc:	31 97       	sbiw	r30, 0x01	; 1
    59de:	cf 01       	movw	r24, r30
    59e0:	08 95       	ret

000059e2 <_exit>:
    59e2:	f8 94       	cli

000059e4 <__stop_program>:
    59e4:	ff cf       	rjmp	.-2      	; 0x59e4 <__stop_program>
